ARM GAS  C:\Users\yomat\AppData\Local\Temp\cc0e6ECi.s 			page 1


   1              		.syntax unified
   2              		.cpu cortex-m4
   3              		.eabi_attribute 27, 1
   4              		.fpu fpv4-sp-d16
   5              		.eabi_attribute 20, 1
   6              		.eabi_attribute 21, 1
   7              		.eabi_attribute 23, 3
   8              		.eabi_attribute 24, 1
   9              		.eabi_attribute 25, 1
  10              		.eabi_attribute 26, 1
  11              		.eabi_attribute 30, 1
  12              		.eabi_attribute 34, 1
  13              		.eabi_attribute 18, 4
  14              		.thumb
  15              		.syntax unified
  16              		.file	"AFE4404.c"
  17              		.text
  18              	.Ltext0:
  19              		.cfi_sections	.debug_frame
  20              		.section	.text.afe4404Read,"ax",%progbits
  21              		.align	2
  22              		.global	afe4404Read
  23              		.thumb
  24              		.thumb_func
  25              		.type	afe4404Read, %function
  26              	afe4404Read:
  27              	.LFB726:
  28              		.file 1 "AFE4404.c"
   1:AFE4404.c     **** /* ========================================
   2:AFE4404.c     ****  *
   3:AFE4404.c     ****  * Copyright YOUR COMPANY, THE YEAR
   4:AFE4404.c     ****  * All Rights Reserved
   5:AFE4404.c     ****  * UNPUBLISHED, LICENSED SOFTWARE.
   6:AFE4404.c     ****  *
   7:AFE4404.c     ****  * CONFIDENTIAL AND PROPRIETARY INFORMATION
   8:AFE4404.c     ****  * WHICH IS THE PROPERTY OF your company.
   9:AFE4404.c     ****  *
  10:AFE4404.c     ****  * ========================================
  11:AFE4404.c     **** */
  12:AFE4404.c     **** 
  13:AFE4404.c     **** /* [] END OF FILE */
  14:AFE4404.c     **** 
  15:AFE4404.c     **** 
  16:AFE4404.c     **** /*
  17:AFE4404.c     ****  * AFE4404 Heart Rate Monitors and Low-Cost Pulse Oximeters
  18:AFE4404.c     ****  *
  19:AFE4404.c     ****  * Copyright (C) 2015-2016 Texas Instruments Incorporated - http://www.ti.com/
  20:AFE4404.c     ****  *	Andrew F. Davis <afd@ti.com>
  21:AFE4404.c     ****  *
  22:AFE4404.c     ****  * This program is free software; you can redistribute it and/or modify
  23:AFE4404.c     ****  * it under the terms of the GNU General Public License version 2 as
  24:AFE4404.c     ****  * published by the Free Software Foundation.
  25:AFE4404.c     ****  *
  26:AFE4404.c     ****  * This program is distributed in the hope that it will be useful, but
  27:AFE4404.c     ****  * WITHOUT ANY WARRANTY; without even the implied warranty of
  28:AFE4404.c     ****  * MERCHANTABILITY or FITNESS FOR A PARTICULAR PURPOSE.  See the GNU
  29:AFE4404.c     ****  * General Public License for more details.
ARM GAS  C:\Users\yomat\AppData\Local\Temp\cc0e6ECi.s 			page 2


  30:AFE4404.c     ****  */
  31:AFE4404.c     **** #include "AFE4404.h"
  32:AFE4404.c     **** 
  33:AFE4404.c     **** int8_t afe4404Read(CySCB_Type *I2cNo, uint8_t Reg, uint8_t *Data, int Len)
  34:AFE4404.c     **** {   
  29              		.loc 1 34 0
  30              		.cfi_startproc
  31              		@ args = 0, pretend = 0, frame = 0
  32              		@ frame_needed = 0, uses_anonymous_args = 0
  33              	.LVL0:
  34 0000 2DE9F041 		push	{r4, r5, r6, r7, r8, lr}
  35              		.cfi_def_cfa_offset 24
  36              		.cfi_offset 4, -24
  37              		.cfi_offset 5, -20
  38              		.cfi_offset 6, -16
  39              		.cfi_offset 7, -12
  40              		.cfi_offset 8, -8
  41              		.cfi_offset 14, -4
  42 0004 82B0     		sub	sp, sp, #8
  43              		.cfi_def_cfa_offset 32
  44 0006 0646     		mov	r6, r0
  45 0008 0C46     		mov	r4, r1
  46 000a 9046     		mov	r8, r2
  47 000c 1D46     		mov	r5, r3
  35:AFE4404.c     ****     cy_stc_scb_i2c_context_t *i2c_context = I2cNo==I2C_1_HW ? &I2C_1_context:&I2C_2_context;
  48              		.loc 1 35 0
  49 000e 1C4B     		ldr	r3, .L7
  50              	.LVL1:
  51 0010 9842     		cmp	r0, r3
  52 0012 01D1     		bne	.L5
  53 0014 1B4F     		ldr	r7, .L7+4
  54 0016 00E0     		b	.L2
  55              	.L5:
  56 0018 1B4F     		ldr	r7, .L7+8
  57              	.L2:
  58              	.LVL2:
  36:AFE4404.c     ****     
  37:AFE4404.c     ****     Cy_SCB_I2C_MasterSendStart(I2cNo, AFE4404_I2C_ADDR, CY_SCB_I2C_WRITE_XFER, 0, i2c_context);
  59              		.loc 1 37 0 discriminator 4
  60 001a 0097     		str	r7, [sp]
  61 001c 0023     		movs	r3, #0
  62 001e 1A46     		mov	r2, r3
  63              	.LVL3:
  64 0020 5821     		movs	r1, #88
  65              	.LVL4:
  66 0022 3046     		mov	r0, r6
  67              	.LVL5:
  68 0024 FFF7FEFF 		bl	Cy_SCB_I2C_MasterSendStart
  69              	.LVL6:
  38:AFE4404.c     ****     Cy_SCB_I2C_MasterWriteByte(I2cNo, Reg,0,i2c_context);
  70              		.loc 1 38 0 discriminator 4
  71 0028 3B46     		mov	r3, r7
  72 002a 0022     		movs	r2, #0
  73 002c 2146     		mov	r1, r4
  74 002e 3046     		mov	r0, r6
  75 0030 FFF7FEFF 		bl	Cy_SCB_I2C_MasterWriteByte
  76              	.LVL7:
ARM GAS  C:\Users\yomat\AppData\Local\Temp\cc0e6ECi.s 			page 3


  39:AFE4404.c     ****     Cy_SCB_I2C_MasterSendReStart(I2cNo, AFE4404_I2C_ADDR, CY_SCB_I2C_READ_XFER, 0, i2c_context);
  77              		.loc 1 39 0 discriminator 4
  78 0034 0097     		str	r7, [sp]
  79 0036 0023     		movs	r3, #0
  80 0038 0122     		movs	r2, #1
  81 003a 5821     		movs	r1, #88
  82 003c 3046     		mov	r0, r6
  83 003e FFF7FEFF 		bl	Cy_SCB_I2C_MasterSendReStart
  84              	.LVL8:
  85              	.LBB2:
  40:AFE4404.c     ****     for(int i=0; i<Len-1; i++) {
  86              		.loc 1 40 0 discriminator 4
  87 0042 0024     		movs	r4, #0
  88 0044 09E0     		b	.L3
  89              	.LVL9:
  90              	.L4:
  41:AFE4404.c     ****         Cy_SCB_I2C_MasterReadByte(I2cNo, CY_SCB_I2C_ACK, &Data[Len-i-1], 0 ,i2c_context);
  91              		.loc 1 41 0 discriminator 3
  92 0046 2A1B     		subs	r2, r5, r4
  93 0048 013A     		subs	r2, r2, #1
  94 004a 0097     		str	r7, [sp]
  95 004c 0023     		movs	r3, #0
  96 004e 4244     		add	r2, r2, r8
  97 0050 1946     		mov	r1, r3
  98 0052 3046     		mov	r0, r6
  99 0054 FFF7FEFF 		bl	Cy_SCB_I2C_MasterReadByte
 100              	.LVL10:
  40:AFE4404.c     ****     for(int i=0; i<Len-1; i++) {
 101              		.loc 1 40 0 discriminator 3
 102 0058 0134     		adds	r4, r4, #1
 103              	.LVL11:
 104              	.L3:
  40:AFE4404.c     ****     for(int i=0; i<Len-1; i++) {
 105              		.loc 1 40 0 is_stmt 0 discriminator 1
 106 005a 6B1E     		subs	r3, r5, #1
 107 005c 9C42     		cmp	r4, r3
 108 005e F2DB     		blt	.L4
 109              	.LBE2:
  42:AFE4404.c     ****     }
  43:AFE4404.c     ****     Cy_SCB_I2C_MasterReadByte(I2cNo, CY_SCB_I2C_NAK, &Data[0], 0, i2c_context);
 110              		.loc 1 43 0 is_stmt 1
 111 0060 0097     		str	r7, [sp]
 112 0062 0023     		movs	r3, #0
 113 0064 4246     		mov	r2, r8
 114 0066 0121     		movs	r1, #1
 115 0068 3046     		mov	r0, r6
 116 006a FFF7FEFF 		bl	Cy_SCB_I2C_MasterReadByte
 117              	.LVL12:
  44:AFE4404.c     ****     Cy_SCB_I2C_MasterSendStop(I2cNo, 0, i2c_context);
 118              		.loc 1 44 0
 119 006e 3A46     		mov	r2, r7
 120 0070 0021     		movs	r1, #0
 121 0072 3046     		mov	r0, r6
 122 0074 FFF7FEFF 		bl	Cy_SCB_I2C_MasterSendStop
 123              	.LVL13:
  45:AFE4404.c     **** 
  46:AFE4404.c     ****     return 0;
ARM GAS  C:\Users\yomat\AppData\Local\Temp\cc0e6ECi.s 			page 4


  47:AFE4404.c     **** }
 124              		.loc 1 47 0
 125 0078 0020     		movs	r0, #0
 126 007a 02B0     		add	sp, sp, #8
 127              		.cfi_def_cfa_offset 24
 128              		@ sp needed
 129 007c BDE8F081 		pop	{r4, r5, r6, r7, r8, pc}
 130              	.LVL14:
 131              	.L8:
 132              		.align	2
 133              	.L7:
 134 0080 00006240 		.word	1080164352
 135 0084 00000000 		.word	I2C_1_context
 136 0088 00000000 		.word	I2C_2_context
 137              		.cfi_endproc
 138              	.LFE726:
 139              		.size	afe4404Read, .-afe4404Read
 140              		.section	.text.afe4404ContiRead,"ax",%progbits
 141              		.align	2
 142              		.global	afe4404ContiRead
 143              		.thumb
 144              		.thumb_func
 145              		.type	afe4404ContiRead, %function
 146              	afe4404ContiRead:
 147              	.LFB727:
  48:AFE4404.c     **** 
  49:AFE4404.c     **** 
  50:AFE4404.c     **** int8_t afe4404ContiRead(CySCB_Type *I2cNo, struct reg_sequence *reg_seq, unsigned int length)
  51:AFE4404.c     **** {   
 148              		.loc 1 51 0
 149              		.cfi_startproc
 150              		@ args = 0, pretend = 0, frame = 0
 151              		@ frame_needed = 0, uses_anonymous_args = 0
 152              	.LVL15:
 153 0000 F8B5     		push	{r3, r4, r5, r6, r7, lr}
 154              		.cfi_def_cfa_offset 24
 155              		.cfi_offset 3, -24
 156              		.cfi_offset 4, -20
 157              		.cfi_offset 5, -16
 158              		.cfi_offset 6, -12
 159              		.cfi_offset 7, -8
 160              		.cfi_offset 14, -4
 161 0002 0746     		mov	r7, r0
 162 0004 0D46     		mov	r5, r1
 163 0006 1646     		mov	r6, r2
 164              	.LVL16:
 165              	.LBB3:
  52:AFE4404.c     ****     for(unsigned int i=0; i<length; i++){
 166              		.loc 1 52 0
 167 0008 0024     		movs	r4, #0
 168 000a 09E0     		b	.L10
 169              	.LVL17:
 170              	.L11:
  53:AFE4404.c     ****         afe4404Read(I2cNo, reg_seq[i].reg, (uint8_t*)&reg_seq[i].val, REG_DATA_LEN);
 171              		.loc 1 53 0 discriminator 3
 172 000c 05EBC402 		add	r2, r5, r4, lsl #3
 173 0010 0323     		movs	r3, #3
ARM GAS  C:\Users\yomat\AppData\Local\Temp\cc0e6ECi.s 			page 5


 174 0012 0432     		adds	r2, r2, #4
 175 0014 15F83410 		ldrb	r1, [r5, r4, lsl #3]	@ zero_extendqisi2
 176 0018 3846     		mov	r0, r7
 177 001a FFF7FEFF 		bl	afe4404Read
 178              	.LVL18:
  52:AFE4404.c     ****     for(unsigned int i=0; i<length; i++){
 179              		.loc 1 52 0 discriminator 3
 180 001e 0134     		adds	r4, r4, #1
 181              	.LVL19:
 182              	.L10:
  52:AFE4404.c     ****     for(unsigned int i=0; i<length; i++){
 183              		.loc 1 52 0 is_stmt 0 discriminator 1
 184 0020 B442     		cmp	r4, r6
 185 0022 F3D3     		bcc	.L11
 186              	.LBE3:
  54:AFE4404.c     ****     }
  55:AFE4404.c     ****     
  56:AFE4404.c     ****     return 0;
  57:AFE4404.c     **** }
 187              		.loc 1 57 0 is_stmt 1
 188 0024 0020     		movs	r0, #0
 189 0026 F8BD     		pop	{r3, r4, r5, r6, r7, pc}
 190              		.cfi_endproc
 191              	.LFE727:
 192              		.size	afe4404ContiRead, .-afe4404ContiRead
 193              		.section	.text.afe4404Write,"ax",%progbits
 194              		.align	2
 195              		.global	afe4404Write
 196              		.thumb
 197              		.thumb_func
 198              		.type	afe4404Write, %function
 199              	afe4404Write:
 200              	.LFB728:
  58:AFE4404.c     **** 
  59:AFE4404.c     **** 
  60:AFE4404.c     **** int8_t afe4404Write(CySCB_Type *I2cNo, uint8_t Reg, uint8_t *Data, uint16_t Len)
  61:AFE4404.c     **** {   
 201              		.loc 1 61 0
 202              		.cfi_startproc
 203              		@ args = 0, pretend = 0, frame = 0
 204              		@ frame_needed = 0, uses_anonymous_args = 0
 205              	.LVL20:
 206 0000 2DE9F041 		push	{r4, r5, r6, r7, r8, lr}
 207              		.cfi_def_cfa_offset 24
 208              		.cfi_offset 4, -24
 209              		.cfi_offset 5, -20
 210              		.cfi_offset 6, -16
 211              		.cfi_offset 7, -12
 212              		.cfi_offset 8, -8
 213              		.cfi_offset 14, -4
 214 0004 82B0     		sub	sp, sp, #8
 215              		.cfi_def_cfa_offset 32
 216 0006 0646     		mov	r6, r0
 217 0008 0C46     		mov	r4, r1
 218 000a 9046     		mov	r8, r2
 219 000c 1D46     		mov	r5, r3
  62:AFE4404.c     ****     cy_stc_scb_i2c_context_t *i2c_context = I2cNo==I2C_1_HW ? &I2C_1_context:&I2C_2_context;
ARM GAS  C:\Users\yomat\AppData\Local\Temp\cc0e6ECi.s 			page 6


 220              		.loc 1 62 0
 221 000e 154B     		ldr	r3, .L19
 222              	.LVL21:
 223 0010 9842     		cmp	r0, r3
 224 0012 01D1     		bne	.L17
 225 0014 144F     		ldr	r7, .L19+4
 226 0016 00E0     		b	.L14
 227              	.L17:
 228 0018 144F     		ldr	r7, .L19+8
 229              	.L14:
 230              	.LVL22:
  63:AFE4404.c     ****     
  64:AFE4404.c     ****     Cy_SCB_I2C_MasterSendStart(I2cNo, AFE4404_I2C_ADDR, CY_SCB_I2C_WRITE_XFER, 0, i2c_context);
 231              		.loc 1 64 0 discriminator 4
 232 001a 0097     		str	r7, [sp]
 233 001c 0023     		movs	r3, #0
 234 001e 1A46     		mov	r2, r3
 235              	.LVL23:
 236 0020 5821     		movs	r1, #88
 237              	.LVL24:
 238 0022 3046     		mov	r0, r6
 239              	.LVL25:
 240 0024 FFF7FEFF 		bl	Cy_SCB_I2C_MasterSendStart
 241              	.LVL26:
  65:AFE4404.c     ****     Cy_SCB_I2C_MasterWriteByte(I2cNo, Reg, 0, i2c_context);
 242              		.loc 1 65 0 discriminator 4
 243 0028 3B46     		mov	r3, r7
 244 002a 0022     		movs	r2, #0
 245 002c 2146     		mov	r1, r4
 246 002e 3046     		mov	r0, r6
 247 0030 FFF7FEFF 		bl	Cy_SCB_I2C_MasterWriteByte
 248              	.LVL27:
 249              	.LBB4:
  66:AFE4404.c     ****     for(int i=0; i<Len; i++) { 
 250              		.loc 1 66 0 discriminator 4
 251 0034 0024     		movs	r4, #0
 252 0036 09E0     		b	.L15
 253              	.LVL28:
 254              	.L16:
  67:AFE4404.c     ****        Cy_SCB_I2C_MasterWriteByte(I2cNo, Data[Len-i-1], 0, i2c_context);
 255              		.loc 1 67 0 discriminator 3
 256 0038 291B     		subs	r1, r5, r4
 257 003a 0139     		subs	r1, r1, #1
 258 003c 3B46     		mov	r3, r7
 259 003e 0022     		movs	r2, #0
 260 0040 18F80110 		ldrb	r1, [r8, r1]	@ zero_extendqisi2
 261 0044 3046     		mov	r0, r6
 262 0046 FFF7FEFF 		bl	Cy_SCB_I2C_MasterWriteByte
 263              	.LVL29:
  66:AFE4404.c     ****     for(int i=0; i<Len; i++) { 
 264              		.loc 1 66 0 discriminator 3
 265 004a 0134     		adds	r4, r4, #1
 266              	.LVL30:
 267              	.L15:
  66:AFE4404.c     ****     for(int i=0; i<Len; i++) { 
 268              		.loc 1 66 0 is_stmt 0 discriminator 1
 269 004c AC42     		cmp	r4, r5
ARM GAS  C:\Users\yomat\AppData\Local\Temp\cc0e6ECi.s 			page 7


 270 004e F3DB     		blt	.L16
 271              	.LBE4:
  68:AFE4404.c     ****     }
  69:AFE4404.c     ****     Cy_SCB_I2C_MasterSendStop(I2cNo, 0, i2c_context);
 272              		.loc 1 69 0 is_stmt 1
 273 0050 3A46     		mov	r2, r7
 274 0052 0021     		movs	r1, #0
 275 0054 3046     		mov	r0, r6
 276 0056 FFF7FEFF 		bl	Cy_SCB_I2C_MasterSendStop
 277              	.LVL31:
  70:AFE4404.c     ****     
  71:AFE4404.c     ****     return 0;
  72:AFE4404.c     **** }
 278              		.loc 1 72 0
 279 005a 0020     		movs	r0, #0
 280 005c 02B0     		add	sp, sp, #8
 281              		.cfi_def_cfa_offset 24
 282              		@ sp needed
 283 005e BDE8F081 		pop	{r4, r5, r6, r7, r8, pc}
 284              	.LVL32:
 285              	.L20:
 286 0062 00BF     		.align	2
 287              	.L19:
 288 0064 00006240 		.word	1080164352
 289 0068 00000000 		.word	I2C_1_context
 290 006c 00000000 		.word	I2C_2_context
 291              		.cfi_endproc
 292              	.LFE728:
 293              		.size	afe4404Write, .-afe4404Write
 294              		.section	.text.afe4404ContiWrite,"ax",%progbits
 295              		.align	2
 296              		.global	afe4404ContiWrite
 297              		.thumb
 298              		.thumb_func
 299              		.type	afe4404ContiWrite, %function
 300              	afe4404ContiWrite:
 301              	.LFB729:
  73:AFE4404.c     **** 
  74:AFE4404.c     **** int8_t afe4404ContiWrite(CySCB_Type *I2cNo, const struct reg_sequence *reg_seq, unsigned int length
  75:AFE4404.c     **** {   
 302              		.loc 1 75 0
 303              		.cfi_startproc
 304              		@ args = 0, pretend = 0, frame = 0
 305              		@ frame_needed = 0, uses_anonymous_args = 0
 306              	.LVL33:
 307 0000 F8B5     		push	{r3, r4, r5, r6, r7, lr}
 308              		.cfi_def_cfa_offset 24
 309              		.cfi_offset 3, -24
 310              		.cfi_offset 4, -20
 311              		.cfi_offset 5, -16
 312              		.cfi_offset 6, -12
 313              		.cfi_offset 7, -8
 314              		.cfi_offset 14, -4
 315 0002 0746     		mov	r7, r0
 316 0004 0D46     		mov	r5, r1
 317 0006 1646     		mov	r6, r2
 318              	.LVL34:
ARM GAS  C:\Users\yomat\AppData\Local\Temp\cc0e6ECi.s 			page 8


 319              	.LBB5:
  76:AFE4404.c     ****     for(unsigned int i=0; i<length; i++){
 320              		.loc 1 76 0
 321 0008 0024     		movs	r4, #0
 322 000a 09E0     		b	.L22
 323              	.LVL35:
 324              	.L23:
  77:AFE4404.c     ****         afe4404Write(I2cNo, reg_seq[i].reg, (uint8_t*)&reg_seq[i].val, REG_DATA_LEN);
 325              		.loc 1 77 0 discriminator 3
 326 000c 05EBC402 		add	r2, r5, r4, lsl #3
 327 0010 0323     		movs	r3, #3
 328 0012 0432     		adds	r2, r2, #4
 329 0014 15F83410 		ldrb	r1, [r5, r4, lsl #3]	@ zero_extendqisi2
 330 0018 3846     		mov	r0, r7
 331 001a FFF7FEFF 		bl	afe4404Write
 332              	.LVL36:
  76:AFE4404.c     ****     for(unsigned int i=0; i<length; i++){
 333              		.loc 1 76 0 discriminator 3
 334 001e 0134     		adds	r4, r4, #1
 335              	.LVL37:
 336              	.L22:
  76:AFE4404.c     ****     for(unsigned int i=0; i<length; i++){
 337              		.loc 1 76 0 is_stmt 0 discriminator 1
 338 0020 B442     		cmp	r4, r6
 339 0022 F3D3     		bcc	.L23
 340              	.LBE5:
  78:AFE4404.c     ****     }
  79:AFE4404.c     ****     
  80:AFE4404.c     ****     return 0;
  81:AFE4404.c     **** }
 341              		.loc 1 81 0 is_stmt 1
 342 0024 0020     		movs	r0, #0
 343 0026 F8BD     		pop	{r3, r4, r5, r6, r7, pc}
 344              		.cfi_endproc
 345              	.LFE729:
 346              		.size	afe4404ContiWrite, .-afe4404ContiWrite
 347              		.text
 348              	.Letext0:
 349              		.file 2 "c:\\program files (x86)\\cypress\\psoc creator\\4.4\\psoc creator\\import\\gnu\\arm\\5.4.
 350              		.file 3 "c:\\program files (x86)\\cypress\\psoc creator\\4.4\\psoc creator\\import\\gnu\\arm\\5.4.
 351              		.file 4 "Generated_Source\\PSoC6\\pdl\\devices/psoc6/include/ip/cyip_scb.h"
 352              		.file 5 "Generated_Source\\PSoC6\\pdl\\devices/psoc6/include/psoc6_01_config.h"
 353              		.file 6 "Generated_Source\\PSoC6\\pdl\\drivers/peripheral/device/cy_device.h"
 354              		.file 7 "Generated_Source\\PSoC6\\pdl\\drivers/peripheral/scb/cy_scb_i2c.h"
 355              		.file 8 "Generated_Source\\PSoC6\\pdl\\drivers/peripheral/scb/cy_scb_uart.h"
 356              		.file 9 "Generated_Source\\PSoC6\\pdl\\drivers/peripheral/tcpwm/cy_tcpwm_pwm.h"
 357              		.file 10 "Generated_Source\\PSoC6\\pdl\\middleware/ble/cy_ble_stack_host_main.h"
 358              		.file 11 "Generated_Source\\PSoC6\\pdl\\middleware/ble/cy_ble_gap.h"
 359              		.file 12 "AFE4404.h"
 360              		.file 13 "Generated_Source\\PSoC6\\pdl\\cmsis/include/core_cm4.h"
 361              		.file 14 "Generated_Source\\PSoC6/UART.h"
 362              		.file 15 "Generated_Source\\PSoC6/I2C_1.h"
 363              		.file 16 "Generated_Source\\PSoC6/I2C_2.h"
 364              		.file 17 "Generated_Source\\PSoC6/PWM_AFE.h"
 365              		.file 18 "Generated_Source\\PSoC6/PWM.h"
 366              		.file 19 "Generated_Source\\PSoC6/PWM_CYC.h"
 367              		.file 20 "Generated_Source\\PSoC6/PWM_TIM.h"
ARM GAS  C:\Users\yomat\AppData\Local\Temp\cc0e6ECi.s 			page 9

