ARM GAS  C:\Users\yomat\AppData\Local\Temp\cc0omv11.s 			page 1


   1              		.syntax unified
   2              		.cpu cortex-m4
   3              		.eabi_attribute 27, 1
   4              		.fpu fpv4-sp-d16
   5              		.eabi_attribute 20, 1
   6              		.eabi_attribute 21, 1
   7              		.eabi_attribute 23, 3
   8              		.eabi_attribute 24, 1
   9              		.eabi_attribute 25, 1
  10              		.eabi_attribute 26, 1
  11              		.eabi_attribute 30, 1
  12              		.eabi_attribute 34, 1
  13              		.eabi_attribute 18, 4
  14              		.thumb
  15              		.syntax unified
  16              		.file	"led_task.c"
  17              		.text
  18              	.Ltext0:
  19              		.cfi_sections	.debug_frame
  20              		.section	.text.AFE1_hdr,"ax",%progbits
  21              		.align	2
  22              		.thumb
  23              		.thumb_func
  24              		.type	AFE1_hdr, %function
  25              	AFE1_hdr:
  26              	.LFB694:
  27              		.file 1 "led_task.c"
   1:led_task.c    **** /******************************************************************************
   2:led_task.c    **** * File Name: led_task.c
   3:led_task.c    **** *
   4:led_task.c    **** * Version: 1.00
   5:led_task.c    **** *
   6:led_task.c    **** ******************************************************************************/
   7:led_task.c    **** 
   8:led_task.c    **** /* Header file includes */
   9:led_task.c    **** #include "led_task.h"
  10:led_task.c    **** #include "FreeRTOS.h"
  11:led_task.c    **** #include "task.h"
  12:led_task.c    **** #include "queue.h"
  13:led_task.c    **** #include "semphr.h"
  14:led_task.c    **** #include "project.h"
  15:led_task.c    **** #include <stdio.h>
  16:led_task.c    **** 
  17:led_task.c    **** // タイミングデータ定義
  18:led_task.c    **** #define AFE4404_TIMING_PAIRS			\
  19:led_task.c    **** 	{ AFE440X_PRPCOUNT,	    39999	},	\
  20:led_task.c    **** 	{ AFE440X_LED2LEDSTC,	0	    },	\
  21:led_task.c    **** 	{ AFE440X_LED2LEDENDC,	398	    },	\
  22:led_task.c    **** 	{ AFE440X_LED2STC,  	80	    },	\
  23:led_task.c    **** 	{ AFE440X_LED2ENDC,	    398	    },	\
  24:led_task.c    **** 	{ AFE440X_ADCRSTSTCT0,	5600	},	\
  25:led_task.c    **** 	{ AFE440X_ADCRSTENDCT0,	5606	},	\
  26:led_task.c    **** 	{ AFE440X_LED2CONVST,	5607	},	\
  27:led_task.c    **** 	{ AFE440X_LED2CONVEND,	6066	},	\
  28:led_task.c    **** 	{ AFE4404_LED3LEDSTC,	0/*400*/},	\
  29:led_task.c    **** 	{ AFE4404_LED3LEDENDC,	0/*798*/},	\
  30:led_task.c    **** 	{ AFE440X_ALED2STC,	    480	    },	\
ARM GAS  C:\Users\yomat\AppData\Local\Temp\cc0omv11.s 			page 2


  31:led_task.c    **** 	{ AFE440X_ALED2ENDC,	798	    },	\
  32:led_task.c    **** 	{ AFE440X_ADCRSTSTCT1,	6068	},	\
  33:led_task.c    **** 	{ AFE440X_ADCRSTENDCT1,	6074	},	\
  34:led_task.c    **** 	{ AFE440X_ALED2CONVST,	6075	},	\
  35:led_task.c    **** 	{ AFE440X_ALED2CONVEND,	6534	},	\
  36:led_task.c    **** 	{ AFE440X_LED1LEDSTC,	800	    },	\
  37:led_task.c    **** 	{ AFE440X_LED1LEDENDC,	1198	},	\
  38:led_task.c    **** 	{ AFE440X_LED1STC,	    880	    },	\
  39:led_task.c    **** 	{ AFE440X_LED1ENDC,	    1198	},	\
  40:led_task.c    **** 	{ AFE440X_ADCRSTSTCT2,	6536	},	\
  41:led_task.c    **** 	{ AFE440X_ADCRSTENDCT2,	6542	},	\
  42:led_task.c    **** 	{ AFE440X_LED1CONVST,	6543	},	\
  43:led_task.c    **** 	{ AFE440X_LED1CONVEND,	7003	},	\
  44:led_task.c    **** 	{ AFE440X_ALED1STC,	    1280	},	\
  45:led_task.c    **** 	{ AFE440X_ALED1ENDC,	1598	},	\
  46:led_task.c    **** 	{ AFE440X_ADCRSTSTCT3,	7005	},	\
  47:led_task.c    **** 	{ AFE440X_ADCRSTENDCT3,	7011	},	\
  48:led_task.c    **** 	{ AFE440X_ALED1CONVST,	7012	},	\
  49:led_task.c    **** 	{ AFE440X_ALED1CONVEND,	7471	},	\
  50:led_task.c    **** 	{ AFE440X_PDNCYCLESTC,	7671	},	\
  51:led_task.c    **** 	{ AFE440X_PDNCYCLEENDC,	39199	}
  52:led_task.c    **** // AFE初期化レジスタ設定値
  53:led_task.c    **** static const struct reg_sequence afe_init[] = {
  54:led_task.c    **** 	AFE4404_TIMING_PAIRS,
  55:led_task.c    **** 	{ AFE440X_CONTROL1,     AFE440X_CONTROL1_TIMEREN    },
  56:led_task.c    **** 	{ AFE4404_TIA_GAIN_SEP, AFE440X_TIAGAIN_ENSEPGAIN(TIA_G2)   },
  57:led_task.c    **** 	{ AFE4404_TIA_GAIN,     AFE440X_TIAGAIN_ENGAIN(TIA_G1)      },
  58:led_task.c    **** 	{ AFE4404_ILED_CURRENT, AFE440X_ILED_CURRENT(I_LED1,I_LED2,I_LED3)  },
  59:led_task.c    **** 	{ AFE440X_CONTROL2,     AFE440X_CONTROL2_OSC_ENABLE	},
  60:led_task.c    **** 	{ AFE440X_ALARM,        AFE440X_ENABLE_CLKOUT       },
  61:led_task.c    **** 	{ AFE440X_CONTROL3,     0                           },
  62:led_task.c    **** 	{ AFE4404_PROG_TG_STC,  0                           },
  63:led_task.c    **** 	{ AFE4404_PROG_TG_ENDC, 0                           },
  64:led_task.c    **** 	{ AFE4404_CLKDIV_PRF,   AFE440X_CLKDIV_PRF          },
  65:led_task.c    **** 	{ AFE4404_OFFDAC,       0                           },
  66:led_task.c    ****     { AFE4404_DEC,          0                           },
  67:led_task.c    **** };
  68:led_task.c    **** 
  69:led_task.c    **** // AFEデータ
  70:led_task.c    **** static struct AfeData afe_data[AFE_ID_NUM] = {
  71:led_task.c    ****     { false, false,
  72:led_task.c    ****       {	{ AFE440X_LED2VAL,       0 },
  73:led_task.c    ****         { AFE440X_LED2_ALED2VAL, 0 },
  74:led_task.c    ****     	{ AFE440X_LED1VAL,       0 },
  75:led_task.c    ****         { AFE440X_LED1_ALED1VAL, 0 } } },
  76:led_task.c    ****     { false, false,
  77:led_task.c    ****       {	{ AFE440X_LED2VAL,       0 },
  78:led_task.c    ****         { AFE440X_LED2_ALED2VAL, 0 },
  79:led_task.c    ****     	{ AFE440X_LED1VAL,       0 },
  80:led_task.c    ****         { AFE440X_LED1_ALED1VAL, 0 } } }
  81:led_task.c    **** };
  82:led_task.c    **** #define AFE_RDY(a) afe_data[(a)].rdy
  83:led_task.c    **** 
  84:led_task.c    **** // AFE算出値
  85:led_task.c    **** static struct CalValue afe_calval[AFE_ID_NUM];
  86:led_task.c    **** uint8_t SpO2 = 15;
  87:led_task.c    **** 
ARM GAS  C:\Users\yomat\AppData\Local\Temp\cc0omv11.s 			page 3


  88:led_task.c    **** AFE_ID_E AFE_id = AFE_ID;
  89:led_task.c    **** AFE_ID_E AFE_st = AFE_ID;
  90:led_task.c    **** 
  91:led_task.c    **** // AFE0割り込みハンドラ
  92:led_task.c    **** static void AFE0_hdr()
  93:led_task.c    **** {
  94:led_task.c    ****     afe4404ContiRead(I2C_1_HW, (REG_SEQENCE_T *)&afe_data[AFE0_ID].data,
  95:led_task.c    ****                      sizeof(afe_data[AFE0_ID].data)/sizeof(REG_SEQENCE_T));
  96:led_task.c    ****     AFE_RDY(AFE0_ID) = true;
  97:led_task.c    **** }
  98:led_task.c    **** 
  99:led_task.c    **** // AFE1割り込みハンドラ
 100:led_task.c    **** static void AFE1_hdr()
 101:led_task.c    **** {
  28              		.loc 1 101 0
  29              		.cfi_startproc
  30              		@ args = 0, pretend = 0, frame = 0
  31              		@ frame_needed = 0, uses_anonymous_args = 0
  32 0000 10B5     		push	{r4, lr}
  33              		.cfi_def_cfa_offset 8
  34              		.cfi_offset 4, -8
  35              		.cfi_offset 14, -4
 102:led_task.c    ****     afe4404ContiRead(I2C_2_HW, (REG_SEQENCE_T *)&afe_data[AFE1_ID].data,
  36              		.loc 1 102 0
  37 0002 054C     		ldr	r4, .L3
  38 0004 0422     		movs	r2, #4
  39 0006 04F12801 		add	r1, r4, #40
  40 000a 0448     		ldr	r0, .L3+4
  41 000c FFF7FEFF 		bl	afe4404ContiRead
  42              	.LVL0:
 103:led_task.c    ****                      sizeof(afe_data[AFE1_ID].data)/sizeof(REG_SEQENCE_T));
 104:led_task.c    ****     AFE_RDY(AFE1_ID) = true;
  43              		.loc 1 104 0
  44 0010 0123     		movs	r3, #1
  45 0012 84F82530 		strb	r3, [r4, #37]
  46 0016 10BD     		pop	{r4, pc}
  47              	.L4:
  48              		.align	2
  49              	.L3:
  50 0018 00000000 		.word	.LANCHOR0
  51 001c 00006340 		.word	1080229888
  52              		.cfi_endproc
  53              	.LFE694:
  54              		.size	AFE1_hdr, .-AFE1_hdr
  55              		.section	.text.AFE0_hdr,"ax",%progbits
  56              		.align	2
  57              		.thumb
  58              		.thumb_func
  59              		.type	AFE0_hdr, %function
  60              	AFE0_hdr:
  61              	.LFB693:
  93:led_task.c    ****     afe4404ContiRead(I2C_1_HW, (REG_SEQENCE_T *)&afe_data[AFE0_ID].data,
  62              		.loc 1 93 0
  63              		.cfi_startproc
  64              		@ args = 0, pretend = 0, frame = 0
  65              		@ frame_needed = 0, uses_anonymous_args = 0
  66 0000 10B5     		push	{r4, lr}
ARM GAS  C:\Users\yomat\AppData\Local\Temp\cc0omv11.s 			page 4


  67              		.cfi_def_cfa_offset 8
  68              		.cfi_offset 4, -8
  69              		.cfi_offset 14, -4
  94:led_task.c    ****                      sizeof(afe_data[AFE0_ID].data)/sizeof(REG_SEQENCE_T));
  70              		.loc 1 94 0
  71 0002 044C     		ldr	r4, .L7
  72 0004 0422     		movs	r2, #4
  73 0006 A118     		adds	r1, r4, r2
  74 0008 0348     		ldr	r0, .L7+4
  75 000a FFF7FEFF 		bl	afe4404ContiRead
  76              	.LVL1:
  96:led_task.c    **** }
  77              		.loc 1 96 0
  78 000e 0123     		movs	r3, #1
  79 0010 6370     		strb	r3, [r4, #1]
  80 0012 10BD     		pop	{r4, pc}
  81              	.L8:
  82              		.align	2
  83              	.L7:
  84 0014 00000000 		.word	.LANCHOR0
  85 0018 00006240 		.word	1080164352
  86              		.cfi_endproc
  87              	.LFE693:
  88              		.size	AFE0_hdr, .-AFE0_hdr
  89              		.global	__aeabi_ui2d
  90              		.global	__aeabi_ddiv
  91              		.global	__aeabi_dcmpgt
  92              		.global	__aeabi_dcmplt
  93              		.global	__aeabi_dsub
  94              		.global	__aeabi_dadd
  95              		.global	__aeabi_dmul
  96              		.global	__aeabi_d2uiz
  97              		.section	.text.AFE_samp,"ax",%progbits
  98              		.align	2
  99              		.thumb
 100              		.thumb_func
 101              		.type	AFE_samp, %function
 102              	AFE_samp:
 103              	.LFB698:
 105:led_task.c    **** }
 106:led_task.c    **** 
 107:led_task.c    **** void AFE_act(AFE_ID_E afe_id)
 108:led_task.c    **** {
 109:led_task.c    ****     uint32_t pwrOn = AFE440X_CONTROL2_OSC_ENABLE;
 110:led_task.c    ****     uint32_t pwrDwn = AFE440X_CONTROL2_OSC_ENABLE + AFE440X_CONTROL2_PDN_AFE;
 111:led_task.c    **** 
 112:led_task.c    ****     // AFE0動作
 113:led_task.c    ****     if (afe_id == AFE0_ID) {
 114:led_task.c    ****         NVIC_DisableIRQ(ISR_AFE1_cfg.intrSrc);  // AFE1 停止
 115:led_task.c    ****         afe4404Write(I2C_2_HW, AFE440X_CONTROL2, (uint8_t*)&pwrDwn, REG_DATA_LEN);
 116:led_task.c    ****         NVIC_EnableIRQ(ISR_AFE0_cfg.intrSrc);   // AFE0 許可
 117:led_task.c    ****         afe4404Write(I2C_1_HW, AFE440X_CONTROL2, (uint8_t*)&pwrOn, REG_DATA_LEN);
 118:led_task.c    ****     }
 119:led_task.c    ****     // AFE1動作
 120:led_task.c    ****     else if (afe_id == AFE1_ID) {
 121:led_task.c    ****         NVIC_DisableIRQ(ISR_AFE0_cfg.intrSrc);  // AFE0 停止
 122:led_task.c    ****         afe4404Write(I2C_1_HW, AFE440X_CONTROL2, (uint8_t*)&pwrDwn, REG_DATA_LEN);
ARM GAS  C:\Users\yomat\AppData\Local\Temp\cc0omv11.s 			page 5


 123:led_task.c    ****         NVIC_EnableIRQ(ISR_AFE1_cfg.intrSrc);   // AFE1 許可
 124:led_task.c    ****         afe4404Write(I2C_2_HW, AFE440X_CONTROL2, (uint8_t*)&pwrOn, REG_DATA_LEN);
 125:led_task.c    ****     }
 126:led_task.c    ****     // 両AFE停止
 127:led_task.c    ****     else {
 128:led_task.c    ****         NVIC_DisableIRQ(ISR_AFE0_cfg.intrSrc);  // AFE0 停止
 129:led_task.c    ****         afe4404Write(I2C_1_HW, AFE440X_CONTROL2, (uint8_t*)&pwrDwn, REG_DATA_LEN);
 130:led_task.c    ****         NVIC_DisableIRQ(ISR_AFE1_cfg.intrSrc);  // AFE1 停止
 131:led_task.c    ****         afe4404Write(I2C_2_HW, AFE440X_CONTROL2, (uint8_t*)&pwrDwn, REG_DATA_LEN);
 132:led_task.c    ****     }
 133:led_task.c    ****     AFE_st = afe_id;    // AFE制御状態
 134:led_task.c    ****     
 135:led_task.c    **** }
 136:led_task.c    **** 
 137:led_task.c    **** // サンプリングカウンタをクリア
 138:led_task.c    **** void AFE_clr(AFE_ID_E afe_id)
 139:led_task.c    **** {
 140:led_task.c    ****     memset(&afe_calval[afe_id], 0, sizeof(struct CalValue));
 141:led_task.c    ****     afe_calval[afe_id].skip_cnt = SMP_SKIP;
 142:led_task.c    **** }
 143:led_task.c    **** 
 144:led_task.c    **** void AFE_init(AFE_ID_E afe_id)
 145:led_task.c    **** {
 146:led_task.c    ****     uint32_t data = 0;
 147:led_task.c    ****     
 148:led_task.c    ****     printf("Start AFE Control\r\n");
 149:led_task.c    ****     printf("Operation cycle: %3.1f min.\r\n", (double)PWM_CYC_config.period0/60000u);
 150:led_task.c    ****     printf("Operating  time: %u sec.\r\n", (unsigned)PWM_TIM_config.period0/1000u);
 151:led_task.c    ****     printf("  Selection AFE: %s\r\n", afe_id==AFE0_ID ? "AFE0" : "AFE1");
 152:led_task.c    ****     printf("  LED1 TIG gain: %u korm\r\n", tia_reg[TIA2_ID]);
 153:led_task.c    ****     printf("  LED1  current: %3.1f mA\r\n", I_LED2 * CURR_STEP);
 154:led_task.c    ****     printf("  LED2 TIG gain: %u korm\r\n", tia_reg[TIA1_ID]);
 155:led_task.c    ****     printf("  LED2  current: %3.1f mA\r\n\r\n", I_LED1 * CURR_STEP);
 156:led_task.c    ****     printf("AFE,,LED2amb,LED1amb,,LED2,,,,,LED1,,,,,R\r\n");
 157:led_task.c    ****     printf(",,,,,AC,MIN,MAX,DC,,AC,MIN,MAX,DC,,\r\n");
 158:led_task.c    ****     AFE_clr(afe_id);   // サンプリングカウンタをクリア
 159:led_task.c    **** 
 160:led_task.c    ****     if (afe_id == AFE0_ID) {
 161:led_task.c    ****         afe4404Write(I2C_1_HW, AFE440X_CONTROL0, (uint8_t*)&data, REG_DATA_LEN);
 162:led_task.c    ****         afe4404ContiWrite(I2C_1_HW, (REG_SEQENCE_T *)&afe_init, sizeof(afe_init)/sizeof(REG_SEQENCE
 163:led_task.c    ****         Cy_SysInt_Init(&ISR_AFE0_cfg, AFE0_hdr);
 164:led_task.c    ****     }
 165:led_task.c    ****     else {
 166:led_task.c    ****         afe4404Write(I2C_2_HW, AFE440X_CONTROL0, (uint8_t*)&data, REG_DATA_LEN);
 167:led_task.c    ****         afe4404ContiWrite(I2C_2_HW, (REG_SEQENCE_T *)&afe_init, sizeof(afe_init)/sizeof(REG_SEQENCE
 168:led_task.c    ****         Cy_SysInt_Init(&ISR_AFE1_cfg, AFE1_hdr);
 169:led_task.c    ****     }
 170:led_task.c    ****     
 171:led_task.c    ****     AFE_act(AFE_id);    // 動作AFE 
 172:led_task.c    ****     // LED(RED)点灯
 173:led_task.c    ****     Cy_GPIO_Write(LED_GREEN_PORT, LED_GREEN_NUM, 0);
 174:led_task.c    **** }
 175:led_task.c    **** 
 176:led_task.c    **** // AFEデータサンプリング
 177:led_task.c    **** static bool AFE_samp(AFE_ID_E afe_id)
 178:led_task.c    **** {
 104              		.loc 1 178 0
ARM GAS  C:\Users\yomat\AppData\Local\Temp\cc0omv11.s 			page 6


 105              		.cfi_startproc
 106              		@ args = 0, pretend = 0, frame = 24
 107              		@ frame_needed = 0, uses_anonymous_args = 0
 108              	.LVL2:
 109 0000 2DE9F04F 		push	{r4, r5, r6, r7, r8, r9, r10, fp, lr}
 110              		.cfi_def_cfa_offset 36
 111              		.cfi_offset 4, -36
 112              		.cfi_offset 5, -32
 113              		.cfi_offset 6, -28
 114              		.cfi_offset 7, -24
 115              		.cfi_offset 8, -20
 116              		.cfi_offset 9, -16
 117              		.cfi_offset 10, -12
 118              		.cfi_offset 11, -8
 119              		.cfi_offset 14, -4
 120 0004 2DED088B 		vpush.64	{d8, d9, d10, d11}
 121              		.cfi_def_cfa_offset 68
 122              		.cfi_offset 80, -68
 123              		.cfi_offset 81, -64
 124              		.cfi_offset 82, -60
 125              		.cfi_offset 83, -56
 126              		.cfi_offset 84, -52
 127              		.cfi_offset 85, -48
 128              		.cfi_offset 86, -44
 129              		.cfi_offset 87, -40
 130 0008 8DB0     		sub	sp, sp, #52
 131              		.cfi_def_cfa_offset 120
 132 000a 0446     		mov	r4, r0
 133              	.LVL3:
 179:led_task.c    ****     bool retval = false;
 180:led_task.c    ****     struct reg_sequence *data = afe_data[afe_id].data;  // AFEデータ
 134              		.loc 1 180 0
 135 000c 00EBC006 		add	r6, r0, r0, lsl #3
 136 0010 AD4B     		ldr	r3, .L30+24
 137 0012 03EB8606 		add	r6, r3, r6, lsl #2
 138              	.LVL4:
 181:led_task.c    ****     struct CalValue *cval = &afe_calval[afe_id];        // AFE1算出値
 182:led_task.c    **** 
 183:led_task.c    ****     // センサデータ読込み
 184:led_task.c    ****     cval->led2 = (double)(data+1)->val/10000;
 139              		.loc 1 184 0
 140 0016 D6F81080 		ldr	r8, [r6, #16]
 141 001a 4046     		mov	r0, r8
 142              	.LVL5:
 143 001c FFF7FEFF 		bl	__aeabi_ui2d
 144              	.LVL6:
 145 0020 A3A3     		adr	r3, .L30
 146 0022 D3E90023 		ldrd	r2, [r3]
 147 0026 FFF7FEFF 		bl	__aeabi_ddiv
 148              	.LVL7:
 149 002a A84D     		ldr	r5, .L30+28
 150 002c 05EBC415 		add	r5, r5, r4, lsl #7
 151 0030 C5E90001 		strd	r0, [r5]
 185:led_task.c    ****     cval->aled2= (double)(data+1)->val/10000;
 152              		.loc 1 185 0
 153 0034 4046     		mov	r0, r8
 154 0036 FFF7FEFF 		bl	__aeabi_ui2d
ARM GAS  C:\Users\yomat\AppData\Local\Temp\cc0omv11.s 			page 7


 155              	.LVL8:
 156 003a 9DA3     		adr	r3, .L30
 157 003c D3E90023 		ldrd	r2, [r3]
 158 0040 FFF7FEFF 		bl	__aeabi_ddiv
 159              	.LVL9:
 160 0044 8246     		mov	r10, r0
 161 0046 8B46     		mov	fp, r1
 162 0048 C5E902AB 		strd	r10, [r5, #8]
 186:led_task.c    ****     cval->led1 = (double)(data+2)->val/10000;
 163              		.loc 1 186 0
 164 004c B069     		ldr	r0, [r6, #24]
 165 004e FFF7FEFF 		bl	__aeabi_ui2d
 166              	.LVL10:
 167 0052 97A3     		adr	r3, .L30
 168 0054 D3E90023 		ldrd	r2, [r3]
 169 0058 FFF7FEFF 		bl	__aeabi_ddiv
 170              	.LVL11:
 171 005c C5E90401 		strd	r0, [r5, #16]
 187:led_task.c    ****     cval->aled1= (double)(data+3)->val/10000;
 172              		.loc 1 187 0
 173 0060 306A     		ldr	r0, [r6, #32]
 174 0062 FFF7FEFF 		bl	__aeabi_ui2d
 175              	.LVL12:
 176 0066 92A3     		adr	r3, .L30
 177 0068 D3E90023 		ldrd	r2, [r3]
 178 006c FFF7FEFF 		bl	__aeabi_ddiv
 179              	.LVL13:
 180 0070 8046     		mov	r8, r0
 181 0072 8946     		mov	r9, r1
 182 0074 C5E90689 		strd	r8, [r5, #24]
 188:led_task.c    ****     //printf("led/aled,%f,%f,%f,%f\r\n", cval->led2, cval->aled2, cval->led1, cval->aled1);
 189:led_task.c    **** 
 190:led_task.c    ****     AFE_RDY(afe_id) = false;
 183              		.loc 1 190 0
 184 0078 0023     		movs	r3, #0
 185 007a 7370     		strb	r3, [r6, #1]
 191:led_task.c    ****     // サンプリング1回目
 192:led_task.c    ****     if (cval->sample_cnt == 0) {
 186              		.loc 1 192 0
 187 007c 2B8C     		ldrh	r3, [r5, #32]
 188 007e 43B9     		cbnz	r3, .L10
 193:led_task.c    ****         // LED2/LED1の最小値,最大値を初期化
 194:led_task.c    ****         cval->led2_min = cval->led2_max = cval->aled2;
 189              		.loc 1 194 0
 190 0080 C5E90CAB 		strd	r10, [r5, #48]
 191 0084 C5E90AAB 		strd	r10, [r5, #40]
 195:led_task.c    ****         cval->led1_min = cval->led1_max = cval->aled1;
 192              		.loc 1 195 0
 193 0088 C5E91089 		strd	r8, [r5, #64]
 194 008c C5E90E89 		strd	r8, [r5, #56]
 195 0090 3DE0     		b	.L11
 196              	.L10:
 196:led_task.c    ****         //printf("min/max,%f,%f,%f,%f\r\n", cval->led2_min, cval->led2_max, cval->led1_min, cval->l
 197:led_task.c    ****     }
 198:led_task.c    ****     // サンプリング2回目以降
 199:led_task.c    ****     else {
 200:led_task.c    ****         // LED2/LED1の最小値,最大値を更新
ARM GAS  C:\Users\yomat\AppData\Local\Temp\cc0omv11.s 			page 8


 201:led_task.c    ****         if (cval->led2_max < cval->aled2)
 197              		.loc 1 201 0
 198 0092 8E4B     		ldr	r3, .L30+28
 199 0094 03EBC413 		add	r3, r3, r4, lsl #7
 200 0098 D3E90C23 		ldrd	r2, [r3, #48]
 201 009c 5046     		mov	r0, r10
 202 009e 5946     		mov	r1, fp
 203 00a0 FFF7FEFF 		bl	__aeabi_dcmpgt
 204              	.LVL14:
 205 00a4 28B1     		cbz	r0, .L27
 202:led_task.c    ****             cval->led2_max = cval->aled2;
 206              		.loc 1 202 0
 207 00a6 894B     		ldr	r3, .L30+28
 208 00a8 03EBC413 		add	r3, r3, r4, lsl #7
 209 00ac C3E90CAB 		strd	r10, [r3, #48]
 210 00b0 0EE0     		b	.L14
 211              	.L27:
 203:led_task.c    ****         else if(cval->led2_min > cval->aled2)
 212              		.loc 1 203 0
 213 00b2 864B     		ldr	r3, .L30+28
 214 00b4 03EBC413 		add	r3, r3, r4, lsl #7
 215 00b8 D3E90A23 		ldrd	r2, [r3, #40]
 216 00bc 5046     		mov	r0, r10
 217 00be 5946     		mov	r1, fp
 218 00c0 FFF7FEFF 		bl	__aeabi_dcmplt
 219              	.LVL15:
 220 00c4 20B1     		cbz	r0, .L14
 204:led_task.c    ****             cval->led2_min = cval->aled2;
 221              		.loc 1 204 0
 222 00c6 814B     		ldr	r3, .L30+28
 223 00c8 03EBC413 		add	r3, r3, r4, lsl #7
 224 00cc C3E90AAB 		strd	r10, [r3, #40]
 225              	.L14:
 205:led_task.c    ****         if (cval->led1_max < cval->aled1)
 226              		.loc 1 205 0
 227 00d0 7E4B     		ldr	r3, .L30+28
 228 00d2 03EBC413 		add	r3, r3, r4, lsl #7
 229 00d6 D3E91023 		ldrd	r2, [r3, #64]
 230 00da 4046     		mov	r0, r8
 231 00dc 4946     		mov	r1, r9
 232 00de FFF7FEFF 		bl	__aeabi_dcmpgt
 233              	.LVL16:
 234 00e2 28B1     		cbz	r0, .L28
 206:led_task.c    ****             cval->led1_max = cval->aled1;
 235              		.loc 1 206 0
 236 00e4 794B     		ldr	r3, .L30+28
 237 00e6 03EBC413 		add	r3, r3, r4, lsl #7
 238 00ea C3E91089 		strd	r8, [r3, #64]
 239 00ee 0EE0     		b	.L11
 240              	.L28:
 207:led_task.c    ****         else if(cval->led1_min > cval->aled1)
 241              		.loc 1 207 0
 242 00f0 764B     		ldr	r3, .L30+28
 243 00f2 03EBC413 		add	r3, r3, r4, lsl #7
 244 00f6 D3E90E23 		ldrd	r2, [r3, #56]
 245 00fa 4046     		mov	r0, r8
 246 00fc 4946     		mov	r1, r9
ARM GAS  C:\Users\yomat\AppData\Local\Temp\cc0omv11.s 			page 9


 247 00fe FFF7FEFF 		bl	__aeabi_dcmplt
 248              	.LVL17:
 249 0102 20B1     		cbz	r0, .L11
 208:led_task.c    ****             cval->led1_min = cval->aled1;
 250              		.loc 1 208 0
 251 0104 714B     		ldr	r3, .L30+28
 252 0106 03EBC413 		add	r3, r3, r4, lsl #7
 253 010a C3E90E89 		strd	r8, [r3, #56]
 254              	.L11:
 209:led_task.c    ****         //printf("min/max,%f,%f,%f,%f\r\n", cval->led2_min, cval->led2_max, cval->led1_min, cval->l
 210:led_task.c    ****     }
 211:led_task.c    ****     // 指定サンプリング回カウントしない
 212:led_task.c    ****     if (cval->skip_cnt <= 0)
 255              		.loc 1 212 0
 256 010e 6F4B     		ldr	r3, .L30+28
 257 0110 03EBC413 		add	r3, r3, r4, lsl #7
 258 0114 93F82230 		ldrb	r3, [r3, #34]	@ zero_extendqisi2
 259 0118 33B9     		cbnz	r3, .L19
 213:led_task.c    ****         cval->sample_cnt++;
 260              		.loc 1 213 0
 261 011a 6C4B     		ldr	r3, .L30+28
 262 011c 03EBC413 		add	r3, r3, r4, lsl #7
 263 0120 1A8C     		ldrh	r2, [r3, #32]
 264 0122 0132     		adds	r2, r2, #1
 265 0124 1A84     		strh	r2, [r3, #32]	@ movhi
 266 0126 05E0     		b	.L20
 267              	.L19:
 214:led_task.c    ****     else cval->skip_cnt--;
 268              		.loc 1 214 0
 269 0128 684A     		ldr	r2, .L30+28
 270 012a 02EBC412 		add	r2, r2, r4, lsl #7
 271 012e 013B     		subs	r3, r3, #1
 272 0130 82F82230 		strb	r3, [r2, #34]
 273              	.L20:
 215:led_task.c    ****     
 216:led_task.c    ****     // サンプリング最終回
 217:led_task.c    ****     if (cval->sample_cnt >= SMP_NUM) {
 274              		.loc 1 217 0
 275 0134 654B     		ldr	r3, .L30+28
 276 0136 03EBC413 		add	r3, r3, r4, lsl #7
 277 013a 1B8C     		ldrh	r3, [r3, #32]
 278 013c 632B     		cmp	r3, #99
 279 013e 40F2B180 		bls	.L22
 280              	.LBB63:
 218:led_task.c    ****         printf("%d,,", afe_id);
 281              		.loc 1 218 0
 282 0142 2146     		mov	r1, r4
 283 0144 6248     		ldr	r0, .L30+32
 284 0146 FFF7FEFF 		bl	printf
 285              	.LVL18:
 219:led_task.c    ****         printf("%f,%f,,", cval->aled2, cval->aled1);
 286              		.loc 1 219 0
 287 014a 604B     		ldr	r3, .L30+28
 288 014c 03EBC414 		add	r4, r3, r4, lsl #7
 289              	.LVL19:
 290 0150 D4E90623 		ldrd	r2, [r4, #24]
 291 0154 CDE90023 		strd	r2, [sp]
ARM GAS  C:\Users\yomat\AppData\Local\Temp\cc0omv11.s 			page 10


 292 0158 D4E90223 		ldrd	r2, [r4, #8]
 293 015c 5D48     		ldr	r0, .L30+36
 294 015e FFF7FEFF 		bl	printf
 295              	.LVL20:
 220:led_task.c    ****         // LED2/LED1のAC値,DC値
 221:led_task.c    ****         cval->led2_ac = cval->led2_max - cval->led2_min;
 296              		.loc 1 221 0
 297 0162 94ED0C8B 		vldr.64	d8, [r4, #48]
 298 0166 D4E90AAB 		ldrd	r10, [r4, #40]
 299 016a 5246     		mov	r2, r10
 300 016c 5B46     		mov	r3, fp
 301 016e 51EC180B 		vmov	r0, r1, d8
 302 0172 FFF7FEFF 		bl	__aeabi_dsub
 303              	.LVL21:
 304 0176 0646     		mov	r6, r0
 305              	.LVL22:
 306 0178 0F46     		mov	r7, r1
 307 017a C4E91867 		strd	r6, [r4, #96]
 222:led_task.c    ****         cval->led2_dc = (cval->led2_max + cval->led2_min) / 2.0;
 308              		.loc 1 222 0
 309 017e 5246     		mov	r2, r10
 310 0180 5B46     		mov	r3, fp
 311 0182 51EC180B 		vmov	r0, r1, d8
 312 0186 FFF7FEFF 		bl	__aeabi_dadd
 313              	.LVL23:
 314 018a 0022     		movs	r2, #0
 315 018c 524B     		ldr	r3, .L30+40
 316 018e FFF7FEFF 		bl	__aeabi_dmul
 317              	.LVL24:
 318 0192 41EC190B 		vmov	d9, r0, r1
 319 0196 C4E91601 		strd	r0, [r4, #88]
 223:led_task.c    ****         cval->led1_ac = cval->led1_max - cval->led1_min;
 320              		.loc 1 223 0
 321 019a D4E91089 		ldrd	r8, [r4, #64]
 322 019e 94ED0EBB 		vldr.64	d11, [r4, #56]
 323 01a2 53EC1B2B 		vmov	r2, r3, d11
 324 01a6 4046     		mov	r0, r8
 325 01a8 4946     		mov	r1, r9
 326 01aa FFF7FEFF 		bl	__aeabi_dsub
 327              	.LVL25:
 328 01ae 41EC1A0B 		vmov	d10, r0, r1
 329 01b2 C4E91C01 		strd	r0, [r4, #112]
 224:led_task.c    ****         cval->led1_dc = (cval->led1_max + cval->led1_min) / 2.0;
 330              		.loc 1 224 0
 331 01b6 53EC1B2B 		vmov	r2, r3, d11
 332 01ba 4046     		mov	r0, r8
 333 01bc 4946     		mov	r1, r9
 334 01be FFF7FEFF 		bl	__aeabi_dadd
 335              	.LVL26:
 336 01c2 0022     		movs	r2, #0
 337 01c4 444B     		ldr	r3, .L30+40
 338 01c6 FFF7FEFF 		bl	__aeabi_dmul
 339              	.LVL27:
 340 01ca 8046     		mov	r8, r0
 341 01cc 8946     		mov	r9, r1
 342 01ce C4E91A89 		strd	r8, [r4, #104]
 225:led_task.c    ****         // R値を算出
ARM GAS  C:\Users\yomat\AppData\Local\Temp\cc0omv11.s 			page 11


 226:led_task.c    ****         cval->R = (cval->led2_ac / cval->led2_dc) / (cval->led1_ac / cval->led1_dc);
 343              		.loc 1 226 0
 344 01d2 53EC192B 		vmov	r2, r3, d9
 345 01d6 3046     		mov	r0, r6
 346 01d8 3946     		mov	r1, r7
 347 01da FFF7FEFF 		bl	__aeabi_ddiv
 348              	.LVL28:
 349 01de CDE90601 		strd	r0, [sp, #24]
 350 01e2 4246     		mov	r2, r8
 351 01e4 4B46     		mov	r3, r9
 352 01e6 51EC1A0B 		vmov	r0, r1, d10
 353 01ea FFF7FEFF 		bl	__aeabi_ddiv
 354              	.LVL29:
 355 01ee 0246     		mov	r2, r0
 356 01f0 0B46     		mov	r3, r1
 357 01f2 DDE90601 		ldrd	r0, [sp, #24]
 358 01f6 FFF7FEFF 		bl	__aeabi_ddiv
 359              	.LVL30:
 360 01fa C4E91E01 		strd	r0, [r4, #120]
 227:led_task.c    ****         printf("%f,%f,%f,%f,,", cval->led2_ac, cval->led2_min, cval->led2_max, cval->led2_dc);
 361              		.loc 1 227 0
 362 01fe 374D     		ldr	r5, .L30+44
 363 0200 8DED049B 		vstr.64	d9, [sp, #16]
 364 0204 8DED028B 		vstr.64	d8, [sp, #8]
 365 0208 CDE900AB 		strd	r10, [sp]
 366 020c 3246     		mov	r2, r6
 367 020e 3B46     		mov	r3, r7
 368 0210 2846     		mov	r0, r5
 369 0212 FFF7FEFF 		bl	printf
 370              	.LVL31:
 228:led_task.c    ****         printf("%f,%f,%f,%f,,", cval->led1_ac, cval->led1_min, cval->led1_max, cval->led1_dc);
 371              		.loc 1 228 0
 372 0216 D4E91A23 		ldrd	r2, [r4, #104]
 373 021a CDE90423 		strd	r2, [sp, #16]
 374 021e D4E91023 		ldrd	r2, [r4, #64]
 375 0222 CDE90223 		strd	r2, [sp, #8]
 376 0226 D4E90E23 		ldrd	r2, [r4, #56]
 377 022a CDE90023 		strd	r2, [sp]
 378 022e D4E91C23 		ldrd	r2, [r4, #112]
 379 0232 2846     		mov	r0, r5
 380 0234 FFF7FEFF 		bl	printf
 381              	.LVL32:
 229:led_task.c    ****         printf("%f\r\n", -3.9*cval->R+100.7);
 382              		.loc 1 229 0
 383 0238 1FA3     		adr	r3, .L30+8
 384 023a D3E90023 		ldrd	r2, [r3]
 385 023e D4E91E01 		ldrd	r0, [r4, #120]
 386 0242 FFF7FEFF 		bl	__aeabi_dmul
 387              	.LVL33:
 388 0246 1EA3     		adr	r3, .L30+16
 389 0248 D3E90023 		ldrd	r2, [r3]
 390 024c FFF7FEFF 		bl	__aeabi_dadd
 391              	.LVL34:
 392 0250 0246     		mov	r2, r0
 393 0252 0B46     		mov	r3, r1
 394 0254 2248     		ldr	r0, .L30+48
 395 0256 FFF7FEFF 		bl	printf
ARM GAS  C:\Users\yomat\AppData\Local\Temp\cc0omv11.s 			page 12


 396              	.LVL35:
 230:led_task.c    ****         // BLE送信
 231:led_task.c    ****         SpO2 = -3.9*cval->R+100.7;
 397              		.loc 1 231 0
 398 025a 17A3     		adr	r3, .L30+8
 399 025c D3E90023 		ldrd	r2, [r3]
 400 0260 D4E91E01 		ldrd	r0, [r4, #120]
 401 0264 FFF7FEFF 		bl	__aeabi_dmul
 402              	.LVL36:
 403 0268 15A3     		adr	r3, .L30+16
 404 026a D3E90023 		ldrd	r2, [r3]
 405 026e FFF7FEFF 		bl	__aeabi_dadd
 406              	.LVL37:
 407 0272 FFF7FEFF 		bl	__aeabi_d2uiz
 408              	.LVL38:
 409 0276 144B     		ldr	r3, .L30+24
 410 0278 03F86C0F 		strb	r0, [r3, #108]!
 232:led_task.c    ****         cy_stc_ble_gatt_handle_value_pair_t  handleValue = {
 411              		.loc 1 232 0
 412 027c 0026     		movs	r6, #0
 413 027e 0A96     		str	r6, [sp, #40]
 414 0280 0B96     		str	r6, [sp, #44]
 415 0282 0993     		str	r3, [sp, #36]
 416 0284 0125     		movs	r5, #1
 417 0286 ADF82850 		strh	r5, [sp, #40]	@ movhi
 418 028a 1223     		movs	r3, #18
 419 028c ADF82C30 		strh	r3, [sp, #44]	@ movhi
 233:led_task.c    ****                      .attrHandle = CY_BLE_SPO2_SPO2DATA_CHAR_HANDLE,
 234:led_task.c    ****                      .value.val = (uint8_t *)&SpO2,
 235:led_task.c    ****                      .value.len = 1,
 236:led_task.c    ****                     };
 237:led_task.c    ****         Cy_BLE_GATTS_WriteAttributeValueLocal(&handleValue); 
 420              		.loc 1 237 0
 421 0290 09A8     		add	r0, sp, #36
 422 0292 FFF7FEFF 		bl	Cy_BLE_GATTS_WriteAttributeValueLocal
 423              	.LVL39:
 238:led_task.c    ****         Cy_BLE_GATTS_SendNotification(&cy_ble_connHandle[0], &handleValue);
 424              		.loc 1 238 0
 425 0296 09A9     		add	r1, sp, #36
 426 0298 1248     		ldr	r0, .L30+52
 427 029a FFF7FEFF 		bl	Cy_BLE_GATTS_SendNotification
 428              	.LVL40:
 239:led_task.c    ****         // 窓を進める
 240:led_task.c    ****         afe_calval[afe_id].sample_cnt = 0;
 429              		.loc 1 240 0
 430 029e 2684     		strh	r6, [r4, #32]	@ movhi
 431              	.LVL41:
 241:led_task.c    ****         retval = true;
 432              		.loc 1 241 0
 433 02a0 2846     		mov	r0, r5
 434              	.LBE63:
 435 02a2 00E0     		b	.L21
 436              	.LVL42:
 437              	.L22:
 179:led_task.c    ****     struct reg_sequence *data = afe_data[afe_id].data;  // AFEデータ
 438              		.loc 1 179 0
 439 02a4 0020     		movs	r0, #0
ARM GAS  C:\Users\yomat\AppData\Local\Temp\cc0omv11.s 			page 13


 440              	.LVL43:
 441              	.L21:
 242:led_task.c    ****     }
 243:led_task.c    ****     else {
 244:led_task.c    **** //        printf("\r\n");
 245:led_task.c    ****     }
 246:led_task.c    ****     return retval;
 247:led_task.c    **** }
 442              		.loc 1 247 0
 443 02a6 0DB0     		add	sp, sp, #52
 444              		.cfi_def_cfa_offset 68
 445              		@ sp needed
 446 02a8 BDEC088B 		vldm	sp!, {d8-d11}
 447              		.cfi_restore 86
 448              		.cfi_restore 87
 449              		.cfi_restore 84
 450              		.cfi_restore 85
 451              		.cfi_restore 82
 452              		.cfi_restore 83
 453              		.cfi_restore 80
 454              		.cfi_restore 81
 455              		.cfi_def_cfa_offset 36
 456 02ac BDE8F08F 		pop	{r4, r5, r6, r7, r8, r9, r10, fp, pc}
 457              	.L31:
 458              		.align	3
 459              	.L30:
 460 02b0 00000000 		.word	0
 461 02b4 0088C340 		.word	1086556160
 462 02b8 33333333 		.word	858993459
 463 02bc 33330FC0 		.word	-1072745677
 464 02c0 CDCCCCCC 		.word	-858993459
 465 02c4 CC2C5940 		.word	1079585996
 466 02c8 00000000 		.word	.LANCHOR0
 467 02cc 00000000 		.word	.LANCHOR1
 468 02d0 00000000 		.word	.LC0
 469 02d4 08000000 		.word	.LC1
 470 02d8 0000E03F 		.word	1071644672
 471 02dc 10000000 		.word	.LC2
 472 02e0 20000000 		.word	.LC3
 473 02e4 00000000 		.word	cy_ble_connHandle
 474              		.cfi_endproc
 475              	.LFE698:
 476              		.size	AFE_samp, .-AFE_samp
 477              		.section	.text.AFE_act,"ax",%progbits
 478              		.align	2
 479              		.global	AFE_act
 480              		.thumb
 481              		.thumb_func
 482              		.type	AFE_act, %function
 483              	AFE_act:
 484              	.LFB695:
 108:led_task.c    ****     uint32_t pwrOn = AFE440X_CONTROL2_OSC_ENABLE;
 485              		.loc 1 108 0
 486              		.cfi_startproc
 487              		@ args = 0, pretend = 0, frame = 8
 488              		@ frame_needed = 0, uses_anonymous_args = 0
 489              	.LVL44:
ARM GAS  C:\Users\yomat\AppData\Local\Temp\cc0omv11.s 			page 14


 490 0000 10B5     		push	{r4, lr}
 491              		.cfi_def_cfa_offset 8
 492              		.cfi_offset 4, -8
 493              		.cfi_offset 14, -4
 494 0002 82B0     		sub	sp, sp, #8
 495              		.cfi_def_cfa_offset 16
 109:led_task.c    ****     uint32_t pwrDwn = AFE440X_CONTROL2_OSC_ENABLE + AFE440X_CONTROL2_PDN_AFE;
 496              		.loc 1 109 0
 497 0004 4FF40073 		mov	r3, #512
 498 0008 0193     		str	r3, [sp, #4]
 110:led_task.c    **** 
 499              		.loc 1 110 0
 500 000a 40F20123 		movw	r3, #513
 501 000e 0093     		str	r3, [sp]
 113:led_task.c    ****         NVIC_DisableIRQ(ISR_AFE1_cfg.intrSrc);  // AFE1 停止
 502              		.loc 1 113 0
 503 0010 0446     		mov	r4, r0
 504 0012 68BB     		cbnz	r0, .L33
 114:led_task.c    ****         afe4404Write(I2C_2_HW, AFE440X_CONTROL2, (uint8_t*)&pwrDwn, REG_DATA_LEN);
 505              		.loc 1 114 0
 506 0014 4A4B     		ldr	r3, .L43
 507 0016 B3F90030 		ldrsh	r3, [r3]
 508              	.LVL45:
 509              	.LBB64:
 510              	.LBB65:
 511              		.file 2 "Generated_Source\\PSoC6\\pdl\\cmsis/include/core_cm4.h"
   1:Generated_Source\PSoC6\pdl\cmsis/include/core_cm4.h **** /**************************************************************************//**
   2:Generated_Source\PSoC6\pdl\cmsis/include/core_cm4.h ****  * @file     core_cm4.h
   3:Generated_Source\PSoC6\pdl\cmsis/include/core_cm4.h ****  * @brief    CMSIS Cortex-M4 Core Peripheral Access Layer Header File
   4:Generated_Source\PSoC6\pdl\cmsis/include/core_cm4.h ****  * @version  V5.0.5
   5:Generated_Source\PSoC6\pdl\cmsis/include/core_cm4.h ****  * @date     08. January 2018
   6:Generated_Source\PSoC6\pdl\cmsis/include/core_cm4.h ****  ******************************************************************************/
   7:Generated_Source\PSoC6\pdl\cmsis/include/core_cm4.h **** /*
   8:Generated_Source\PSoC6\pdl\cmsis/include/core_cm4.h ****  * Copyright (c) 2009-2017 ARM Limited. All rights reserved.
   9:Generated_Source\PSoC6\pdl\cmsis/include/core_cm4.h ****  *
  10:Generated_Source\PSoC6\pdl\cmsis/include/core_cm4.h ****  * SPDX-License-Identifier: Apache-2.0
  11:Generated_Source\PSoC6\pdl\cmsis/include/core_cm4.h ****  *
  12:Generated_Source\PSoC6\pdl\cmsis/include/core_cm4.h ****  * Licensed under the Apache License, Version 2.0 (the License); you may
  13:Generated_Source\PSoC6\pdl\cmsis/include/core_cm4.h ****  * not use this file except in compliance with the License.
  14:Generated_Source\PSoC6\pdl\cmsis/include/core_cm4.h ****  * You may obtain a copy of the License at
  15:Generated_Source\PSoC6\pdl\cmsis/include/core_cm4.h ****  *
  16:Generated_Source\PSoC6\pdl\cmsis/include/core_cm4.h ****  * www.apache.org/licenses/LICENSE-2.0
  17:Generated_Source\PSoC6\pdl\cmsis/include/core_cm4.h ****  *
  18:Generated_Source\PSoC6\pdl\cmsis/include/core_cm4.h ****  * Unless required by applicable law or agreed to in writing, software
  19:Generated_Source\PSoC6\pdl\cmsis/include/core_cm4.h ****  * distributed under the License is distributed on an AS IS BASIS, WITHOUT
  20:Generated_Source\PSoC6\pdl\cmsis/include/core_cm4.h ****  * WARRANTIES OR CONDITIONS OF ANY KIND, either express or implied.
  21:Generated_Source\PSoC6\pdl\cmsis/include/core_cm4.h ****  * See the License for the specific language governing permissions and
  22:Generated_Source\PSoC6\pdl\cmsis/include/core_cm4.h ****  * limitations under the License.
  23:Generated_Source\PSoC6\pdl\cmsis/include/core_cm4.h ****  */
  24:Generated_Source\PSoC6\pdl\cmsis/include/core_cm4.h **** 
  25:Generated_Source\PSoC6\pdl\cmsis/include/core_cm4.h **** #if   defined ( __ICCARM__ )
  26:Generated_Source\PSoC6\pdl\cmsis/include/core_cm4.h ****   #pragma system_include         /* treat file as system include file for MISRA check */
  27:Generated_Source\PSoC6\pdl\cmsis/include/core_cm4.h **** #elif defined (__clang__)
  28:Generated_Source\PSoC6\pdl\cmsis/include/core_cm4.h ****   #pragma clang system_header   /* treat file as system include file */
  29:Generated_Source\PSoC6\pdl\cmsis/include/core_cm4.h **** #endif
  30:Generated_Source\PSoC6\pdl\cmsis/include/core_cm4.h **** 
  31:Generated_Source\PSoC6\pdl\cmsis/include/core_cm4.h **** #ifndef __CORE_CM4_H_GENERIC
ARM GAS  C:\Users\yomat\AppData\Local\Temp\cc0omv11.s 			page 15


  32:Generated_Source\PSoC6\pdl\cmsis/include/core_cm4.h **** #define __CORE_CM4_H_GENERIC
  33:Generated_Source\PSoC6\pdl\cmsis/include/core_cm4.h **** 
  34:Generated_Source\PSoC6\pdl\cmsis/include/core_cm4.h **** #include <stdint.h>
  35:Generated_Source\PSoC6\pdl\cmsis/include/core_cm4.h **** 
  36:Generated_Source\PSoC6\pdl\cmsis/include/core_cm4.h **** #ifdef __cplusplus
  37:Generated_Source\PSoC6\pdl\cmsis/include/core_cm4.h ****  extern "C" {
  38:Generated_Source\PSoC6\pdl\cmsis/include/core_cm4.h **** #endif
  39:Generated_Source\PSoC6\pdl\cmsis/include/core_cm4.h **** 
  40:Generated_Source\PSoC6\pdl\cmsis/include/core_cm4.h **** /**
  41:Generated_Source\PSoC6\pdl\cmsis/include/core_cm4.h ****   \page CMSIS_MISRA_Exceptions  MISRA-C:2004 Compliance Exceptions
  42:Generated_Source\PSoC6\pdl\cmsis/include/core_cm4.h ****   CMSIS violates the following MISRA-C:2004 rules:
  43:Generated_Source\PSoC6\pdl\cmsis/include/core_cm4.h **** 
  44:Generated_Source\PSoC6\pdl\cmsis/include/core_cm4.h ****    \li Required Rule 8.5, object/function definition in header file.<br>
  45:Generated_Source\PSoC6\pdl\cmsis/include/core_cm4.h ****      Function definitions in header files are used to allow 'inlining'.
  46:Generated_Source\PSoC6\pdl\cmsis/include/core_cm4.h **** 
  47:Generated_Source\PSoC6\pdl\cmsis/include/core_cm4.h ****    \li Required Rule 18.4, declaration of union type or object of union type: '{...}'.<br>
  48:Generated_Source\PSoC6\pdl\cmsis/include/core_cm4.h ****      Unions are used for effective representation of core registers.
  49:Generated_Source\PSoC6\pdl\cmsis/include/core_cm4.h **** 
  50:Generated_Source\PSoC6\pdl\cmsis/include/core_cm4.h ****    \li Advisory Rule 19.7, Function-like macro defined.<br>
  51:Generated_Source\PSoC6\pdl\cmsis/include/core_cm4.h ****      Function-like macros are used to allow more efficient code.
  52:Generated_Source\PSoC6\pdl\cmsis/include/core_cm4.h ****  */
  53:Generated_Source\PSoC6\pdl\cmsis/include/core_cm4.h **** 
  54:Generated_Source\PSoC6\pdl\cmsis/include/core_cm4.h **** 
  55:Generated_Source\PSoC6\pdl\cmsis/include/core_cm4.h **** /*******************************************************************************
  56:Generated_Source\PSoC6\pdl\cmsis/include/core_cm4.h ****  *                 CMSIS definitions
  57:Generated_Source\PSoC6\pdl\cmsis/include/core_cm4.h ****  ******************************************************************************/
  58:Generated_Source\PSoC6\pdl\cmsis/include/core_cm4.h **** /**
  59:Generated_Source\PSoC6\pdl\cmsis/include/core_cm4.h ****   \ingroup Cortex_M4
  60:Generated_Source\PSoC6\pdl\cmsis/include/core_cm4.h ****   @{
  61:Generated_Source\PSoC6\pdl\cmsis/include/core_cm4.h ****  */
  62:Generated_Source\PSoC6\pdl\cmsis/include/core_cm4.h **** 
  63:Generated_Source\PSoC6\pdl\cmsis/include/core_cm4.h **** #include "cmsis_version.h"
  64:Generated_Source\PSoC6\pdl\cmsis/include/core_cm4.h ****  
  65:Generated_Source\PSoC6\pdl\cmsis/include/core_cm4.h **** /* CMSIS CM4 definitions */
  66:Generated_Source\PSoC6\pdl\cmsis/include/core_cm4.h **** #define __CM4_CMSIS_VERSION_MAIN  (__CM_CMSIS_VERSION_MAIN)              /*!< \deprecated [31:16] C
  67:Generated_Source\PSoC6\pdl\cmsis/include/core_cm4.h **** #define __CM4_CMSIS_VERSION_SUB   (__CM_CMSIS_VERSION_SUB)               /*!< \deprecated [15:0]  C
  68:Generated_Source\PSoC6\pdl\cmsis/include/core_cm4.h **** #define __CM4_CMSIS_VERSION       ((__CM4_CMSIS_VERSION_MAIN << 16U) | \
  69:Generated_Source\PSoC6\pdl\cmsis/include/core_cm4.h ****                                     __CM4_CMSIS_VERSION_SUB           )  /*!< \deprecated CMSIS HAL
  70:Generated_Source\PSoC6\pdl\cmsis/include/core_cm4.h **** 
  71:Generated_Source\PSoC6\pdl\cmsis/include/core_cm4.h **** #define __CORTEX_M                (4U)                                   /*!< Cortex-M Core */
  72:Generated_Source\PSoC6\pdl\cmsis/include/core_cm4.h **** 
  73:Generated_Source\PSoC6\pdl\cmsis/include/core_cm4.h **** /** __FPU_USED indicates whether an FPU is used or not.
  74:Generated_Source\PSoC6\pdl\cmsis/include/core_cm4.h ****     For this, __FPU_PRESENT has to be checked prior to making use of FPU specific registers and fun
  75:Generated_Source\PSoC6\pdl\cmsis/include/core_cm4.h **** */
  76:Generated_Source\PSoC6\pdl\cmsis/include/core_cm4.h **** #if defined ( __CC_ARM )
  77:Generated_Source\PSoC6\pdl\cmsis/include/core_cm4.h ****   #if defined __TARGET_FPU_VFP
  78:Generated_Source\PSoC6\pdl\cmsis/include/core_cm4.h ****     #if defined (__FPU_PRESENT) && (__FPU_PRESENT == 1U)
  79:Generated_Source\PSoC6\pdl\cmsis/include/core_cm4.h ****       #define __FPU_USED       1U
  80:Generated_Source\PSoC6\pdl\cmsis/include/core_cm4.h ****     #else
  81:Generated_Source\PSoC6\pdl\cmsis/include/core_cm4.h ****       #error "Compiler generates FPU instructions for a device without an FPU (check __FPU_PRESENT)
  82:Generated_Source\PSoC6\pdl\cmsis/include/core_cm4.h ****       #define __FPU_USED       0U
  83:Generated_Source\PSoC6\pdl\cmsis/include/core_cm4.h ****     #endif
  84:Generated_Source\PSoC6\pdl\cmsis/include/core_cm4.h ****   #else
  85:Generated_Source\PSoC6\pdl\cmsis/include/core_cm4.h ****     #define __FPU_USED         0U
  86:Generated_Source\PSoC6\pdl\cmsis/include/core_cm4.h ****   #endif
  87:Generated_Source\PSoC6\pdl\cmsis/include/core_cm4.h **** 
  88:Generated_Source\PSoC6\pdl\cmsis/include/core_cm4.h **** #elif defined (__ARMCC_VERSION) && (__ARMCC_VERSION >= 6010050)
ARM GAS  C:\Users\yomat\AppData\Local\Temp\cc0omv11.s 			page 16


  89:Generated_Source\PSoC6\pdl\cmsis/include/core_cm4.h ****   #if defined __ARM_PCS_VFP
  90:Generated_Source\PSoC6\pdl\cmsis/include/core_cm4.h ****     #if defined (__FPU_PRESENT) && (__FPU_PRESENT == 1U)
  91:Generated_Source\PSoC6\pdl\cmsis/include/core_cm4.h ****       #define __FPU_USED       1U
  92:Generated_Source\PSoC6\pdl\cmsis/include/core_cm4.h ****     #else
  93:Generated_Source\PSoC6\pdl\cmsis/include/core_cm4.h ****       #warning "Compiler generates FPU instructions for a device without an FPU (check __FPU_PRESEN
  94:Generated_Source\PSoC6\pdl\cmsis/include/core_cm4.h ****       #define __FPU_USED       0U
  95:Generated_Source\PSoC6\pdl\cmsis/include/core_cm4.h ****     #endif
  96:Generated_Source\PSoC6\pdl\cmsis/include/core_cm4.h ****   #else
  97:Generated_Source\PSoC6\pdl\cmsis/include/core_cm4.h ****     #define __FPU_USED         0U
  98:Generated_Source\PSoC6\pdl\cmsis/include/core_cm4.h ****   #endif
  99:Generated_Source\PSoC6\pdl\cmsis/include/core_cm4.h **** 
 100:Generated_Source\PSoC6\pdl\cmsis/include/core_cm4.h **** #elif defined ( __GNUC__ )
 101:Generated_Source\PSoC6\pdl\cmsis/include/core_cm4.h ****   #if defined (__VFP_FP__) && !defined(__SOFTFP__)
 102:Generated_Source\PSoC6\pdl\cmsis/include/core_cm4.h ****     #if defined (__FPU_PRESENT) && (__FPU_PRESENT == 1U)
 103:Generated_Source\PSoC6\pdl\cmsis/include/core_cm4.h ****       #define __FPU_USED       1U
 104:Generated_Source\PSoC6\pdl\cmsis/include/core_cm4.h ****     #else
 105:Generated_Source\PSoC6\pdl\cmsis/include/core_cm4.h ****       #error "Compiler generates FPU instructions for a device without an FPU (check __FPU_PRESENT)
 106:Generated_Source\PSoC6\pdl\cmsis/include/core_cm4.h ****       #define __FPU_USED       0U
 107:Generated_Source\PSoC6\pdl\cmsis/include/core_cm4.h ****     #endif
 108:Generated_Source\PSoC6\pdl\cmsis/include/core_cm4.h ****   #else
 109:Generated_Source\PSoC6\pdl\cmsis/include/core_cm4.h ****     #define __FPU_USED         0U
 110:Generated_Source\PSoC6\pdl\cmsis/include/core_cm4.h ****   #endif
 111:Generated_Source\PSoC6\pdl\cmsis/include/core_cm4.h **** 
 112:Generated_Source\PSoC6\pdl\cmsis/include/core_cm4.h **** #elif defined ( __ICCARM__ )
 113:Generated_Source\PSoC6\pdl\cmsis/include/core_cm4.h ****   #if defined __ARMVFP__
 114:Generated_Source\PSoC6\pdl\cmsis/include/core_cm4.h ****     #if defined (__FPU_PRESENT) && (__FPU_PRESENT == 1U)
 115:Generated_Source\PSoC6\pdl\cmsis/include/core_cm4.h ****       #define __FPU_USED       1U
 116:Generated_Source\PSoC6\pdl\cmsis/include/core_cm4.h ****     #else
 117:Generated_Source\PSoC6\pdl\cmsis/include/core_cm4.h ****       #error "Compiler generates FPU instructions for a device without an FPU (check __FPU_PRESENT)
 118:Generated_Source\PSoC6\pdl\cmsis/include/core_cm4.h ****       #define __FPU_USED       0U
 119:Generated_Source\PSoC6\pdl\cmsis/include/core_cm4.h ****     #endif
 120:Generated_Source\PSoC6\pdl\cmsis/include/core_cm4.h ****   #else
 121:Generated_Source\PSoC6\pdl\cmsis/include/core_cm4.h ****     #define __FPU_USED         0U
 122:Generated_Source\PSoC6\pdl\cmsis/include/core_cm4.h ****   #endif
 123:Generated_Source\PSoC6\pdl\cmsis/include/core_cm4.h **** 
 124:Generated_Source\PSoC6\pdl\cmsis/include/core_cm4.h **** #elif defined ( __TI_ARM__ )
 125:Generated_Source\PSoC6\pdl\cmsis/include/core_cm4.h ****   #if defined __TI_VFP_SUPPORT__
 126:Generated_Source\PSoC6\pdl\cmsis/include/core_cm4.h ****     #if defined (__FPU_PRESENT) && (__FPU_PRESENT == 1U)
 127:Generated_Source\PSoC6\pdl\cmsis/include/core_cm4.h ****       #define __FPU_USED       1U
 128:Generated_Source\PSoC6\pdl\cmsis/include/core_cm4.h ****     #else
 129:Generated_Source\PSoC6\pdl\cmsis/include/core_cm4.h ****       #error "Compiler generates FPU instructions for a device without an FPU (check __FPU_PRESENT)
 130:Generated_Source\PSoC6\pdl\cmsis/include/core_cm4.h ****       #define __FPU_USED       0U
 131:Generated_Source\PSoC6\pdl\cmsis/include/core_cm4.h ****     #endif
 132:Generated_Source\PSoC6\pdl\cmsis/include/core_cm4.h ****   #else
 133:Generated_Source\PSoC6\pdl\cmsis/include/core_cm4.h ****     #define __FPU_USED         0U
 134:Generated_Source\PSoC6\pdl\cmsis/include/core_cm4.h ****   #endif
 135:Generated_Source\PSoC6\pdl\cmsis/include/core_cm4.h **** 
 136:Generated_Source\PSoC6\pdl\cmsis/include/core_cm4.h **** #elif defined ( __TASKING__ )
 137:Generated_Source\PSoC6\pdl\cmsis/include/core_cm4.h ****   #if defined __FPU_VFP__
 138:Generated_Source\PSoC6\pdl\cmsis/include/core_cm4.h ****     #if defined (__FPU_PRESENT) && (__FPU_PRESENT == 1U)
 139:Generated_Source\PSoC6\pdl\cmsis/include/core_cm4.h ****       #define __FPU_USED       1U
 140:Generated_Source\PSoC6\pdl\cmsis/include/core_cm4.h ****     #else
 141:Generated_Source\PSoC6\pdl\cmsis/include/core_cm4.h ****       #error "Compiler generates FPU instructions for a device without an FPU (check __FPU_PRESENT)
 142:Generated_Source\PSoC6\pdl\cmsis/include/core_cm4.h ****       #define __FPU_USED       0U
 143:Generated_Source\PSoC6\pdl\cmsis/include/core_cm4.h ****     #endif
 144:Generated_Source\PSoC6\pdl\cmsis/include/core_cm4.h ****   #else
 145:Generated_Source\PSoC6\pdl\cmsis/include/core_cm4.h ****     #define __FPU_USED         0U
ARM GAS  C:\Users\yomat\AppData\Local\Temp\cc0omv11.s 			page 17


 146:Generated_Source\PSoC6\pdl\cmsis/include/core_cm4.h ****   #endif
 147:Generated_Source\PSoC6\pdl\cmsis/include/core_cm4.h **** 
 148:Generated_Source\PSoC6\pdl\cmsis/include/core_cm4.h **** #elif defined ( __CSMC__ )
 149:Generated_Source\PSoC6\pdl\cmsis/include/core_cm4.h ****   #if ( __CSMC__ & 0x400U)
 150:Generated_Source\PSoC6\pdl\cmsis/include/core_cm4.h ****     #if defined (__FPU_PRESENT) && (__FPU_PRESENT == 1U)
 151:Generated_Source\PSoC6\pdl\cmsis/include/core_cm4.h ****       #define __FPU_USED       1U
 152:Generated_Source\PSoC6\pdl\cmsis/include/core_cm4.h ****     #else
 153:Generated_Source\PSoC6\pdl\cmsis/include/core_cm4.h ****       #error "Compiler generates FPU instructions for a device without an FPU (check __FPU_PRESENT)
 154:Generated_Source\PSoC6\pdl\cmsis/include/core_cm4.h ****       #define __FPU_USED       0U
 155:Generated_Source\PSoC6\pdl\cmsis/include/core_cm4.h ****     #endif
 156:Generated_Source\PSoC6\pdl\cmsis/include/core_cm4.h ****   #else
 157:Generated_Source\PSoC6\pdl\cmsis/include/core_cm4.h ****     #define __FPU_USED         0U
 158:Generated_Source\PSoC6\pdl\cmsis/include/core_cm4.h ****   #endif
 159:Generated_Source\PSoC6\pdl\cmsis/include/core_cm4.h **** 
 160:Generated_Source\PSoC6\pdl\cmsis/include/core_cm4.h **** #endif
 161:Generated_Source\PSoC6\pdl\cmsis/include/core_cm4.h **** 
 162:Generated_Source\PSoC6\pdl\cmsis/include/core_cm4.h **** #include "cmsis_compiler.h"               /* CMSIS compiler specific defines */
 163:Generated_Source\PSoC6\pdl\cmsis/include/core_cm4.h **** 
 164:Generated_Source\PSoC6\pdl\cmsis/include/core_cm4.h **** 
 165:Generated_Source\PSoC6\pdl\cmsis/include/core_cm4.h **** #ifdef __cplusplus
 166:Generated_Source\PSoC6\pdl\cmsis/include/core_cm4.h **** }
 167:Generated_Source\PSoC6\pdl\cmsis/include/core_cm4.h **** #endif
 168:Generated_Source\PSoC6\pdl\cmsis/include/core_cm4.h **** 
 169:Generated_Source\PSoC6\pdl\cmsis/include/core_cm4.h **** #endif /* __CORE_CM4_H_GENERIC */
 170:Generated_Source\PSoC6\pdl\cmsis/include/core_cm4.h **** 
 171:Generated_Source\PSoC6\pdl\cmsis/include/core_cm4.h **** #ifndef __CMSIS_GENERIC
 172:Generated_Source\PSoC6\pdl\cmsis/include/core_cm4.h **** 
 173:Generated_Source\PSoC6\pdl\cmsis/include/core_cm4.h **** #ifndef __CORE_CM4_H_DEPENDANT
 174:Generated_Source\PSoC6\pdl\cmsis/include/core_cm4.h **** #define __CORE_CM4_H_DEPENDANT
 175:Generated_Source\PSoC6\pdl\cmsis/include/core_cm4.h **** 
 176:Generated_Source\PSoC6\pdl\cmsis/include/core_cm4.h **** #ifdef __cplusplus
 177:Generated_Source\PSoC6\pdl\cmsis/include/core_cm4.h ****  extern "C" {
 178:Generated_Source\PSoC6\pdl\cmsis/include/core_cm4.h **** #endif
 179:Generated_Source\PSoC6\pdl\cmsis/include/core_cm4.h **** 
 180:Generated_Source\PSoC6\pdl\cmsis/include/core_cm4.h **** /* check device defines and use defaults */
 181:Generated_Source\PSoC6\pdl\cmsis/include/core_cm4.h **** #if defined __CHECK_DEVICE_DEFINES
 182:Generated_Source\PSoC6\pdl\cmsis/include/core_cm4.h ****   #ifndef __CM4_REV
 183:Generated_Source\PSoC6\pdl\cmsis/include/core_cm4.h ****     #define __CM4_REV               0x0000U
 184:Generated_Source\PSoC6\pdl\cmsis/include/core_cm4.h ****     #warning "__CM4_REV not defined in device header file; using default!"
 185:Generated_Source\PSoC6\pdl\cmsis/include/core_cm4.h ****   #endif
 186:Generated_Source\PSoC6\pdl\cmsis/include/core_cm4.h **** 
 187:Generated_Source\PSoC6\pdl\cmsis/include/core_cm4.h ****   #ifndef __FPU_PRESENT
 188:Generated_Source\PSoC6\pdl\cmsis/include/core_cm4.h ****     #define __FPU_PRESENT             0U
 189:Generated_Source\PSoC6\pdl\cmsis/include/core_cm4.h ****     #warning "__FPU_PRESENT not defined in device header file; using default!"
 190:Generated_Source\PSoC6\pdl\cmsis/include/core_cm4.h ****   #endif
 191:Generated_Source\PSoC6\pdl\cmsis/include/core_cm4.h **** 
 192:Generated_Source\PSoC6\pdl\cmsis/include/core_cm4.h ****   #ifndef __MPU_PRESENT
 193:Generated_Source\PSoC6\pdl\cmsis/include/core_cm4.h ****     #define __MPU_PRESENT             0U
 194:Generated_Source\PSoC6\pdl\cmsis/include/core_cm4.h ****     #warning "__MPU_PRESENT not defined in device header file; using default!"
 195:Generated_Source\PSoC6\pdl\cmsis/include/core_cm4.h ****   #endif
 196:Generated_Source\PSoC6\pdl\cmsis/include/core_cm4.h **** 
 197:Generated_Source\PSoC6\pdl\cmsis/include/core_cm4.h ****   #ifndef __NVIC_PRIO_BITS
 198:Generated_Source\PSoC6\pdl\cmsis/include/core_cm4.h ****     #define __NVIC_PRIO_BITS          3U
 199:Generated_Source\PSoC6\pdl\cmsis/include/core_cm4.h ****     #warning "__NVIC_PRIO_BITS not defined in device header file; using default!"
 200:Generated_Source\PSoC6\pdl\cmsis/include/core_cm4.h ****   #endif
 201:Generated_Source\PSoC6\pdl\cmsis/include/core_cm4.h **** 
 202:Generated_Source\PSoC6\pdl\cmsis/include/core_cm4.h ****   #ifndef __Vendor_SysTickConfig
ARM GAS  C:\Users\yomat\AppData\Local\Temp\cc0omv11.s 			page 18


 203:Generated_Source\PSoC6\pdl\cmsis/include/core_cm4.h ****     #define __Vendor_SysTickConfig    0U
 204:Generated_Source\PSoC6\pdl\cmsis/include/core_cm4.h ****     #warning "__Vendor_SysTickConfig not defined in device header file; using default!"
 205:Generated_Source\PSoC6\pdl\cmsis/include/core_cm4.h ****   #endif
 206:Generated_Source\PSoC6\pdl\cmsis/include/core_cm4.h **** #endif
 207:Generated_Source\PSoC6\pdl\cmsis/include/core_cm4.h **** 
 208:Generated_Source\PSoC6\pdl\cmsis/include/core_cm4.h **** /* IO definitions (access restrictions to peripheral registers) */
 209:Generated_Source\PSoC6\pdl\cmsis/include/core_cm4.h **** /**
 210:Generated_Source\PSoC6\pdl\cmsis/include/core_cm4.h ****     \defgroup CMSIS_glob_defs CMSIS Global Defines
 211:Generated_Source\PSoC6\pdl\cmsis/include/core_cm4.h **** 
 212:Generated_Source\PSoC6\pdl\cmsis/include/core_cm4.h ****     <strong>IO Type Qualifiers</strong> are used
 213:Generated_Source\PSoC6\pdl\cmsis/include/core_cm4.h ****     \li to specify the access to peripheral variables.
 214:Generated_Source\PSoC6\pdl\cmsis/include/core_cm4.h ****     \li for automatic generation of peripheral register debug information.
 215:Generated_Source\PSoC6\pdl\cmsis/include/core_cm4.h **** */
 216:Generated_Source\PSoC6\pdl\cmsis/include/core_cm4.h **** #ifdef __cplusplus
 217:Generated_Source\PSoC6\pdl\cmsis/include/core_cm4.h ****   #define   __I     volatile             /*!< Defines 'read only' permissions */
 218:Generated_Source\PSoC6\pdl\cmsis/include/core_cm4.h **** #else
 219:Generated_Source\PSoC6\pdl\cmsis/include/core_cm4.h ****   #define   __I     volatile const       /*!< Defines 'read only' permissions */
 220:Generated_Source\PSoC6\pdl\cmsis/include/core_cm4.h **** #endif
 221:Generated_Source\PSoC6\pdl\cmsis/include/core_cm4.h **** #define     __O     volatile             /*!< Defines 'write only' permissions */
 222:Generated_Source\PSoC6\pdl\cmsis/include/core_cm4.h **** #define     __IO    volatile             /*!< Defines 'read / write' permissions */
 223:Generated_Source\PSoC6\pdl\cmsis/include/core_cm4.h **** 
 224:Generated_Source\PSoC6\pdl\cmsis/include/core_cm4.h **** /* following defines should be used for structure members */
 225:Generated_Source\PSoC6\pdl\cmsis/include/core_cm4.h **** #define     __IM     volatile const      /*! Defines 'read only' structure member permissions */
 226:Generated_Source\PSoC6\pdl\cmsis/include/core_cm4.h **** #define     __OM     volatile            /*! Defines 'write only' structure member permissions */
 227:Generated_Source\PSoC6\pdl\cmsis/include/core_cm4.h **** #define     __IOM    volatile            /*! Defines 'read / write' structure member permissions */
 228:Generated_Source\PSoC6\pdl\cmsis/include/core_cm4.h **** 
 229:Generated_Source\PSoC6\pdl\cmsis/include/core_cm4.h **** /*@} end of group Cortex_M4 */
 230:Generated_Source\PSoC6\pdl\cmsis/include/core_cm4.h **** 
 231:Generated_Source\PSoC6\pdl\cmsis/include/core_cm4.h **** 
 232:Generated_Source\PSoC6\pdl\cmsis/include/core_cm4.h **** 
 233:Generated_Source\PSoC6\pdl\cmsis/include/core_cm4.h **** /*******************************************************************************
 234:Generated_Source\PSoC6\pdl\cmsis/include/core_cm4.h ****  *                 Register Abstraction
 235:Generated_Source\PSoC6\pdl\cmsis/include/core_cm4.h ****   Core Register contain:
 236:Generated_Source\PSoC6\pdl\cmsis/include/core_cm4.h ****   - Core Register
 237:Generated_Source\PSoC6\pdl\cmsis/include/core_cm4.h ****   - Core NVIC Register
 238:Generated_Source\PSoC6\pdl\cmsis/include/core_cm4.h ****   - Core SCB Register
 239:Generated_Source\PSoC6\pdl\cmsis/include/core_cm4.h ****   - Core SysTick Register
 240:Generated_Source\PSoC6\pdl\cmsis/include/core_cm4.h ****   - Core Debug Register
 241:Generated_Source\PSoC6\pdl\cmsis/include/core_cm4.h ****   - Core MPU Register
 242:Generated_Source\PSoC6\pdl\cmsis/include/core_cm4.h ****   - Core FPU Register
 243:Generated_Source\PSoC6\pdl\cmsis/include/core_cm4.h ****  ******************************************************************************/
 244:Generated_Source\PSoC6\pdl\cmsis/include/core_cm4.h **** /**
 245:Generated_Source\PSoC6\pdl\cmsis/include/core_cm4.h ****   \defgroup CMSIS_core_register Defines and Type Definitions
 246:Generated_Source\PSoC6\pdl\cmsis/include/core_cm4.h ****   \brief Type definitions and defines for Cortex-M processor based devices.
 247:Generated_Source\PSoC6\pdl\cmsis/include/core_cm4.h **** */
 248:Generated_Source\PSoC6\pdl\cmsis/include/core_cm4.h **** 
 249:Generated_Source\PSoC6\pdl\cmsis/include/core_cm4.h **** /**
 250:Generated_Source\PSoC6\pdl\cmsis/include/core_cm4.h ****   \ingroup    CMSIS_core_register
 251:Generated_Source\PSoC6\pdl\cmsis/include/core_cm4.h ****   \defgroup   CMSIS_CORE  Status and Control Registers
 252:Generated_Source\PSoC6\pdl\cmsis/include/core_cm4.h ****   \brief      Core Register type definitions.
 253:Generated_Source\PSoC6\pdl\cmsis/include/core_cm4.h ****   @{
 254:Generated_Source\PSoC6\pdl\cmsis/include/core_cm4.h ****  */
 255:Generated_Source\PSoC6\pdl\cmsis/include/core_cm4.h **** 
 256:Generated_Source\PSoC6\pdl\cmsis/include/core_cm4.h **** /**
 257:Generated_Source\PSoC6\pdl\cmsis/include/core_cm4.h ****   \brief  Union type to access the Application Program Status Register (APSR).
 258:Generated_Source\PSoC6\pdl\cmsis/include/core_cm4.h ****  */
 259:Generated_Source\PSoC6\pdl\cmsis/include/core_cm4.h **** typedef union
ARM GAS  C:\Users\yomat\AppData\Local\Temp\cc0omv11.s 			page 19


 260:Generated_Source\PSoC6\pdl\cmsis/include/core_cm4.h **** {
 261:Generated_Source\PSoC6\pdl\cmsis/include/core_cm4.h ****   struct
 262:Generated_Source\PSoC6\pdl\cmsis/include/core_cm4.h ****   {
 263:Generated_Source\PSoC6\pdl\cmsis/include/core_cm4.h ****     uint32_t _reserved0:16;              /*!< bit:  0..15  Reserved */
 264:Generated_Source\PSoC6\pdl\cmsis/include/core_cm4.h ****     uint32_t GE:4;                       /*!< bit: 16..19  Greater than or Equal flags */
 265:Generated_Source\PSoC6\pdl\cmsis/include/core_cm4.h ****     uint32_t _reserved1:7;               /*!< bit: 20..26  Reserved */
 266:Generated_Source\PSoC6\pdl\cmsis/include/core_cm4.h ****     uint32_t Q:1;                        /*!< bit:     27  Saturation condition flag */
 267:Generated_Source\PSoC6\pdl\cmsis/include/core_cm4.h ****     uint32_t V:1;                        /*!< bit:     28  Overflow condition code flag */
 268:Generated_Source\PSoC6\pdl\cmsis/include/core_cm4.h ****     uint32_t C:1;                        /*!< bit:     29  Carry condition code flag */
 269:Generated_Source\PSoC6\pdl\cmsis/include/core_cm4.h ****     uint32_t Z:1;                        /*!< bit:     30  Zero condition code flag */
 270:Generated_Source\PSoC6\pdl\cmsis/include/core_cm4.h ****     uint32_t N:1;                        /*!< bit:     31  Negative condition code flag */
 271:Generated_Source\PSoC6\pdl\cmsis/include/core_cm4.h ****   } b;                                   /*!< Structure used for bit  access */
 272:Generated_Source\PSoC6\pdl\cmsis/include/core_cm4.h ****   uint32_t w;                            /*!< Type      used for word access */
 273:Generated_Source\PSoC6\pdl\cmsis/include/core_cm4.h **** } APSR_Type;
 274:Generated_Source\PSoC6\pdl\cmsis/include/core_cm4.h **** 
 275:Generated_Source\PSoC6\pdl\cmsis/include/core_cm4.h **** /* APSR Register Definitions */
 276:Generated_Source\PSoC6\pdl\cmsis/include/core_cm4.h **** #define APSR_N_Pos                         31U                                            /*!< APSR
 277:Generated_Source\PSoC6\pdl\cmsis/include/core_cm4.h **** #define APSR_N_Msk                         (1UL << APSR_N_Pos)                            /*!< APSR
 278:Generated_Source\PSoC6\pdl\cmsis/include/core_cm4.h **** 
 279:Generated_Source\PSoC6\pdl\cmsis/include/core_cm4.h **** #define APSR_Z_Pos                         30U                                            /*!< APSR
 280:Generated_Source\PSoC6\pdl\cmsis/include/core_cm4.h **** #define APSR_Z_Msk                         (1UL << APSR_Z_Pos)                            /*!< APSR
 281:Generated_Source\PSoC6\pdl\cmsis/include/core_cm4.h **** 
 282:Generated_Source\PSoC6\pdl\cmsis/include/core_cm4.h **** #define APSR_C_Pos                         29U                                            /*!< APSR
 283:Generated_Source\PSoC6\pdl\cmsis/include/core_cm4.h **** #define APSR_C_Msk                         (1UL << APSR_C_Pos)                            /*!< APSR
 284:Generated_Source\PSoC6\pdl\cmsis/include/core_cm4.h **** 
 285:Generated_Source\PSoC6\pdl\cmsis/include/core_cm4.h **** #define APSR_V_Pos                         28U                                            /*!< APSR
 286:Generated_Source\PSoC6\pdl\cmsis/include/core_cm4.h **** #define APSR_V_Msk                         (1UL << APSR_V_Pos)                            /*!< APSR
 287:Generated_Source\PSoC6\pdl\cmsis/include/core_cm4.h **** 
 288:Generated_Source\PSoC6\pdl\cmsis/include/core_cm4.h **** #define APSR_Q_Pos                         27U                                            /*!< APSR
 289:Generated_Source\PSoC6\pdl\cmsis/include/core_cm4.h **** #define APSR_Q_Msk                         (1UL << APSR_Q_Pos)                            /*!< APSR
 290:Generated_Source\PSoC6\pdl\cmsis/include/core_cm4.h **** 
 291:Generated_Source\PSoC6\pdl\cmsis/include/core_cm4.h **** #define APSR_GE_Pos                        16U                                            /*!< APSR
 292:Generated_Source\PSoC6\pdl\cmsis/include/core_cm4.h **** #define APSR_GE_Msk                        (0xFUL << APSR_GE_Pos)                         /*!< APSR
 293:Generated_Source\PSoC6\pdl\cmsis/include/core_cm4.h **** 
 294:Generated_Source\PSoC6\pdl\cmsis/include/core_cm4.h **** 
 295:Generated_Source\PSoC6\pdl\cmsis/include/core_cm4.h **** /**
 296:Generated_Source\PSoC6\pdl\cmsis/include/core_cm4.h ****   \brief  Union type to access the Interrupt Program Status Register (IPSR).
 297:Generated_Source\PSoC6\pdl\cmsis/include/core_cm4.h ****  */
 298:Generated_Source\PSoC6\pdl\cmsis/include/core_cm4.h **** typedef union
 299:Generated_Source\PSoC6\pdl\cmsis/include/core_cm4.h **** {
 300:Generated_Source\PSoC6\pdl\cmsis/include/core_cm4.h ****   struct
 301:Generated_Source\PSoC6\pdl\cmsis/include/core_cm4.h ****   {
 302:Generated_Source\PSoC6\pdl\cmsis/include/core_cm4.h ****     uint32_t ISR:9;                      /*!< bit:  0.. 8  Exception number */
 303:Generated_Source\PSoC6\pdl\cmsis/include/core_cm4.h ****     uint32_t _reserved0:23;              /*!< bit:  9..31  Reserved */
 304:Generated_Source\PSoC6\pdl\cmsis/include/core_cm4.h ****   } b;                                   /*!< Structure used for bit  access */
 305:Generated_Source\PSoC6\pdl\cmsis/include/core_cm4.h ****   uint32_t w;                            /*!< Type      used for word access */
 306:Generated_Source\PSoC6\pdl\cmsis/include/core_cm4.h **** } IPSR_Type;
 307:Generated_Source\PSoC6\pdl\cmsis/include/core_cm4.h **** 
 308:Generated_Source\PSoC6\pdl\cmsis/include/core_cm4.h **** /* IPSR Register Definitions */
 309:Generated_Source\PSoC6\pdl\cmsis/include/core_cm4.h **** #define IPSR_ISR_Pos                        0U                                            /*!< IPSR
 310:Generated_Source\PSoC6\pdl\cmsis/include/core_cm4.h **** #define IPSR_ISR_Msk                       (0x1FFUL /*<< IPSR_ISR_Pos*/)                  /*!< IPSR
 311:Generated_Source\PSoC6\pdl\cmsis/include/core_cm4.h **** 
 312:Generated_Source\PSoC6\pdl\cmsis/include/core_cm4.h **** 
 313:Generated_Source\PSoC6\pdl\cmsis/include/core_cm4.h **** /**
 314:Generated_Source\PSoC6\pdl\cmsis/include/core_cm4.h ****   \brief  Union type to access the Special-Purpose Program Status Registers (xPSR).
 315:Generated_Source\PSoC6\pdl\cmsis/include/core_cm4.h ****  */
 316:Generated_Source\PSoC6\pdl\cmsis/include/core_cm4.h **** typedef union
ARM GAS  C:\Users\yomat\AppData\Local\Temp\cc0omv11.s 			page 20


 317:Generated_Source\PSoC6\pdl\cmsis/include/core_cm4.h **** {
 318:Generated_Source\PSoC6\pdl\cmsis/include/core_cm4.h ****   struct
 319:Generated_Source\PSoC6\pdl\cmsis/include/core_cm4.h ****   {
 320:Generated_Source\PSoC6\pdl\cmsis/include/core_cm4.h ****     uint32_t ISR:9;                      /*!< bit:  0.. 8  Exception number */
 321:Generated_Source\PSoC6\pdl\cmsis/include/core_cm4.h ****     uint32_t _reserved0:1;               /*!< bit:      9  Reserved */
 322:Generated_Source\PSoC6\pdl\cmsis/include/core_cm4.h ****     uint32_t ICI_IT_1:6;                 /*!< bit: 10..15  ICI/IT part 1 */
 323:Generated_Source\PSoC6\pdl\cmsis/include/core_cm4.h ****     uint32_t GE:4;                       /*!< bit: 16..19  Greater than or Equal flags */
 324:Generated_Source\PSoC6\pdl\cmsis/include/core_cm4.h ****     uint32_t _reserved1:4;               /*!< bit: 20..23  Reserved */
 325:Generated_Source\PSoC6\pdl\cmsis/include/core_cm4.h ****     uint32_t T:1;                        /*!< bit:     24  Thumb bit */
 326:Generated_Source\PSoC6\pdl\cmsis/include/core_cm4.h ****     uint32_t ICI_IT_2:2;                 /*!< bit: 25..26  ICI/IT part 2 */
 327:Generated_Source\PSoC6\pdl\cmsis/include/core_cm4.h ****     uint32_t Q:1;                        /*!< bit:     27  Saturation condition flag */
 328:Generated_Source\PSoC6\pdl\cmsis/include/core_cm4.h ****     uint32_t V:1;                        /*!< bit:     28  Overflow condition code flag */
 329:Generated_Source\PSoC6\pdl\cmsis/include/core_cm4.h ****     uint32_t C:1;                        /*!< bit:     29  Carry condition code flag */
 330:Generated_Source\PSoC6\pdl\cmsis/include/core_cm4.h ****     uint32_t Z:1;                        /*!< bit:     30  Zero condition code flag */
 331:Generated_Source\PSoC6\pdl\cmsis/include/core_cm4.h ****     uint32_t N:1;                        /*!< bit:     31  Negative condition code flag */
 332:Generated_Source\PSoC6\pdl\cmsis/include/core_cm4.h ****   } b;                                   /*!< Structure used for bit  access */
 333:Generated_Source\PSoC6\pdl\cmsis/include/core_cm4.h ****   uint32_t w;                            /*!< Type      used for word access */
 334:Generated_Source\PSoC6\pdl\cmsis/include/core_cm4.h **** } xPSR_Type;
 335:Generated_Source\PSoC6\pdl\cmsis/include/core_cm4.h **** 
 336:Generated_Source\PSoC6\pdl\cmsis/include/core_cm4.h **** /* xPSR Register Definitions */
 337:Generated_Source\PSoC6\pdl\cmsis/include/core_cm4.h **** #define xPSR_N_Pos                         31U                                            /*!< xPSR
 338:Generated_Source\PSoC6\pdl\cmsis/include/core_cm4.h **** #define xPSR_N_Msk                         (1UL << xPSR_N_Pos)                            /*!< xPSR
 339:Generated_Source\PSoC6\pdl\cmsis/include/core_cm4.h **** 
 340:Generated_Source\PSoC6\pdl\cmsis/include/core_cm4.h **** #define xPSR_Z_Pos                         30U                                            /*!< xPSR
 341:Generated_Source\PSoC6\pdl\cmsis/include/core_cm4.h **** #define xPSR_Z_Msk                         (1UL << xPSR_Z_Pos)                            /*!< xPSR
 342:Generated_Source\PSoC6\pdl\cmsis/include/core_cm4.h **** 
 343:Generated_Source\PSoC6\pdl\cmsis/include/core_cm4.h **** #define xPSR_C_Pos                         29U                                            /*!< xPSR
 344:Generated_Source\PSoC6\pdl\cmsis/include/core_cm4.h **** #define xPSR_C_Msk                         (1UL << xPSR_C_Pos)                            /*!< xPSR
 345:Generated_Source\PSoC6\pdl\cmsis/include/core_cm4.h **** 
 346:Generated_Source\PSoC6\pdl\cmsis/include/core_cm4.h **** #define xPSR_V_Pos                         28U                                            /*!< xPSR
 347:Generated_Source\PSoC6\pdl\cmsis/include/core_cm4.h **** #define xPSR_V_Msk                         (1UL << xPSR_V_Pos)                            /*!< xPSR
 348:Generated_Source\PSoC6\pdl\cmsis/include/core_cm4.h **** 
 349:Generated_Source\PSoC6\pdl\cmsis/include/core_cm4.h **** #define xPSR_Q_Pos                         27U                                            /*!< xPSR
 350:Generated_Source\PSoC6\pdl\cmsis/include/core_cm4.h **** #define xPSR_Q_Msk                         (1UL << xPSR_Q_Pos)                            /*!< xPSR
 351:Generated_Source\PSoC6\pdl\cmsis/include/core_cm4.h **** 
 352:Generated_Source\PSoC6\pdl\cmsis/include/core_cm4.h **** #define xPSR_ICI_IT_2_Pos                  25U                                            /*!< xPSR
 353:Generated_Source\PSoC6\pdl\cmsis/include/core_cm4.h **** #define xPSR_ICI_IT_2_Msk                  (3UL << xPSR_ICI_IT_2_Pos)                     /*!< xPSR
 354:Generated_Source\PSoC6\pdl\cmsis/include/core_cm4.h **** 
 355:Generated_Source\PSoC6\pdl\cmsis/include/core_cm4.h **** #define xPSR_T_Pos                         24U                                            /*!< xPSR
 356:Generated_Source\PSoC6\pdl\cmsis/include/core_cm4.h **** #define xPSR_T_Msk                         (1UL << xPSR_T_Pos)                            /*!< xPSR
 357:Generated_Source\PSoC6\pdl\cmsis/include/core_cm4.h **** 
 358:Generated_Source\PSoC6\pdl\cmsis/include/core_cm4.h **** #define xPSR_GE_Pos                        16U                                            /*!< xPSR
 359:Generated_Source\PSoC6\pdl\cmsis/include/core_cm4.h **** #define xPSR_GE_Msk                        (0xFUL << xPSR_GE_Pos)                         /*!< xPSR
 360:Generated_Source\PSoC6\pdl\cmsis/include/core_cm4.h **** 
 361:Generated_Source\PSoC6\pdl\cmsis/include/core_cm4.h **** #define xPSR_ICI_IT_1_Pos                  10U                                            /*!< xPSR
 362:Generated_Source\PSoC6\pdl\cmsis/include/core_cm4.h **** #define xPSR_ICI_IT_1_Msk                  (0x3FUL << xPSR_ICI_IT_1_Pos)                  /*!< xPSR
 363:Generated_Source\PSoC6\pdl\cmsis/include/core_cm4.h **** 
 364:Generated_Source\PSoC6\pdl\cmsis/include/core_cm4.h **** #define xPSR_ISR_Pos                        0U                                            /*!< xPSR
 365:Generated_Source\PSoC6\pdl\cmsis/include/core_cm4.h **** #define xPSR_ISR_Msk                       (0x1FFUL /*<< xPSR_ISR_Pos*/)                  /*!< xPSR
 366:Generated_Source\PSoC6\pdl\cmsis/include/core_cm4.h **** 
 367:Generated_Source\PSoC6\pdl\cmsis/include/core_cm4.h **** 
 368:Generated_Source\PSoC6\pdl\cmsis/include/core_cm4.h **** /**
 369:Generated_Source\PSoC6\pdl\cmsis/include/core_cm4.h ****   \brief  Union type to access the Control Registers (CONTROL).
 370:Generated_Source\PSoC6\pdl\cmsis/include/core_cm4.h ****  */
 371:Generated_Source\PSoC6\pdl\cmsis/include/core_cm4.h **** typedef union
 372:Generated_Source\PSoC6\pdl\cmsis/include/core_cm4.h **** {
 373:Generated_Source\PSoC6\pdl\cmsis/include/core_cm4.h ****   struct
ARM GAS  C:\Users\yomat\AppData\Local\Temp\cc0omv11.s 			page 21


 374:Generated_Source\PSoC6\pdl\cmsis/include/core_cm4.h ****   {
 375:Generated_Source\PSoC6\pdl\cmsis/include/core_cm4.h ****     uint32_t nPRIV:1;                    /*!< bit:      0  Execution privilege in Thread mode */
 376:Generated_Source\PSoC6\pdl\cmsis/include/core_cm4.h ****     uint32_t SPSEL:1;                    /*!< bit:      1  Stack to be used */
 377:Generated_Source\PSoC6\pdl\cmsis/include/core_cm4.h ****     uint32_t FPCA:1;                     /*!< bit:      2  FP extension active flag */
 378:Generated_Source\PSoC6\pdl\cmsis/include/core_cm4.h ****     uint32_t _reserved0:29;              /*!< bit:  3..31  Reserved */
 379:Generated_Source\PSoC6\pdl\cmsis/include/core_cm4.h ****   } b;                                   /*!< Structure used for bit  access */
 380:Generated_Source\PSoC6\pdl\cmsis/include/core_cm4.h ****   uint32_t w;                            /*!< Type      used for word access */
 381:Generated_Source\PSoC6\pdl\cmsis/include/core_cm4.h **** } CONTROL_Type;
 382:Generated_Source\PSoC6\pdl\cmsis/include/core_cm4.h **** 
 383:Generated_Source\PSoC6\pdl\cmsis/include/core_cm4.h **** /* CONTROL Register Definitions */
 384:Generated_Source\PSoC6\pdl\cmsis/include/core_cm4.h **** #define CONTROL_FPCA_Pos                    2U                                            /*!< CONT
 385:Generated_Source\PSoC6\pdl\cmsis/include/core_cm4.h **** #define CONTROL_FPCA_Msk                   (1UL << CONTROL_FPCA_Pos)                      /*!< CONT
 386:Generated_Source\PSoC6\pdl\cmsis/include/core_cm4.h **** 
 387:Generated_Source\PSoC6\pdl\cmsis/include/core_cm4.h **** #define CONTROL_SPSEL_Pos                   1U                                            /*!< CONT
 388:Generated_Source\PSoC6\pdl\cmsis/include/core_cm4.h **** #define CONTROL_SPSEL_Msk                  (1UL << CONTROL_SPSEL_Pos)                     /*!< CONT
 389:Generated_Source\PSoC6\pdl\cmsis/include/core_cm4.h **** 
 390:Generated_Source\PSoC6\pdl\cmsis/include/core_cm4.h **** #define CONTROL_nPRIV_Pos                   0U                                            /*!< CONT
 391:Generated_Source\PSoC6\pdl\cmsis/include/core_cm4.h **** #define CONTROL_nPRIV_Msk                  (1UL /*<< CONTROL_nPRIV_Pos*/)                 /*!< CONT
 392:Generated_Source\PSoC6\pdl\cmsis/include/core_cm4.h **** 
 393:Generated_Source\PSoC6\pdl\cmsis/include/core_cm4.h **** /*@} end of group CMSIS_CORE */
 394:Generated_Source\PSoC6\pdl\cmsis/include/core_cm4.h **** 
 395:Generated_Source\PSoC6\pdl\cmsis/include/core_cm4.h **** 
 396:Generated_Source\PSoC6\pdl\cmsis/include/core_cm4.h **** /**
 397:Generated_Source\PSoC6\pdl\cmsis/include/core_cm4.h ****   \ingroup    CMSIS_core_register
 398:Generated_Source\PSoC6\pdl\cmsis/include/core_cm4.h ****   \defgroup   CMSIS_NVIC  Nested Vectored Interrupt Controller (NVIC)
 399:Generated_Source\PSoC6\pdl\cmsis/include/core_cm4.h ****   \brief      Type definitions for the NVIC Registers
 400:Generated_Source\PSoC6\pdl\cmsis/include/core_cm4.h ****   @{
 401:Generated_Source\PSoC6\pdl\cmsis/include/core_cm4.h ****  */
 402:Generated_Source\PSoC6\pdl\cmsis/include/core_cm4.h **** 
 403:Generated_Source\PSoC6\pdl\cmsis/include/core_cm4.h **** /**
 404:Generated_Source\PSoC6\pdl\cmsis/include/core_cm4.h ****   \brief  Structure type to access the Nested Vectored Interrupt Controller (NVIC).
 405:Generated_Source\PSoC6\pdl\cmsis/include/core_cm4.h ****  */
 406:Generated_Source\PSoC6\pdl\cmsis/include/core_cm4.h **** typedef struct
 407:Generated_Source\PSoC6\pdl\cmsis/include/core_cm4.h **** {
 408:Generated_Source\PSoC6\pdl\cmsis/include/core_cm4.h ****   __IOM uint32_t ISER[8U];               /*!< Offset: 0x000 (R/W)  Interrupt Set Enable Register */
 409:Generated_Source\PSoC6\pdl\cmsis/include/core_cm4.h ****         uint32_t RESERVED0[24U];
 410:Generated_Source\PSoC6\pdl\cmsis/include/core_cm4.h ****   __IOM uint32_t ICER[8U];               /*!< Offset: 0x080 (R/W)  Interrupt Clear Enable Register 
 411:Generated_Source\PSoC6\pdl\cmsis/include/core_cm4.h ****         uint32_t RSERVED1[24U];
 412:Generated_Source\PSoC6\pdl\cmsis/include/core_cm4.h ****   __IOM uint32_t ISPR[8U];               /*!< Offset: 0x100 (R/W)  Interrupt Set Pending Register *
 413:Generated_Source\PSoC6\pdl\cmsis/include/core_cm4.h ****         uint32_t RESERVED2[24U];
 414:Generated_Source\PSoC6\pdl\cmsis/include/core_cm4.h ****   __IOM uint32_t ICPR[8U];               /*!< Offset: 0x180 (R/W)  Interrupt Clear Pending Register
 415:Generated_Source\PSoC6\pdl\cmsis/include/core_cm4.h ****         uint32_t RESERVED3[24U];
 416:Generated_Source\PSoC6\pdl\cmsis/include/core_cm4.h ****   __IOM uint32_t IABR[8U];               /*!< Offset: 0x200 (R/W)  Interrupt Active bit Register */
 417:Generated_Source\PSoC6\pdl\cmsis/include/core_cm4.h ****         uint32_t RESERVED4[56U];
 418:Generated_Source\PSoC6\pdl\cmsis/include/core_cm4.h ****   __IOM uint8_t  IP[240U];               /*!< Offset: 0x300 (R/W)  Interrupt Priority Register (8Bi
 419:Generated_Source\PSoC6\pdl\cmsis/include/core_cm4.h ****         uint32_t RESERVED5[644U];
 420:Generated_Source\PSoC6\pdl\cmsis/include/core_cm4.h ****   __OM  uint32_t STIR;                   /*!< Offset: 0xE00 ( /W)  Software Trigger Interrupt Regis
 421:Generated_Source\PSoC6\pdl\cmsis/include/core_cm4.h **** }  NVIC_Type;
 422:Generated_Source\PSoC6\pdl\cmsis/include/core_cm4.h **** 
 423:Generated_Source\PSoC6\pdl\cmsis/include/core_cm4.h **** /* Software Triggered Interrupt Register Definitions */
 424:Generated_Source\PSoC6\pdl\cmsis/include/core_cm4.h **** #define NVIC_STIR_INTID_Pos                 0U                                         /*!< STIR: I
 425:Generated_Source\PSoC6\pdl\cmsis/include/core_cm4.h **** #define NVIC_STIR_INTID_Msk                (0x1FFUL /*<< NVIC_STIR_INTID_Pos*/)        /*!< STIR: I
 426:Generated_Source\PSoC6\pdl\cmsis/include/core_cm4.h **** 
 427:Generated_Source\PSoC6\pdl\cmsis/include/core_cm4.h **** /*@} end of group CMSIS_NVIC */
 428:Generated_Source\PSoC6\pdl\cmsis/include/core_cm4.h **** 
 429:Generated_Source\PSoC6\pdl\cmsis/include/core_cm4.h **** 
 430:Generated_Source\PSoC6\pdl\cmsis/include/core_cm4.h **** /**
ARM GAS  C:\Users\yomat\AppData\Local\Temp\cc0omv11.s 			page 22


 431:Generated_Source\PSoC6\pdl\cmsis/include/core_cm4.h ****   \ingroup  CMSIS_core_register
 432:Generated_Source\PSoC6\pdl\cmsis/include/core_cm4.h ****   \defgroup CMSIS_SCB     System Control Block (SCB)
 433:Generated_Source\PSoC6\pdl\cmsis/include/core_cm4.h ****   \brief    Type definitions for the System Control Block Registers
 434:Generated_Source\PSoC6\pdl\cmsis/include/core_cm4.h ****   @{
 435:Generated_Source\PSoC6\pdl\cmsis/include/core_cm4.h ****  */
 436:Generated_Source\PSoC6\pdl\cmsis/include/core_cm4.h **** 
 437:Generated_Source\PSoC6\pdl\cmsis/include/core_cm4.h **** /**
 438:Generated_Source\PSoC6\pdl\cmsis/include/core_cm4.h ****   \brief  Structure type to access the System Control Block (SCB).
 439:Generated_Source\PSoC6\pdl\cmsis/include/core_cm4.h ****  */
 440:Generated_Source\PSoC6\pdl\cmsis/include/core_cm4.h **** typedef struct
 441:Generated_Source\PSoC6\pdl\cmsis/include/core_cm4.h **** {
 442:Generated_Source\PSoC6\pdl\cmsis/include/core_cm4.h ****   __IM  uint32_t CPUID;                  /*!< Offset: 0x000 (R/ )  CPUID Base Register */
 443:Generated_Source\PSoC6\pdl\cmsis/include/core_cm4.h ****   __IOM uint32_t ICSR;                   /*!< Offset: 0x004 (R/W)  Interrupt Control and State Regi
 444:Generated_Source\PSoC6\pdl\cmsis/include/core_cm4.h ****   __IOM uint32_t VTOR;                   /*!< Offset: 0x008 (R/W)  Vector Table Offset Register */
 445:Generated_Source\PSoC6\pdl\cmsis/include/core_cm4.h ****   __IOM uint32_t AIRCR;                  /*!< Offset: 0x00C (R/W)  Application Interrupt and Reset 
 446:Generated_Source\PSoC6\pdl\cmsis/include/core_cm4.h ****   __IOM uint32_t SCR;                    /*!< Offset: 0x010 (R/W)  System Control Register */
 447:Generated_Source\PSoC6\pdl\cmsis/include/core_cm4.h ****   __IOM uint32_t CCR;                    /*!< Offset: 0x014 (R/W)  Configuration Control Register *
 448:Generated_Source\PSoC6\pdl\cmsis/include/core_cm4.h ****   __IOM uint8_t  SHP[12U];               /*!< Offset: 0x018 (R/W)  System Handlers Priority Registe
 449:Generated_Source\PSoC6\pdl\cmsis/include/core_cm4.h ****   __IOM uint32_t SHCSR;                  /*!< Offset: 0x024 (R/W)  System Handler Control and State
 450:Generated_Source\PSoC6\pdl\cmsis/include/core_cm4.h ****   __IOM uint32_t CFSR;                   /*!< Offset: 0x028 (R/W)  Configurable Fault Status Regist
 451:Generated_Source\PSoC6\pdl\cmsis/include/core_cm4.h ****   __IOM uint32_t HFSR;                   /*!< Offset: 0x02C (R/W)  HardFault Status Register */
 452:Generated_Source\PSoC6\pdl\cmsis/include/core_cm4.h ****   __IOM uint32_t DFSR;                   /*!< Offset: 0x030 (R/W)  Debug Fault Status Register */
 453:Generated_Source\PSoC6\pdl\cmsis/include/core_cm4.h ****   __IOM uint32_t MMFAR;                  /*!< Offset: 0x034 (R/W)  MemManage Fault Address Register
 454:Generated_Source\PSoC6\pdl\cmsis/include/core_cm4.h ****   __IOM uint32_t BFAR;                   /*!< Offset: 0x038 (R/W)  BusFault Address Register */
 455:Generated_Source\PSoC6\pdl\cmsis/include/core_cm4.h ****   __IOM uint32_t AFSR;                   /*!< Offset: 0x03C (R/W)  Auxiliary Fault Status Register 
 456:Generated_Source\PSoC6\pdl\cmsis/include/core_cm4.h ****   __IM  uint32_t PFR[2U];                /*!< Offset: 0x040 (R/ )  Processor Feature Register */
 457:Generated_Source\PSoC6\pdl\cmsis/include/core_cm4.h ****   __IM  uint32_t DFR;                    /*!< Offset: 0x048 (R/ )  Debug Feature Register */
 458:Generated_Source\PSoC6\pdl\cmsis/include/core_cm4.h ****   __IM  uint32_t ADR;                    /*!< Offset: 0x04C (R/ )  Auxiliary Feature Register */
 459:Generated_Source\PSoC6\pdl\cmsis/include/core_cm4.h ****   __IM  uint32_t MMFR[4U];               /*!< Offset: 0x050 (R/ )  Memory Model Feature Register */
 460:Generated_Source\PSoC6\pdl\cmsis/include/core_cm4.h ****   __IM  uint32_t ISAR[5U];               /*!< Offset: 0x060 (R/ )  Instruction Set Attributes Regis
 461:Generated_Source\PSoC6\pdl\cmsis/include/core_cm4.h ****         uint32_t RESERVED0[5U];
 462:Generated_Source\PSoC6\pdl\cmsis/include/core_cm4.h ****   __IOM uint32_t CPACR;                  /*!< Offset: 0x088 (R/W)  Coprocessor Access Control Regis
 463:Generated_Source\PSoC6\pdl\cmsis/include/core_cm4.h **** } SCB_Type;
 464:Generated_Source\PSoC6\pdl\cmsis/include/core_cm4.h **** 
 465:Generated_Source\PSoC6\pdl\cmsis/include/core_cm4.h **** /* SCB CPUID Register Definitions */
 466:Generated_Source\PSoC6\pdl\cmsis/include/core_cm4.h **** #define SCB_CPUID_IMPLEMENTER_Pos          24U                                            /*!< SCB 
 467:Generated_Source\PSoC6\pdl\cmsis/include/core_cm4.h **** #define SCB_CPUID_IMPLEMENTER_Msk          (0xFFUL << SCB_CPUID_IMPLEMENTER_Pos)          /*!< SCB 
 468:Generated_Source\PSoC6\pdl\cmsis/include/core_cm4.h **** 
 469:Generated_Source\PSoC6\pdl\cmsis/include/core_cm4.h **** #define SCB_CPUID_VARIANT_Pos              20U                                            /*!< SCB 
 470:Generated_Source\PSoC6\pdl\cmsis/include/core_cm4.h **** #define SCB_CPUID_VARIANT_Msk              (0xFUL << SCB_CPUID_VARIANT_Pos)               /*!< SCB 
 471:Generated_Source\PSoC6\pdl\cmsis/include/core_cm4.h **** 
 472:Generated_Source\PSoC6\pdl\cmsis/include/core_cm4.h **** #define SCB_CPUID_ARCHITECTURE_Pos         16U                                            /*!< SCB 
 473:Generated_Source\PSoC6\pdl\cmsis/include/core_cm4.h **** #define SCB_CPUID_ARCHITECTURE_Msk         (0xFUL << SCB_CPUID_ARCHITECTURE_Pos)          /*!< SCB 
 474:Generated_Source\PSoC6\pdl\cmsis/include/core_cm4.h **** 
 475:Generated_Source\PSoC6\pdl\cmsis/include/core_cm4.h **** #define SCB_CPUID_PARTNO_Pos                4U                                            /*!< SCB 
 476:Generated_Source\PSoC6\pdl\cmsis/include/core_cm4.h **** #define SCB_CPUID_PARTNO_Msk               (0xFFFUL << SCB_CPUID_PARTNO_Pos)              /*!< SCB 
 477:Generated_Source\PSoC6\pdl\cmsis/include/core_cm4.h **** 
 478:Generated_Source\PSoC6\pdl\cmsis/include/core_cm4.h **** #define SCB_CPUID_REVISION_Pos              0U                                            /*!< SCB 
 479:Generated_Source\PSoC6\pdl\cmsis/include/core_cm4.h **** #define SCB_CPUID_REVISION_Msk             (0xFUL /*<< SCB_CPUID_REVISION_Pos*/)          /*!< SCB 
 480:Generated_Source\PSoC6\pdl\cmsis/include/core_cm4.h **** 
 481:Generated_Source\PSoC6\pdl\cmsis/include/core_cm4.h **** /* SCB Interrupt Control State Register Definitions */
 482:Generated_Source\PSoC6\pdl\cmsis/include/core_cm4.h **** #define SCB_ICSR_NMIPENDSET_Pos            31U                                            /*!< SCB 
 483:Generated_Source\PSoC6\pdl\cmsis/include/core_cm4.h **** #define SCB_ICSR_NMIPENDSET_Msk            (1UL << SCB_ICSR_NMIPENDSET_Pos)               /*!< SCB 
 484:Generated_Source\PSoC6\pdl\cmsis/include/core_cm4.h **** 
 485:Generated_Source\PSoC6\pdl\cmsis/include/core_cm4.h **** #define SCB_ICSR_PENDSVSET_Pos             28U                                            /*!< SCB 
 486:Generated_Source\PSoC6\pdl\cmsis/include/core_cm4.h **** #define SCB_ICSR_PENDSVSET_Msk             (1UL << SCB_ICSR_PENDSVSET_Pos)                /*!< SCB 
 487:Generated_Source\PSoC6\pdl\cmsis/include/core_cm4.h **** 
ARM GAS  C:\Users\yomat\AppData\Local\Temp\cc0omv11.s 			page 23


 488:Generated_Source\PSoC6\pdl\cmsis/include/core_cm4.h **** #define SCB_ICSR_PENDSVCLR_Pos             27U                                            /*!< SCB 
 489:Generated_Source\PSoC6\pdl\cmsis/include/core_cm4.h **** #define SCB_ICSR_PENDSVCLR_Msk             (1UL << SCB_ICSR_PENDSVCLR_Pos)                /*!< SCB 
 490:Generated_Source\PSoC6\pdl\cmsis/include/core_cm4.h **** 
 491:Generated_Source\PSoC6\pdl\cmsis/include/core_cm4.h **** #define SCB_ICSR_PENDSTSET_Pos             26U                                            /*!< SCB 
 492:Generated_Source\PSoC6\pdl\cmsis/include/core_cm4.h **** #define SCB_ICSR_PENDSTSET_Msk             (1UL << SCB_ICSR_PENDSTSET_Pos)                /*!< SCB 
 493:Generated_Source\PSoC6\pdl\cmsis/include/core_cm4.h **** 
 494:Generated_Source\PSoC6\pdl\cmsis/include/core_cm4.h **** #define SCB_ICSR_PENDSTCLR_Pos             25U                                            /*!< SCB 
 495:Generated_Source\PSoC6\pdl\cmsis/include/core_cm4.h **** #define SCB_ICSR_PENDSTCLR_Msk             (1UL << SCB_ICSR_PENDSTCLR_Pos)                /*!< SCB 
 496:Generated_Source\PSoC6\pdl\cmsis/include/core_cm4.h **** 
 497:Generated_Source\PSoC6\pdl\cmsis/include/core_cm4.h **** #define SCB_ICSR_ISRPREEMPT_Pos            23U                                            /*!< SCB 
 498:Generated_Source\PSoC6\pdl\cmsis/include/core_cm4.h **** #define SCB_ICSR_ISRPREEMPT_Msk            (1UL << SCB_ICSR_ISRPREEMPT_Pos)               /*!< SCB 
 499:Generated_Source\PSoC6\pdl\cmsis/include/core_cm4.h **** 
 500:Generated_Source\PSoC6\pdl\cmsis/include/core_cm4.h **** #define SCB_ICSR_ISRPENDING_Pos            22U                                            /*!< SCB 
 501:Generated_Source\PSoC6\pdl\cmsis/include/core_cm4.h **** #define SCB_ICSR_ISRPENDING_Msk            (1UL << SCB_ICSR_ISRPENDING_Pos)               /*!< SCB 
 502:Generated_Source\PSoC6\pdl\cmsis/include/core_cm4.h **** 
 503:Generated_Source\PSoC6\pdl\cmsis/include/core_cm4.h **** #define SCB_ICSR_VECTPENDING_Pos           12U                                            /*!< SCB 
 504:Generated_Source\PSoC6\pdl\cmsis/include/core_cm4.h **** #define SCB_ICSR_VECTPENDING_Msk           (0x1FFUL << SCB_ICSR_VECTPENDING_Pos)          /*!< SCB 
 505:Generated_Source\PSoC6\pdl\cmsis/include/core_cm4.h **** 
 506:Generated_Source\PSoC6\pdl\cmsis/include/core_cm4.h **** #define SCB_ICSR_RETTOBASE_Pos             11U                                            /*!< SCB 
 507:Generated_Source\PSoC6\pdl\cmsis/include/core_cm4.h **** #define SCB_ICSR_RETTOBASE_Msk             (1UL << SCB_ICSR_RETTOBASE_Pos)                /*!< SCB 
 508:Generated_Source\PSoC6\pdl\cmsis/include/core_cm4.h **** 
 509:Generated_Source\PSoC6\pdl\cmsis/include/core_cm4.h **** #define SCB_ICSR_VECTACTIVE_Pos             0U                                            /*!< SCB 
 510:Generated_Source\PSoC6\pdl\cmsis/include/core_cm4.h **** #define SCB_ICSR_VECTACTIVE_Msk            (0x1FFUL /*<< SCB_ICSR_VECTACTIVE_Pos*/)       /*!< SCB 
 511:Generated_Source\PSoC6\pdl\cmsis/include/core_cm4.h **** 
 512:Generated_Source\PSoC6\pdl\cmsis/include/core_cm4.h **** /* SCB Vector Table Offset Register Definitions */
 513:Generated_Source\PSoC6\pdl\cmsis/include/core_cm4.h **** #define SCB_VTOR_TBLOFF_Pos                 7U                                            /*!< SCB 
 514:Generated_Source\PSoC6\pdl\cmsis/include/core_cm4.h **** #define SCB_VTOR_TBLOFF_Msk                (0x1FFFFFFUL << SCB_VTOR_TBLOFF_Pos)           /*!< SCB 
 515:Generated_Source\PSoC6\pdl\cmsis/include/core_cm4.h **** 
 516:Generated_Source\PSoC6\pdl\cmsis/include/core_cm4.h **** /* SCB Application Interrupt and Reset Control Register Definitions */
 517:Generated_Source\PSoC6\pdl\cmsis/include/core_cm4.h **** #define SCB_AIRCR_VECTKEY_Pos              16U                                            /*!< SCB 
 518:Generated_Source\PSoC6\pdl\cmsis/include/core_cm4.h **** #define SCB_AIRCR_VECTKEY_Msk              (0xFFFFUL << SCB_AIRCR_VECTKEY_Pos)            /*!< SCB 
 519:Generated_Source\PSoC6\pdl\cmsis/include/core_cm4.h **** 
 520:Generated_Source\PSoC6\pdl\cmsis/include/core_cm4.h **** #define SCB_AIRCR_VECTKEYSTAT_Pos          16U                                            /*!< SCB 
 521:Generated_Source\PSoC6\pdl\cmsis/include/core_cm4.h **** #define SCB_AIRCR_VECTKEYSTAT_Msk          (0xFFFFUL << SCB_AIRCR_VECTKEYSTAT_Pos)        /*!< SCB 
 522:Generated_Source\PSoC6\pdl\cmsis/include/core_cm4.h **** 
 523:Generated_Source\PSoC6\pdl\cmsis/include/core_cm4.h **** #define SCB_AIRCR_ENDIANESS_Pos            15U                                            /*!< SCB 
 524:Generated_Source\PSoC6\pdl\cmsis/include/core_cm4.h **** #define SCB_AIRCR_ENDIANESS_Msk            (1UL << SCB_AIRCR_ENDIANESS_Pos)               /*!< SCB 
 525:Generated_Source\PSoC6\pdl\cmsis/include/core_cm4.h **** 
 526:Generated_Source\PSoC6\pdl\cmsis/include/core_cm4.h **** #define SCB_AIRCR_PRIGROUP_Pos              8U                                            /*!< SCB 
 527:Generated_Source\PSoC6\pdl\cmsis/include/core_cm4.h **** #define SCB_AIRCR_PRIGROUP_Msk             (7UL << SCB_AIRCR_PRIGROUP_Pos)                /*!< SCB 
 528:Generated_Source\PSoC6\pdl\cmsis/include/core_cm4.h **** 
 529:Generated_Source\PSoC6\pdl\cmsis/include/core_cm4.h **** #define SCB_AIRCR_SYSRESETREQ_Pos           2U                                            /*!< SCB 
 530:Generated_Source\PSoC6\pdl\cmsis/include/core_cm4.h **** #define SCB_AIRCR_SYSRESETREQ_Msk          (1UL << SCB_AIRCR_SYSRESETREQ_Pos)             /*!< SCB 
 531:Generated_Source\PSoC6\pdl\cmsis/include/core_cm4.h **** 
 532:Generated_Source\PSoC6\pdl\cmsis/include/core_cm4.h **** #define SCB_AIRCR_VECTCLRACTIVE_Pos         1U                                            /*!< SCB 
 533:Generated_Source\PSoC6\pdl\cmsis/include/core_cm4.h **** #define SCB_AIRCR_VECTCLRACTIVE_Msk        (1UL << SCB_AIRCR_VECTCLRACTIVE_Pos)           /*!< SCB 
 534:Generated_Source\PSoC6\pdl\cmsis/include/core_cm4.h **** 
 535:Generated_Source\PSoC6\pdl\cmsis/include/core_cm4.h **** #define SCB_AIRCR_VECTRESET_Pos             0U                                            /*!< SCB 
 536:Generated_Source\PSoC6\pdl\cmsis/include/core_cm4.h **** #define SCB_AIRCR_VECTRESET_Msk            (1UL /*<< SCB_AIRCR_VECTRESET_Pos*/)           /*!< SCB 
 537:Generated_Source\PSoC6\pdl\cmsis/include/core_cm4.h **** 
 538:Generated_Source\PSoC6\pdl\cmsis/include/core_cm4.h **** /* SCB System Control Register Definitions */
 539:Generated_Source\PSoC6\pdl\cmsis/include/core_cm4.h **** #define SCB_SCR_SEVONPEND_Pos               4U                                            /*!< SCB 
 540:Generated_Source\PSoC6\pdl\cmsis/include/core_cm4.h **** #define SCB_SCR_SEVONPEND_Msk              (1UL << SCB_SCR_SEVONPEND_Pos)                 /*!< SCB 
 541:Generated_Source\PSoC6\pdl\cmsis/include/core_cm4.h **** 
 542:Generated_Source\PSoC6\pdl\cmsis/include/core_cm4.h **** #define SCB_SCR_SLEEPDEEP_Pos               2U                                            /*!< SCB 
 543:Generated_Source\PSoC6\pdl\cmsis/include/core_cm4.h **** #define SCB_SCR_SLEEPDEEP_Msk              (1UL << SCB_SCR_SLEEPDEEP_Pos)                 /*!< SCB 
 544:Generated_Source\PSoC6\pdl\cmsis/include/core_cm4.h **** 
ARM GAS  C:\Users\yomat\AppData\Local\Temp\cc0omv11.s 			page 24


 545:Generated_Source\PSoC6\pdl\cmsis/include/core_cm4.h **** #define SCB_SCR_SLEEPONEXIT_Pos             1U                                            /*!< SCB 
 546:Generated_Source\PSoC6\pdl\cmsis/include/core_cm4.h **** #define SCB_SCR_SLEEPONEXIT_Msk            (1UL << SCB_SCR_SLEEPONEXIT_Pos)               /*!< SCB 
 547:Generated_Source\PSoC6\pdl\cmsis/include/core_cm4.h **** 
 548:Generated_Source\PSoC6\pdl\cmsis/include/core_cm4.h **** /* SCB Configuration Control Register Definitions */
 549:Generated_Source\PSoC6\pdl\cmsis/include/core_cm4.h **** #define SCB_CCR_STKALIGN_Pos                9U                                            /*!< SCB 
 550:Generated_Source\PSoC6\pdl\cmsis/include/core_cm4.h **** #define SCB_CCR_STKALIGN_Msk               (1UL << SCB_CCR_STKALIGN_Pos)                  /*!< SCB 
 551:Generated_Source\PSoC6\pdl\cmsis/include/core_cm4.h **** 
 552:Generated_Source\PSoC6\pdl\cmsis/include/core_cm4.h **** #define SCB_CCR_BFHFNMIGN_Pos               8U                                            /*!< SCB 
 553:Generated_Source\PSoC6\pdl\cmsis/include/core_cm4.h **** #define SCB_CCR_BFHFNMIGN_Msk              (1UL << SCB_CCR_BFHFNMIGN_Pos)                 /*!< SCB 
 554:Generated_Source\PSoC6\pdl\cmsis/include/core_cm4.h **** 
 555:Generated_Source\PSoC6\pdl\cmsis/include/core_cm4.h **** #define SCB_CCR_DIV_0_TRP_Pos               4U                                            /*!< SCB 
 556:Generated_Source\PSoC6\pdl\cmsis/include/core_cm4.h **** #define SCB_CCR_DIV_0_TRP_Msk              (1UL << SCB_CCR_DIV_0_TRP_Pos)                 /*!< SCB 
 557:Generated_Source\PSoC6\pdl\cmsis/include/core_cm4.h **** 
 558:Generated_Source\PSoC6\pdl\cmsis/include/core_cm4.h **** #define SCB_CCR_UNALIGN_TRP_Pos             3U                                            /*!< SCB 
 559:Generated_Source\PSoC6\pdl\cmsis/include/core_cm4.h **** #define SCB_CCR_UNALIGN_TRP_Msk            (1UL << SCB_CCR_UNALIGN_TRP_Pos)               /*!< SCB 
 560:Generated_Source\PSoC6\pdl\cmsis/include/core_cm4.h **** 
 561:Generated_Source\PSoC6\pdl\cmsis/include/core_cm4.h **** #define SCB_CCR_USERSETMPEND_Pos            1U                                            /*!< SCB 
 562:Generated_Source\PSoC6\pdl\cmsis/include/core_cm4.h **** #define SCB_CCR_USERSETMPEND_Msk           (1UL << SCB_CCR_USERSETMPEND_Pos)              /*!< SCB 
 563:Generated_Source\PSoC6\pdl\cmsis/include/core_cm4.h **** 
 564:Generated_Source\PSoC6\pdl\cmsis/include/core_cm4.h **** #define SCB_CCR_NONBASETHRDENA_Pos          0U                                            /*!< SCB 
 565:Generated_Source\PSoC6\pdl\cmsis/include/core_cm4.h **** #define SCB_CCR_NONBASETHRDENA_Msk         (1UL /*<< SCB_CCR_NONBASETHRDENA_Pos*/)        /*!< SCB 
 566:Generated_Source\PSoC6\pdl\cmsis/include/core_cm4.h **** 
 567:Generated_Source\PSoC6\pdl\cmsis/include/core_cm4.h **** /* SCB System Handler Control and State Register Definitions */
 568:Generated_Source\PSoC6\pdl\cmsis/include/core_cm4.h **** #define SCB_SHCSR_USGFAULTENA_Pos          18U                                            /*!< SCB 
 569:Generated_Source\PSoC6\pdl\cmsis/include/core_cm4.h **** #define SCB_SHCSR_USGFAULTENA_Msk          (1UL << SCB_SHCSR_USGFAULTENA_Pos)             /*!< SCB 
 570:Generated_Source\PSoC6\pdl\cmsis/include/core_cm4.h **** 
 571:Generated_Source\PSoC6\pdl\cmsis/include/core_cm4.h **** #define SCB_SHCSR_BUSFAULTENA_Pos          17U                                            /*!< SCB 
 572:Generated_Source\PSoC6\pdl\cmsis/include/core_cm4.h **** #define SCB_SHCSR_BUSFAULTENA_Msk          (1UL << SCB_SHCSR_BUSFAULTENA_Pos)             /*!< SCB 
 573:Generated_Source\PSoC6\pdl\cmsis/include/core_cm4.h **** 
 574:Generated_Source\PSoC6\pdl\cmsis/include/core_cm4.h **** #define SCB_SHCSR_MEMFAULTENA_Pos          16U                                            /*!< SCB 
 575:Generated_Source\PSoC6\pdl\cmsis/include/core_cm4.h **** #define SCB_SHCSR_MEMFAULTENA_Msk          (1UL << SCB_SHCSR_MEMFAULTENA_Pos)             /*!< SCB 
 576:Generated_Source\PSoC6\pdl\cmsis/include/core_cm4.h **** 
 577:Generated_Source\PSoC6\pdl\cmsis/include/core_cm4.h **** #define SCB_SHCSR_SVCALLPENDED_Pos         15U                                            /*!< SCB 
 578:Generated_Source\PSoC6\pdl\cmsis/include/core_cm4.h **** #define SCB_SHCSR_SVCALLPENDED_Msk         (1UL << SCB_SHCSR_SVCALLPENDED_Pos)            /*!< SCB 
 579:Generated_Source\PSoC6\pdl\cmsis/include/core_cm4.h **** 
 580:Generated_Source\PSoC6\pdl\cmsis/include/core_cm4.h **** #define SCB_SHCSR_BUSFAULTPENDED_Pos       14U                                            /*!< SCB 
 581:Generated_Source\PSoC6\pdl\cmsis/include/core_cm4.h **** #define SCB_SHCSR_BUSFAULTPENDED_Msk       (1UL << SCB_SHCSR_BUSFAULTPENDED_Pos)          /*!< SCB 
 582:Generated_Source\PSoC6\pdl\cmsis/include/core_cm4.h **** 
 583:Generated_Source\PSoC6\pdl\cmsis/include/core_cm4.h **** #define SCB_SHCSR_MEMFAULTPENDED_Pos       13U                                            /*!< SCB 
 584:Generated_Source\PSoC6\pdl\cmsis/include/core_cm4.h **** #define SCB_SHCSR_MEMFAULTPENDED_Msk       (1UL << SCB_SHCSR_MEMFAULTPENDED_Pos)          /*!< SCB 
 585:Generated_Source\PSoC6\pdl\cmsis/include/core_cm4.h **** 
 586:Generated_Source\PSoC6\pdl\cmsis/include/core_cm4.h **** #define SCB_SHCSR_USGFAULTPENDED_Pos       12U                                            /*!< SCB 
 587:Generated_Source\PSoC6\pdl\cmsis/include/core_cm4.h **** #define SCB_SHCSR_USGFAULTPENDED_Msk       (1UL << SCB_SHCSR_USGFAULTPENDED_Pos)          /*!< SCB 
 588:Generated_Source\PSoC6\pdl\cmsis/include/core_cm4.h **** 
 589:Generated_Source\PSoC6\pdl\cmsis/include/core_cm4.h **** #define SCB_SHCSR_SYSTICKACT_Pos           11U                                            /*!< SCB 
 590:Generated_Source\PSoC6\pdl\cmsis/include/core_cm4.h **** #define SCB_SHCSR_SYSTICKACT_Msk           (1UL << SCB_SHCSR_SYSTICKACT_Pos)              /*!< SCB 
 591:Generated_Source\PSoC6\pdl\cmsis/include/core_cm4.h **** 
 592:Generated_Source\PSoC6\pdl\cmsis/include/core_cm4.h **** #define SCB_SHCSR_PENDSVACT_Pos            10U                                            /*!< SCB 
 593:Generated_Source\PSoC6\pdl\cmsis/include/core_cm4.h **** #define SCB_SHCSR_PENDSVACT_Msk            (1UL << SCB_SHCSR_PENDSVACT_Pos)               /*!< SCB 
 594:Generated_Source\PSoC6\pdl\cmsis/include/core_cm4.h **** 
 595:Generated_Source\PSoC6\pdl\cmsis/include/core_cm4.h **** #define SCB_SHCSR_MONITORACT_Pos            8U                                            /*!< SCB 
 596:Generated_Source\PSoC6\pdl\cmsis/include/core_cm4.h **** #define SCB_SHCSR_MONITORACT_Msk           (1UL << SCB_SHCSR_MONITORACT_Pos)              /*!< SCB 
 597:Generated_Source\PSoC6\pdl\cmsis/include/core_cm4.h **** 
 598:Generated_Source\PSoC6\pdl\cmsis/include/core_cm4.h **** #define SCB_SHCSR_SVCALLACT_Pos             7U                                            /*!< SCB 
 599:Generated_Source\PSoC6\pdl\cmsis/include/core_cm4.h **** #define SCB_SHCSR_SVCALLACT_Msk            (1UL << SCB_SHCSR_SVCALLACT_Pos)               /*!< SCB 
 600:Generated_Source\PSoC6\pdl\cmsis/include/core_cm4.h **** 
 601:Generated_Source\PSoC6\pdl\cmsis/include/core_cm4.h **** #define SCB_SHCSR_USGFAULTACT_Pos           3U                                            /*!< SCB 
ARM GAS  C:\Users\yomat\AppData\Local\Temp\cc0omv11.s 			page 25


 602:Generated_Source\PSoC6\pdl\cmsis/include/core_cm4.h **** #define SCB_SHCSR_USGFAULTACT_Msk          (1UL << SCB_SHCSR_USGFAULTACT_Pos)             /*!< SCB 
 603:Generated_Source\PSoC6\pdl\cmsis/include/core_cm4.h **** 
 604:Generated_Source\PSoC6\pdl\cmsis/include/core_cm4.h **** #define SCB_SHCSR_BUSFAULTACT_Pos           1U                                            /*!< SCB 
 605:Generated_Source\PSoC6\pdl\cmsis/include/core_cm4.h **** #define SCB_SHCSR_BUSFAULTACT_Msk          (1UL << SCB_SHCSR_BUSFAULTACT_Pos)             /*!< SCB 
 606:Generated_Source\PSoC6\pdl\cmsis/include/core_cm4.h **** 
 607:Generated_Source\PSoC6\pdl\cmsis/include/core_cm4.h **** #define SCB_SHCSR_MEMFAULTACT_Pos           0U                                            /*!< SCB 
 608:Generated_Source\PSoC6\pdl\cmsis/include/core_cm4.h **** #define SCB_SHCSR_MEMFAULTACT_Msk          (1UL /*<< SCB_SHCSR_MEMFAULTACT_Pos*/)         /*!< SCB 
 609:Generated_Source\PSoC6\pdl\cmsis/include/core_cm4.h **** 
 610:Generated_Source\PSoC6\pdl\cmsis/include/core_cm4.h **** /* SCB Configurable Fault Status Register Definitions */
 611:Generated_Source\PSoC6\pdl\cmsis/include/core_cm4.h **** #define SCB_CFSR_USGFAULTSR_Pos            16U                                            /*!< SCB 
 612:Generated_Source\PSoC6\pdl\cmsis/include/core_cm4.h **** #define SCB_CFSR_USGFAULTSR_Msk            (0xFFFFUL << SCB_CFSR_USGFAULTSR_Pos)          /*!< SCB 
 613:Generated_Source\PSoC6\pdl\cmsis/include/core_cm4.h **** 
 614:Generated_Source\PSoC6\pdl\cmsis/include/core_cm4.h **** #define SCB_CFSR_BUSFAULTSR_Pos             8U                                            /*!< SCB 
 615:Generated_Source\PSoC6\pdl\cmsis/include/core_cm4.h **** #define SCB_CFSR_BUSFAULTSR_Msk            (0xFFUL << SCB_CFSR_BUSFAULTSR_Pos)            /*!< SCB 
 616:Generated_Source\PSoC6\pdl\cmsis/include/core_cm4.h **** 
 617:Generated_Source\PSoC6\pdl\cmsis/include/core_cm4.h **** #define SCB_CFSR_MEMFAULTSR_Pos             0U                                            /*!< SCB 
 618:Generated_Source\PSoC6\pdl\cmsis/include/core_cm4.h **** #define SCB_CFSR_MEMFAULTSR_Msk            (0xFFUL /*<< SCB_CFSR_MEMFAULTSR_Pos*/)        /*!< SCB 
 619:Generated_Source\PSoC6\pdl\cmsis/include/core_cm4.h **** 
 620:Generated_Source\PSoC6\pdl\cmsis/include/core_cm4.h **** /* MemManage Fault Status Register (part of SCB Configurable Fault Status Register) */
 621:Generated_Source\PSoC6\pdl\cmsis/include/core_cm4.h **** #define SCB_CFSR_MMARVALID_Pos             (SCB_SHCSR_MEMFAULTACT_Pos + 7U)               /*!< SCB 
 622:Generated_Source\PSoC6\pdl\cmsis/include/core_cm4.h **** #define SCB_CFSR_MMARVALID_Msk             (1UL << SCB_CFSR_MMARVALID_Pos)                /*!< SCB 
 623:Generated_Source\PSoC6\pdl\cmsis/include/core_cm4.h **** 
 624:Generated_Source\PSoC6\pdl\cmsis/include/core_cm4.h **** #define SCB_CFSR_MLSPERR_Pos               (SCB_SHCSR_MEMFAULTACT_Pos + 5U)               /*!< SCB 
 625:Generated_Source\PSoC6\pdl\cmsis/include/core_cm4.h **** #define SCB_CFSR_MLSPERR_Msk               (1UL << SCB_CFSR_MLSPERR_Pos)                  /*!< SCB 
 626:Generated_Source\PSoC6\pdl\cmsis/include/core_cm4.h **** 
 627:Generated_Source\PSoC6\pdl\cmsis/include/core_cm4.h **** #define SCB_CFSR_MSTKERR_Pos               (SCB_SHCSR_MEMFAULTACT_Pos + 4U)               /*!< SCB 
 628:Generated_Source\PSoC6\pdl\cmsis/include/core_cm4.h **** #define SCB_CFSR_MSTKERR_Msk               (1UL << SCB_CFSR_MSTKERR_Pos)                  /*!< SCB 
 629:Generated_Source\PSoC6\pdl\cmsis/include/core_cm4.h **** 
 630:Generated_Source\PSoC6\pdl\cmsis/include/core_cm4.h **** #define SCB_CFSR_MUNSTKERR_Pos             (SCB_SHCSR_MEMFAULTACT_Pos + 3U)               /*!< SCB 
 631:Generated_Source\PSoC6\pdl\cmsis/include/core_cm4.h **** #define SCB_CFSR_MUNSTKERR_Msk             (1UL << SCB_CFSR_MUNSTKERR_Pos)                /*!< SCB 
 632:Generated_Source\PSoC6\pdl\cmsis/include/core_cm4.h **** 
 633:Generated_Source\PSoC6\pdl\cmsis/include/core_cm4.h **** #define SCB_CFSR_DACCVIOL_Pos              (SCB_SHCSR_MEMFAULTACT_Pos + 1U)               /*!< SCB 
 634:Generated_Source\PSoC6\pdl\cmsis/include/core_cm4.h **** #define SCB_CFSR_DACCVIOL_Msk              (1UL << SCB_CFSR_DACCVIOL_Pos)                 /*!< SCB 
 635:Generated_Source\PSoC6\pdl\cmsis/include/core_cm4.h **** 
 636:Generated_Source\PSoC6\pdl\cmsis/include/core_cm4.h **** #define SCB_CFSR_IACCVIOL_Pos              (SCB_SHCSR_MEMFAULTACT_Pos + 0U)               /*!< SCB 
 637:Generated_Source\PSoC6\pdl\cmsis/include/core_cm4.h **** #define SCB_CFSR_IACCVIOL_Msk              (1UL /*<< SCB_CFSR_IACCVIOL_Pos*/)             /*!< SCB 
 638:Generated_Source\PSoC6\pdl\cmsis/include/core_cm4.h **** 
 639:Generated_Source\PSoC6\pdl\cmsis/include/core_cm4.h **** /* BusFault Status Register (part of SCB Configurable Fault Status Register) */
 640:Generated_Source\PSoC6\pdl\cmsis/include/core_cm4.h **** #define SCB_CFSR_BFARVALID_Pos            (SCB_CFSR_BUSFAULTSR_Pos + 7U)                  /*!< SCB 
 641:Generated_Source\PSoC6\pdl\cmsis/include/core_cm4.h **** #define SCB_CFSR_BFARVALID_Msk            (1UL << SCB_CFSR_BFARVALID_Pos)                 /*!< SCB 
 642:Generated_Source\PSoC6\pdl\cmsis/include/core_cm4.h **** 
 643:Generated_Source\PSoC6\pdl\cmsis/include/core_cm4.h **** #define SCB_CFSR_LSPERR_Pos               (SCB_CFSR_BUSFAULTSR_Pos + 5U)                  /*!< SCB 
 644:Generated_Source\PSoC6\pdl\cmsis/include/core_cm4.h **** #define SCB_CFSR_LSPERR_Msk               (1UL << SCB_CFSR_LSPERR_Pos)                    /*!< SCB 
 645:Generated_Source\PSoC6\pdl\cmsis/include/core_cm4.h **** 
 646:Generated_Source\PSoC6\pdl\cmsis/include/core_cm4.h **** #define SCB_CFSR_STKERR_Pos               (SCB_CFSR_BUSFAULTSR_Pos + 4U)                  /*!< SCB 
 647:Generated_Source\PSoC6\pdl\cmsis/include/core_cm4.h **** #define SCB_CFSR_STKERR_Msk               (1UL << SCB_CFSR_STKERR_Pos)                    /*!< SCB 
 648:Generated_Source\PSoC6\pdl\cmsis/include/core_cm4.h **** 
 649:Generated_Source\PSoC6\pdl\cmsis/include/core_cm4.h **** #define SCB_CFSR_UNSTKERR_Pos             (SCB_CFSR_BUSFAULTSR_Pos + 3U)                  /*!< SCB 
 650:Generated_Source\PSoC6\pdl\cmsis/include/core_cm4.h **** #define SCB_CFSR_UNSTKERR_Msk             (1UL << SCB_CFSR_UNSTKERR_Pos)                  /*!< SCB 
 651:Generated_Source\PSoC6\pdl\cmsis/include/core_cm4.h **** 
 652:Generated_Source\PSoC6\pdl\cmsis/include/core_cm4.h **** #define SCB_CFSR_IMPRECISERR_Pos          (SCB_CFSR_BUSFAULTSR_Pos + 2U)                  /*!< SCB 
 653:Generated_Source\PSoC6\pdl\cmsis/include/core_cm4.h **** #define SCB_CFSR_IMPRECISERR_Msk          (1UL << SCB_CFSR_IMPRECISERR_Pos)               /*!< SCB 
 654:Generated_Source\PSoC6\pdl\cmsis/include/core_cm4.h **** 
 655:Generated_Source\PSoC6\pdl\cmsis/include/core_cm4.h **** #define SCB_CFSR_PRECISERR_Pos            (SCB_CFSR_BUSFAULTSR_Pos + 1U)                  /*!< SCB 
 656:Generated_Source\PSoC6\pdl\cmsis/include/core_cm4.h **** #define SCB_CFSR_PRECISERR_Msk            (1UL << SCB_CFSR_PRECISERR_Pos)                 /*!< SCB 
 657:Generated_Source\PSoC6\pdl\cmsis/include/core_cm4.h **** 
 658:Generated_Source\PSoC6\pdl\cmsis/include/core_cm4.h **** #define SCB_CFSR_IBUSERR_Pos              (SCB_CFSR_BUSFAULTSR_Pos + 0U)                  /*!< SCB 
ARM GAS  C:\Users\yomat\AppData\Local\Temp\cc0omv11.s 			page 26


 659:Generated_Source\PSoC6\pdl\cmsis/include/core_cm4.h **** #define SCB_CFSR_IBUSERR_Msk              (1UL << SCB_CFSR_IBUSERR_Pos)                   /*!< SCB 
 660:Generated_Source\PSoC6\pdl\cmsis/include/core_cm4.h **** 
 661:Generated_Source\PSoC6\pdl\cmsis/include/core_cm4.h **** /* UsageFault Status Register (part of SCB Configurable Fault Status Register) */
 662:Generated_Source\PSoC6\pdl\cmsis/include/core_cm4.h **** #define SCB_CFSR_DIVBYZERO_Pos            (SCB_CFSR_USGFAULTSR_Pos + 9U)                  /*!< SCB 
 663:Generated_Source\PSoC6\pdl\cmsis/include/core_cm4.h **** #define SCB_CFSR_DIVBYZERO_Msk            (1UL << SCB_CFSR_DIVBYZERO_Pos)                 /*!< SCB 
 664:Generated_Source\PSoC6\pdl\cmsis/include/core_cm4.h **** 
 665:Generated_Source\PSoC6\pdl\cmsis/include/core_cm4.h **** #define SCB_CFSR_UNALIGNED_Pos            (SCB_CFSR_USGFAULTSR_Pos + 8U)                  /*!< SCB 
 666:Generated_Source\PSoC6\pdl\cmsis/include/core_cm4.h **** #define SCB_CFSR_UNALIGNED_Msk            (1UL << SCB_CFSR_UNALIGNED_Pos)                 /*!< SCB 
 667:Generated_Source\PSoC6\pdl\cmsis/include/core_cm4.h **** 
 668:Generated_Source\PSoC6\pdl\cmsis/include/core_cm4.h **** #define SCB_CFSR_NOCP_Pos                 (SCB_CFSR_USGFAULTSR_Pos + 3U)                  /*!< SCB 
 669:Generated_Source\PSoC6\pdl\cmsis/include/core_cm4.h **** #define SCB_CFSR_NOCP_Msk                 (1UL << SCB_CFSR_NOCP_Pos)                      /*!< SCB 
 670:Generated_Source\PSoC6\pdl\cmsis/include/core_cm4.h **** 
 671:Generated_Source\PSoC6\pdl\cmsis/include/core_cm4.h **** #define SCB_CFSR_INVPC_Pos                (SCB_CFSR_USGFAULTSR_Pos + 2U)                  /*!< SCB 
 672:Generated_Source\PSoC6\pdl\cmsis/include/core_cm4.h **** #define SCB_CFSR_INVPC_Msk                (1UL << SCB_CFSR_INVPC_Pos)                     /*!< SCB 
 673:Generated_Source\PSoC6\pdl\cmsis/include/core_cm4.h **** 
 674:Generated_Source\PSoC6\pdl\cmsis/include/core_cm4.h **** #define SCB_CFSR_INVSTATE_Pos             (SCB_CFSR_USGFAULTSR_Pos + 1U)                  /*!< SCB 
 675:Generated_Source\PSoC6\pdl\cmsis/include/core_cm4.h **** #define SCB_CFSR_INVSTATE_Msk             (1UL << SCB_CFSR_INVSTATE_Pos)                  /*!< SCB 
 676:Generated_Source\PSoC6\pdl\cmsis/include/core_cm4.h **** 
 677:Generated_Source\PSoC6\pdl\cmsis/include/core_cm4.h **** #define SCB_CFSR_UNDEFINSTR_Pos           (SCB_CFSR_USGFAULTSR_Pos + 0U)                  /*!< SCB 
 678:Generated_Source\PSoC6\pdl\cmsis/include/core_cm4.h **** #define SCB_CFSR_UNDEFINSTR_Msk           (1UL << SCB_CFSR_UNDEFINSTR_Pos)                /*!< SCB 
 679:Generated_Source\PSoC6\pdl\cmsis/include/core_cm4.h **** 
 680:Generated_Source\PSoC6\pdl\cmsis/include/core_cm4.h **** /* SCB Hard Fault Status Register Definitions */
 681:Generated_Source\PSoC6\pdl\cmsis/include/core_cm4.h **** #define SCB_HFSR_DEBUGEVT_Pos              31U                                            /*!< SCB 
 682:Generated_Source\PSoC6\pdl\cmsis/include/core_cm4.h **** #define SCB_HFSR_DEBUGEVT_Msk              (1UL << SCB_HFSR_DEBUGEVT_Pos)                 /*!< SCB 
 683:Generated_Source\PSoC6\pdl\cmsis/include/core_cm4.h **** 
 684:Generated_Source\PSoC6\pdl\cmsis/include/core_cm4.h **** #define SCB_HFSR_FORCED_Pos                30U                                            /*!< SCB 
 685:Generated_Source\PSoC6\pdl\cmsis/include/core_cm4.h **** #define SCB_HFSR_FORCED_Msk                (1UL << SCB_HFSR_FORCED_Pos)                   /*!< SCB 
 686:Generated_Source\PSoC6\pdl\cmsis/include/core_cm4.h **** 
 687:Generated_Source\PSoC6\pdl\cmsis/include/core_cm4.h **** #define SCB_HFSR_VECTTBL_Pos                1U                                            /*!< SCB 
 688:Generated_Source\PSoC6\pdl\cmsis/include/core_cm4.h **** #define SCB_HFSR_VECTTBL_Msk               (1UL << SCB_HFSR_VECTTBL_Pos)                  /*!< SCB 
 689:Generated_Source\PSoC6\pdl\cmsis/include/core_cm4.h **** 
 690:Generated_Source\PSoC6\pdl\cmsis/include/core_cm4.h **** /* SCB Debug Fault Status Register Definitions */
 691:Generated_Source\PSoC6\pdl\cmsis/include/core_cm4.h **** #define SCB_DFSR_EXTERNAL_Pos               4U                                            /*!< SCB 
 692:Generated_Source\PSoC6\pdl\cmsis/include/core_cm4.h **** #define SCB_DFSR_EXTERNAL_Msk              (1UL << SCB_DFSR_EXTERNAL_Pos)                 /*!< SCB 
 693:Generated_Source\PSoC6\pdl\cmsis/include/core_cm4.h **** 
 694:Generated_Source\PSoC6\pdl\cmsis/include/core_cm4.h **** #define SCB_DFSR_VCATCH_Pos                 3U                                            /*!< SCB 
 695:Generated_Source\PSoC6\pdl\cmsis/include/core_cm4.h **** #define SCB_DFSR_VCATCH_Msk                (1UL << SCB_DFSR_VCATCH_Pos)                   /*!< SCB 
 696:Generated_Source\PSoC6\pdl\cmsis/include/core_cm4.h **** 
 697:Generated_Source\PSoC6\pdl\cmsis/include/core_cm4.h **** #define SCB_DFSR_DWTTRAP_Pos                2U                                            /*!< SCB 
 698:Generated_Source\PSoC6\pdl\cmsis/include/core_cm4.h **** #define SCB_DFSR_DWTTRAP_Msk               (1UL << SCB_DFSR_DWTTRAP_Pos)                  /*!< SCB 
 699:Generated_Source\PSoC6\pdl\cmsis/include/core_cm4.h **** 
 700:Generated_Source\PSoC6\pdl\cmsis/include/core_cm4.h **** #define SCB_DFSR_BKPT_Pos                   1U                                            /*!< SCB 
 701:Generated_Source\PSoC6\pdl\cmsis/include/core_cm4.h **** #define SCB_DFSR_BKPT_Msk                  (1UL << SCB_DFSR_BKPT_Pos)                     /*!< SCB 
 702:Generated_Source\PSoC6\pdl\cmsis/include/core_cm4.h **** 
 703:Generated_Source\PSoC6\pdl\cmsis/include/core_cm4.h **** #define SCB_DFSR_HALTED_Pos                 0U                                            /*!< SCB 
 704:Generated_Source\PSoC6\pdl\cmsis/include/core_cm4.h **** #define SCB_DFSR_HALTED_Msk                (1UL /*<< SCB_DFSR_HALTED_Pos*/)               /*!< SCB 
 705:Generated_Source\PSoC6\pdl\cmsis/include/core_cm4.h **** 
 706:Generated_Source\PSoC6\pdl\cmsis/include/core_cm4.h **** /*@} end of group CMSIS_SCB */
 707:Generated_Source\PSoC6\pdl\cmsis/include/core_cm4.h **** 
 708:Generated_Source\PSoC6\pdl\cmsis/include/core_cm4.h **** 
 709:Generated_Source\PSoC6\pdl\cmsis/include/core_cm4.h **** /**
 710:Generated_Source\PSoC6\pdl\cmsis/include/core_cm4.h ****   \ingroup  CMSIS_core_register
 711:Generated_Source\PSoC6\pdl\cmsis/include/core_cm4.h ****   \defgroup CMSIS_SCnSCB System Controls not in SCB (SCnSCB)
 712:Generated_Source\PSoC6\pdl\cmsis/include/core_cm4.h ****   \brief    Type definitions for the System Control and ID Register not in the SCB
 713:Generated_Source\PSoC6\pdl\cmsis/include/core_cm4.h ****   @{
 714:Generated_Source\PSoC6\pdl\cmsis/include/core_cm4.h ****  */
 715:Generated_Source\PSoC6\pdl\cmsis/include/core_cm4.h **** 
ARM GAS  C:\Users\yomat\AppData\Local\Temp\cc0omv11.s 			page 27


 716:Generated_Source\PSoC6\pdl\cmsis/include/core_cm4.h **** /**
 717:Generated_Source\PSoC6\pdl\cmsis/include/core_cm4.h ****   \brief  Structure type to access the System Control and ID Register not in the SCB.
 718:Generated_Source\PSoC6\pdl\cmsis/include/core_cm4.h ****  */
 719:Generated_Source\PSoC6\pdl\cmsis/include/core_cm4.h **** typedef struct
 720:Generated_Source\PSoC6\pdl\cmsis/include/core_cm4.h **** {
 721:Generated_Source\PSoC6\pdl\cmsis/include/core_cm4.h ****         uint32_t RESERVED0[1U];
 722:Generated_Source\PSoC6\pdl\cmsis/include/core_cm4.h ****   __IM  uint32_t ICTR;                   /*!< Offset: 0x004 (R/ )  Interrupt Controller Type Regist
 723:Generated_Source\PSoC6\pdl\cmsis/include/core_cm4.h ****   __IOM uint32_t ACTLR;                  /*!< Offset: 0x008 (R/W)  Auxiliary Control Register */
 724:Generated_Source\PSoC6\pdl\cmsis/include/core_cm4.h **** } SCnSCB_Type;
 725:Generated_Source\PSoC6\pdl\cmsis/include/core_cm4.h **** 
 726:Generated_Source\PSoC6\pdl\cmsis/include/core_cm4.h **** /* Interrupt Controller Type Register Definitions */
 727:Generated_Source\PSoC6\pdl\cmsis/include/core_cm4.h **** #define SCnSCB_ICTR_INTLINESNUM_Pos         0U                                         /*!< ICTR: I
 728:Generated_Source\PSoC6\pdl\cmsis/include/core_cm4.h **** #define SCnSCB_ICTR_INTLINESNUM_Msk        (0xFUL /*<< SCnSCB_ICTR_INTLINESNUM_Pos*/)  /*!< ICTR: I
 729:Generated_Source\PSoC6\pdl\cmsis/include/core_cm4.h **** 
 730:Generated_Source\PSoC6\pdl\cmsis/include/core_cm4.h **** /* Auxiliary Control Register Definitions */
 731:Generated_Source\PSoC6\pdl\cmsis/include/core_cm4.h **** #define SCnSCB_ACTLR_DISOOFP_Pos            9U                                         /*!< ACTLR: 
 732:Generated_Source\PSoC6\pdl\cmsis/include/core_cm4.h **** #define SCnSCB_ACTLR_DISOOFP_Msk           (1UL << SCnSCB_ACTLR_DISOOFP_Pos)           /*!< ACTLR: 
 733:Generated_Source\PSoC6\pdl\cmsis/include/core_cm4.h **** 
 734:Generated_Source\PSoC6\pdl\cmsis/include/core_cm4.h **** #define SCnSCB_ACTLR_DISFPCA_Pos            8U                                         /*!< ACTLR: 
 735:Generated_Source\PSoC6\pdl\cmsis/include/core_cm4.h **** #define SCnSCB_ACTLR_DISFPCA_Msk           (1UL << SCnSCB_ACTLR_DISFPCA_Pos)           /*!< ACTLR: 
 736:Generated_Source\PSoC6\pdl\cmsis/include/core_cm4.h **** 
 737:Generated_Source\PSoC6\pdl\cmsis/include/core_cm4.h **** #define SCnSCB_ACTLR_DISFOLD_Pos            2U                                         /*!< ACTLR: 
 738:Generated_Source\PSoC6\pdl\cmsis/include/core_cm4.h **** #define SCnSCB_ACTLR_DISFOLD_Msk           (1UL << SCnSCB_ACTLR_DISFOLD_Pos)           /*!< ACTLR: 
 739:Generated_Source\PSoC6\pdl\cmsis/include/core_cm4.h **** 
 740:Generated_Source\PSoC6\pdl\cmsis/include/core_cm4.h **** #define SCnSCB_ACTLR_DISDEFWBUF_Pos         1U                                         /*!< ACTLR: 
 741:Generated_Source\PSoC6\pdl\cmsis/include/core_cm4.h **** #define SCnSCB_ACTLR_DISDEFWBUF_Msk        (1UL << SCnSCB_ACTLR_DISDEFWBUF_Pos)        /*!< ACTLR: 
 742:Generated_Source\PSoC6\pdl\cmsis/include/core_cm4.h **** 
 743:Generated_Source\PSoC6\pdl\cmsis/include/core_cm4.h **** #define SCnSCB_ACTLR_DISMCYCINT_Pos         0U                                         /*!< ACTLR: 
 744:Generated_Source\PSoC6\pdl\cmsis/include/core_cm4.h **** #define SCnSCB_ACTLR_DISMCYCINT_Msk        (1UL /*<< SCnSCB_ACTLR_DISMCYCINT_Pos*/)    /*!< ACTLR: 
 745:Generated_Source\PSoC6\pdl\cmsis/include/core_cm4.h **** 
 746:Generated_Source\PSoC6\pdl\cmsis/include/core_cm4.h **** /*@} end of group CMSIS_SCnotSCB */
 747:Generated_Source\PSoC6\pdl\cmsis/include/core_cm4.h **** 
 748:Generated_Source\PSoC6\pdl\cmsis/include/core_cm4.h **** 
 749:Generated_Source\PSoC6\pdl\cmsis/include/core_cm4.h **** /**
 750:Generated_Source\PSoC6\pdl\cmsis/include/core_cm4.h ****   \ingroup  CMSIS_core_register
 751:Generated_Source\PSoC6\pdl\cmsis/include/core_cm4.h ****   \defgroup CMSIS_SysTick     System Tick Timer (SysTick)
 752:Generated_Source\PSoC6\pdl\cmsis/include/core_cm4.h ****   \brief    Type definitions for the System Timer Registers.
 753:Generated_Source\PSoC6\pdl\cmsis/include/core_cm4.h ****   @{
 754:Generated_Source\PSoC6\pdl\cmsis/include/core_cm4.h ****  */
 755:Generated_Source\PSoC6\pdl\cmsis/include/core_cm4.h **** 
 756:Generated_Source\PSoC6\pdl\cmsis/include/core_cm4.h **** /**
 757:Generated_Source\PSoC6\pdl\cmsis/include/core_cm4.h ****   \brief  Structure type to access the System Timer (SysTick).
 758:Generated_Source\PSoC6\pdl\cmsis/include/core_cm4.h ****  */
 759:Generated_Source\PSoC6\pdl\cmsis/include/core_cm4.h **** typedef struct
 760:Generated_Source\PSoC6\pdl\cmsis/include/core_cm4.h **** {
 761:Generated_Source\PSoC6\pdl\cmsis/include/core_cm4.h ****   __IOM uint32_t CTRL;                   /*!< Offset: 0x000 (R/W)  SysTick Control and Status Regis
 762:Generated_Source\PSoC6\pdl\cmsis/include/core_cm4.h ****   __IOM uint32_t LOAD;                   /*!< Offset: 0x004 (R/W)  SysTick Reload Value Register */
 763:Generated_Source\PSoC6\pdl\cmsis/include/core_cm4.h ****   __IOM uint32_t VAL;                    /*!< Offset: 0x008 (R/W)  SysTick Current Value Register *
 764:Generated_Source\PSoC6\pdl\cmsis/include/core_cm4.h ****   __IM  uint32_t CALIB;                  /*!< Offset: 0x00C (R/ )  SysTick Calibration Register */
 765:Generated_Source\PSoC6\pdl\cmsis/include/core_cm4.h **** } SysTick_Type;
 766:Generated_Source\PSoC6\pdl\cmsis/include/core_cm4.h **** 
 767:Generated_Source\PSoC6\pdl\cmsis/include/core_cm4.h **** /* SysTick Control / Status Register Definitions */
 768:Generated_Source\PSoC6\pdl\cmsis/include/core_cm4.h **** #define SysTick_CTRL_COUNTFLAG_Pos         16U                                            /*!< SysT
 769:Generated_Source\PSoC6\pdl\cmsis/include/core_cm4.h **** #define SysTick_CTRL_COUNTFLAG_Msk         (1UL << SysTick_CTRL_COUNTFLAG_Pos)            /*!< SysT
 770:Generated_Source\PSoC6\pdl\cmsis/include/core_cm4.h **** 
 771:Generated_Source\PSoC6\pdl\cmsis/include/core_cm4.h **** #define SysTick_CTRL_CLKSOURCE_Pos          2U                                            /*!< SysT
 772:Generated_Source\PSoC6\pdl\cmsis/include/core_cm4.h **** #define SysTick_CTRL_CLKSOURCE_Msk         (1UL << SysTick_CTRL_CLKSOURCE_Pos)            /*!< SysT
ARM GAS  C:\Users\yomat\AppData\Local\Temp\cc0omv11.s 			page 28


 773:Generated_Source\PSoC6\pdl\cmsis/include/core_cm4.h **** 
 774:Generated_Source\PSoC6\pdl\cmsis/include/core_cm4.h **** #define SysTick_CTRL_TICKINT_Pos            1U                                            /*!< SysT
 775:Generated_Source\PSoC6\pdl\cmsis/include/core_cm4.h **** #define SysTick_CTRL_TICKINT_Msk           (1UL << SysTick_CTRL_TICKINT_Pos)              /*!< SysT
 776:Generated_Source\PSoC6\pdl\cmsis/include/core_cm4.h **** 
 777:Generated_Source\PSoC6\pdl\cmsis/include/core_cm4.h **** #define SysTick_CTRL_ENABLE_Pos             0U                                            /*!< SysT
 778:Generated_Source\PSoC6\pdl\cmsis/include/core_cm4.h **** #define SysTick_CTRL_ENABLE_Msk            (1UL /*<< SysTick_CTRL_ENABLE_Pos*/)           /*!< SysT
 779:Generated_Source\PSoC6\pdl\cmsis/include/core_cm4.h **** 
 780:Generated_Source\PSoC6\pdl\cmsis/include/core_cm4.h **** /* SysTick Reload Register Definitions */
 781:Generated_Source\PSoC6\pdl\cmsis/include/core_cm4.h **** #define SysTick_LOAD_RELOAD_Pos             0U                                            /*!< SysT
 782:Generated_Source\PSoC6\pdl\cmsis/include/core_cm4.h **** #define SysTick_LOAD_RELOAD_Msk            (0xFFFFFFUL /*<< SysTick_LOAD_RELOAD_Pos*/)    /*!< SysT
 783:Generated_Source\PSoC6\pdl\cmsis/include/core_cm4.h **** 
 784:Generated_Source\PSoC6\pdl\cmsis/include/core_cm4.h **** /* SysTick Current Register Definitions */
 785:Generated_Source\PSoC6\pdl\cmsis/include/core_cm4.h **** #define SysTick_VAL_CURRENT_Pos             0U                                            /*!< SysT
 786:Generated_Source\PSoC6\pdl\cmsis/include/core_cm4.h **** #define SysTick_VAL_CURRENT_Msk            (0xFFFFFFUL /*<< SysTick_VAL_CURRENT_Pos*/)    /*!< SysT
 787:Generated_Source\PSoC6\pdl\cmsis/include/core_cm4.h **** 
 788:Generated_Source\PSoC6\pdl\cmsis/include/core_cm4.h **** /* SysTick Calibration Register Definitions */
 789:Generated_Source\PSoC6\pdl\cmsis/include/core_cm4.h **** #define SysTick_CALIB_NOREF_Pos            31U                                            /*!< SysT
 790:Generated_Source\PSoC6\pdl\cmsis/include/core_cm4.h **** #define SysTick_CALIB_NOREF_Msk            (1UL << SysTick_CALIB_NOREF_Pos)               /*!< SysT
 791:Generated_Source\PSoC6\pdl\cmsis/include/core_cm4.h **** 
 792:Generated_Source\PSoC6\pdl\cmsis/include/core_cm4.h **** #define SysTick_CALIB_SKEW_Pos             30U                                            /*!< SysT
 793:Generated_Source\PSoC6\pdl\cmsis/include/core_cm4.h **** #define SysTick_CALIB_SKEW_Msk             (1UL << SysTick_CALIB_SKEW_Pos)                /*!< SysT
 794:Generated_Source\PSoC6\pdl\cmsis/include/core_cm4.h **** 
 795:Generated_Source\PSoC6\pdl\cmsis/include/core_cm4.h **** #define SysTick_CALIB_TENMS_Pos             0U                                            /*!< SysT
 796:Generated_Source\PSoC6\pdl\cmsis/include/core_cm4.h **** #define SysTick_CALIB_TENMS_Msk            (0xFFFFFFUL /*<< SysTick_CALIB_TENMS_Pos*/)    /*!< SysT
 797:Generated_Source\PSoC6\pdl\cmsis/include/core_cm4.h **** 
 798:Generated_Source\PSoC6\pdl\cmsis/include/core_cm4.h **** /*@} end of group CMSIS_SysTick */
 799:Generated_Source\PSoC6\pdl\cmsis/include/core_cm4.h **** 
 800:Generated_Source\PSoC6\pdl\cmsis/include/core_cm4.h **** 
 801:Generated_Source\PSoC6\pdl\cmsis/include/core_cm4.h **** /**
 802:Generated_Source\PSoC6\pdl\cmsis/include/core_cm4.h ****   \ingroup  CMSIS_core_register
 803:Generated_Source\PSoC6\pdl\cmsis/include/core_cm4.h ****   \defgroup CMSIS_ITM     Instrumentation Trace Macrocell (ITM)
 804:Generated_Source\PSoC6\pdl\cmsis/include/core_cm4.h ****   \brief    Type definitions for the Instrumentation Trace Macrocell (ITM)
 805:Generated_Source\PSoC6\pdl\cmsis/include/core_cm4.h ****   @{
 806:Generated_Source\PSoC6\pdl\cmsis/include/core_cm4.h ****  */
 807:Generated_Source\PSoC6\pdl\cmsis/include/core_cm4.h **** 
 808:Generated_Source\PSoC6\pdl\cmsis/include/core_cm4.h **** /**
 809:Generated_Source\PSoC6\pdl\cmsis/include/core_cm4.h ****   \brief  Structure type to access the Instrumentation Trace Macrocell Register (ITM).
 810:Generated_Source\PSoC6\pdl\cmsis/include/core_cm4.h ****  */
 811:Generated_Source\PSoC6\pdl\cmsis/include/core_cm4.h **** typedef struct
 812:Generated_Source\PSoC6\pdl\cmsis/include/core_cm4.h **** {
 813:Generated_Source\PSoC6\pdl\cmsis/include/core_cm4.h ****   __OM  union
 814:Generated_Source\PSoC6\pdl\cmsis/include/core_cm4.h ****   {
 815:Generated_Source\PSoC6\pdl\cmsis/include/core_cm4.h ****     __OM  uint8_t    u8;                 /*!< Offset: 0x000 ( /W)  ITM Stimulus Port 8-bit */
 816:Generated_Source\PSoC6\pdl\cmsis/include/core_cm4.h ****     __OM  uint16_t   u16;                /*!< Offset: 0x000 ( /W)  ITM Stimulus Port 16-bit */
 817:Generated_Source\PSoC6\pdl\cmsis/include/core_cm4.h ****     __OM  uint32_t   u32;                /*!< Offset: 0x000 ( /W)  ITM Stimulus Port 32-bit */
 818:Generated_Source\PSoC6\pdl\cmsis/include/core_cm4.h ****   }  PORT [32U];                         /*!< Offset: 0x000 ( /W)  ITM Stimulus Port Registers */
 819:Generated_Source\PSoC6\pdl\cmsis/include/core_cm4.h ****         uint32_t RESERVED0[864U];
 820:Generated_Source\PSoC6\pdl\cmsis/include/core_cm4.h ****   __IOM uint32_t TER;                    /*!< Offset: 0xE00 (R/W)  ITM Trace Enable Register */
 821:Generated_Source\PSoC6\pdl\cmsis/include/core_cm4.h ****         uint32_t RESERVED1[15U];
 822:Generated_Source\PSoC6\pdl\cmsis/include/core_cm4.h ****   __IOM uint32_t TPR;                    /*!< Offset: 0xE40 (R/W)  ITM Trace Privilege Register */
 823:Generated_Source\PSoC6\pdl\cmsis/include/core_cm4.h ****         uint32_t RESERVED2[15U];
 824:Generated_Source\PSoC6\pdl\cmsis/include/core_cm4.h ****   __IOM uint32_t TCR;                    /*!< Offset: 0xE80 (R/W)  ITM Trace Control Register */
 825:Generated_Source\PSoC6\pdl\cmsis/include/core_cm4.h ****         uint32_t RESERVED3[29U];
 826:Generated_Source\PSoC6\pdl\cmsis/include/core_cm4.h ****   __OM  uint32_t IWR;                    /*!< Offset: 0xEF8 ( /W)  ITM Integration Write Register *
 827:Generated_Source\PSoC6\pdl\cmsis/include/core_cm4.h ****   __IM  uint32_t IRR;                    /*!< Offset: 0xEFC (R/ )  ITM Integration Read Register */
 828:Generated_Source\PSoC6\pdl\cmsis/include/core_cm4.h ****   __IOM uint32_t IMCR;                   /*!< Offset: 0xF00 (R/W)  ITM Integration Mode Control Reg
 829:Generated_Source\PSoC6\pdl\cmsis/include/core_cm4.h ****         uint32_t RESERVED4[43U];
ARM GAS  C:\Users\yomat\AppData\Local\Temp\cc0omv11.s 			page 29


 830:Generated_Source\PSoC6\pdl\cmsis/include/core_cm4.h ****   __OM  uint32_t LAR;                    /*!< Offset: 0xFB0 ( /W)  ITM Lock Access Register */
 831:Generated_Source\PSoC6\pdl\cmsis/include/core_cm4.h ****   __IM  uint32_t LSR;                    /*!< Offset: 0xFB4 (R/ )  ITM Lock Status Register */
 832:Generated_Source\PSoC6\pdl\cmsis/include/core_cm4.h ****         uint32_t RESERVED5[6U];
 833:Generated_Source\PSoC6\pdl\cmsis/include/core_cm4.h ****   __IM  uint32_t PID4;                   /*!< Offset: 0xFD0 (R/ )  ITM Peripheral Identification Re
 834:Generated_Source\PSoC6\pdl\cmsis/include/core_cm4.h ****   __IM  uint32_t PID5;                   /*!< Offset: 0xFD4 (R/ )  ITM Peripheral Identification Re
 835:Generated_Source\PSoC6\pdl\cmsis/include/core_cm4.h ****   __IM  uint32_t PID6;                   /*!< Offset: 0xFD8 (R/ )  ITM Peripheral Identification Re
 836:Generated_Source\PSoC6\pdl\cmsis/include/core_cm4.h ****   __IM  uint32_t PID7;                   /*!< Offset: 0xFDC (R/ )  ITM Peripheral Identification Re
 837:Generated_Source\PSoC6\pdl\cmsis/include/core_cm4.h ****   __IM  uint32_t PID0;                   /*!< Offset: 0xFE0 (R/ )  ITM Peripheral Identification Re
 838:Generated_Source\PSoC6\pdl\cmsis/include/core_cm4.h ****   __IM  uint32_t PID1;                   /*!< Offset: 0xFE4 (R/ )  ITM Peripheral Identification Re
 839:Generated_Source\PSoC6\pdl\cmsis/include/core_cm4.h ****   __IM  uint32_t PID2;                   /*!< Offset: 0xFE8 (R/ )  ITM Peripheral Identification Re
 840:Generated_Source\PSoC6\pdl\cmsis/include/core_cm4.h ****   __IM  uint32_t PID3;                   /*!< Offset: 0xFEC (R/ )  ITM Peripheral Identification Re
 841:Generated_Source\PSoC6\pdl\cmsis/include/core_cm4.h ****   __IM  uint32_t CID0;                   /*!< Offset: 0xFF0 (R/ )  ITM Component  Identification Re
 842:Generated_Source\PSoC6\pdl\cmsis/include/core_cm4.h ****   __IM  uint32_t CID1;                   /*!< Offset: 0xFF4 (R/ )  ITM Component  Identification Re
 843:Generated_Source\PSoC6\pdl\cmsis/include/core_cm4.h ****   __IM  uint32_t CID2;                   /*!< Offset: 0xFF8 (R/ )  ITM Component  Identification Re
 844:Generated_Source\PSoC6\pdl\cmsis/include/core_cm4.h ****   __IM  uint32_t CID3;                   /*!< Offset: 0xFFC (R/ )  ITM Component  Identification Re
 845:Generated_Source\PSoC6\pdl\cmsis/include/core_cm4.h **** } ITM_Type;
 846:Generated_Source\PSoC6\pdl\cmsis/include/core_cm4.h **** 
 847:Generated_Source\PSoC6\pdl\cmsis/include/core_cm4.h **** /* ITM Trace Privilege Register Definitions */
 848:Generated_Source\PSoC6\pdl\cmsis/include/core_cm4.h **** #define ITM_TPR_PRIVMASK_Pos                0U                                            /*!< ITM 
 849:Generated_Source\PSoC6\pdl\cmsis/include/core_cm4.h **** #define ITM_TPR_PRIVMASK_Msk               (0xFFFFFFFFUL /*<< ITM_TPR_PRIVMASK_Pos*/)     /*!< ITM 
 850:Generated_Source\PSoC6\pdl\cmsis/include/core_cm4.h **** 
 851:Generated_Source\PSoC6\pdl\cmsis/include/core_cm4.h **** /* ITM Trace Control Register Definitions */
 852:Generated_Source\PSoC6\pdl\cmsis/include/core_cm4.h **** #define ITM_TCR_BUSY_Pos                   23U                                            /*!< ITM 
 853:Generated_Source\PSoC6\pdl\cmsis/include/core_cm4.h **** #define ITM_TCR_BUSY_Msk                   (1UL << ITM_TCR_BUSY_Pos)                      /*!< ITM 
 854:Generated_Source\PSoC6\pdl\cmsis/include/core_cm4.h **** 
 855:Generated_Source\PSoC6\pdl\cmsis/include/core_cm4.h **** #define ITM_TCR_TraceBusID_Pos             16U                                            /*!< ITM 
 856:Generated_Source\PSoC6\pdl\cmsis/include/core_cm4.h **** #define ITM_TCR_TraceBusID_Msk             (0x7FUL << ITM_TCR_TraceBusID_Pos)             /*!< ITM 
 857:Generated_Source\PSoC6\pdl\cmsis/include/core_cm4.h **** 
 858:Generated_Source\PSoC6\pdl\cmsis/include/core_cm4.h **** #define ITM_TCR_GTSFREQ_Pos                10U                                            /*!< ITM 
 859:Generated_Source\PSoC6\pdl\cmsis/include/core_cm4.h **** #define ITM_TCR_GTSFREQ_Msk                (3UL << ITM_TCR_GTSFREQ_Pos)                   /*!< ITM 
 860:Generated_Source\PSoC6\pdl\cmsis/include/core_cm4.h **** 
 861:Generated_Source\PSoC6\pdl\cmsis/include/core_cm4.h **** #define ITM_TCR_TSPrescale_Pos              8U                                            /*!< ITM 
 862:Generated_Source\PSoC6\pdl\cmsis/include/core_cm4.h **** #define ITM_TCR_TSPrescale_Msk             (3UL << ITM_TCR_TSPrescale_Pos)                /*!< ITM 
 863:Generated_Source\PSoC6\pdl\cmsis/include/core_cm4.h **** 
 864:Generated_Source\PSoC6\pdl\cmsis/include/core_cm4.h **** #define ITM_TCR_SWOENA_Pos                  4U                                            /*!< ITM 
 865:Generated_Source\PSoC6\pdl\cmsis/include/core_cm4.h **** #define ITM_TCR_SWOENA_Msk                 (1UL << ITM_TCR_SWOENA_Pos)                    /*!< ITM 
 866:Generated_Source\PSoC6\pdl\cmsis/include/core_cm4.h **** 
 867:Generated_Source\PSoC6\pdl\cmsis/include/core_cm4.h **** #define ITM_TCR_DWTENA_Pos                  3U                                            /*!< ITM 
 868:Generated_Source\PSoC6\pdl\cmsis/include/core_cm4.h **** #define ITM_TCR_DWTENA_Msk                 (1UL << ITM_TCR_DWTENA_Pos)                    /*!< ITM 
 869:Generated_Source\PSoC6\pdl\cmsis/include/core_cm4.h **** 
 870:Generated_Source\PSoC6\pdl\cmsis/include/core_cm4.h **** #define ITM_TCR_SYNCENA_Pos                 2U                                            /*!< ITM 
 871:Generated_Source\PSoC6\pdl\cmsis/include/core_cm4.h **** #define ITM_TCR_SYNCENA_Msk                (1UL << ITM_TCR_SYNCENA_Pos)                   /*!< ITM 
 872:Generated_Source\PSoC6\pdl\cmsis/include/core_cm4.h **** 
 873:Generated_Source\PSoC6\pdl\cmsis/include/core_cm4.h **** #define ITM_TCR_TSENA_Pos                   1U                                            /*!< ITM 
 874:Generated_Source\PSoC6\pdl\cmsis/include/core_cm4.h **** #define ITM_TCR_TSENA_Msk                  (1UL << ITM_TCR_TSENA_Pos)                     /*!< ITM 
 875:Generated_Source\PSoC6\pdl\cmsis/include/core_cm4.h **** 
 876:Generated_Source\PSoC6\pdl\cmsis/include/core_cm4.h **** #define ITM_TCR_ITMENA_Pos                  0U                                            /*!< ITM 
 877:Generated_Source\PSoC6\pdl\cmsis/include/core_cm4.h **** #define ITM_TCR_ITMENA_Msk                 (1UL /*<< ITM_TCR_ITMENA_Pos*/)                /*!< ITM 
 878:Generated_Source\PSoC6\pdl\cmsis/include/core_cm4.h **** 
 879:Generated_Source\PSoC6\pdl\cmsis/include/core_cm4.h **** /* ITM Integration Write Register Definitions */
 880:Generated_Source\PSoC6\pdl\cmsis/include/core_cm4.h **** #define ITM_IWR_ATVALIDM_Pos                0U                                            /*!< ITM 
 881:Generated_Source\PSoC6\pdl\cmsis/include/core_cm4.h **** #define ITM_IWR_ATVALIDM_Msk               (1UL /*<< ITM_IWR_ATVALIDM_Pos*/)              /*!< ITM 
 882:Generated_Source\PSoC6\pdl\cmsis/include/core_cm4.h **** 
 883:Generated_Source\PSoC6\pdl\cmsis/include/core_cm4.h **** /* ITM Integration Read Register Definitions */
 884:Generated_Source\PSoC6\pdl\cmsis/include/core_cm4.h **** #define ITM_IRR_ATREADYM_Pos                0U                                            /*!< ITM 
 885:Generated_Source\PSoC6\pdl\cmsis/include/core_cm4.h **** #define ITM_IRR_ATREADYM_Msk               (1UL /*<< ITM_IRR_ATREADYM_Pos*/)              /*!< ITM 
 886:Generated_Source\PSoC6\pdl\cmsis/include/core_cm4.h **** 
ARM GAS  C:\Users\yomat\AppData\Local\Temp\cc0omv11.s 			page 30


 887:Generated_Source\PSoC6\pdl\cmsis/include/core_cm4.h **** /* ITM Integration Mode Control Register Definitions */
 888:Generated_Source\PSoC6\pdl\cmsis/include/core_cm4.h **** #define ITM_IMCR_INTEGRATION_Pos            0U                                            /*!< ITM 
 889:Generated_Source\PSoC6\pdl\cmsis/include/core_cm4.h **** #define ITM_IMCR_INTEGRATION_Msk           (1UL /*<< ITM_IMCR_INTEGRATION_Pos*/)          /*!< ITM 
 890:Generated_Source\PSoC6\pdl\cmsis/include/core_cm4.h **** 
 891:Generated_Source\PSoC6\pdl\cmsis/include/core_cm4.h **** /* ITM Lock Status Register Definitions */
 892:Generated_Source\PSoC6\pdl\cmsis/include/core_cm4.h **** #define ITM_LSR_ByteAcc_Pos                 2U                                            /*!< ITM 
 893:Generated_Source\PSoC6\pdl\cmsis/include/core_cm4.h **** #define ITM_LSR_ByteAcc_Msk                (1UL << ITM_LSR_ByteAcc_Pos)                   /*!< ITM 
 894:Generated_Source\PSoC6\pdl\cmsis/include/core_cm4.h **** 
 895:Generated_Source\PSoC6\pdl\cmsis/include/core_cm4.h **** #define ITM_LSR_Access_Pos                  1U                                            /*!< ITM 
 896:Generated_Source\PSoC6\pdl\cmsis/include/core_cm4.h **** #define ITM_LSR_Access_Msk                 (1UL << ITM_LSR_Access_Pos)                    /*!< ITM 
 897:Generated_Source\PSoC6\pdl\cmsis/include/core_cm4.h **** 
 898:Generated_Source\PSoC6\pdl\cmsis/include/core_cm4.h **** #define ITM_LSR_Present_Pos                 0U                                            /*!< ITM 
 899:Generated_Source\PSoC6\pdl\cmsis/include/core_cm4.h **** #define ITM_LSR_Present_Msk                (1UL /*<< ITM_LSR_Present_Pos*/)               /*!< ITM 
 900:Generated_Source\PSoC6\pdl\cmsis/include/core_cm4.h **** 
 901:Generated_Source\PSoC6\pdl\cmsis/include/core_cm4.h **** /*@}*/ /* end of group CMSIS_ITM */
 902:Generated_Source\PSoC6\pdl\cmsis/include/core_cm4.h **** 
 903:Generated_Source\PSoC6\pdl\cmsis/include/core_cm4.h **** 
 904:Generated_Source\PSoC6\pdl\cmsis/include/core_cm4.h **** /**
 905:Generated_Source\PSoC6\pdl\cmsis/include/core_cm4.h ****   \ingroup  CMSIS_core_register
 906:Generated_Source\PSoC6\pdl\cmsis/include/core_cm4.h ****   \defgroup CMSIS_DWT     Data Watchpoint and Trace (DWT)
 907:Generated_Source\PSoC6\pdl\cmsis/include/core_cm4.h ****   \brief    Type definitions for the Data Watchpoint and Trace (DWT)
 908:Generated_Source\PSoC6\pdl\cmsis/include/core_cm4.h ****   @{
 909:Generated_Source\PSoC6\pdl\cmsis/include/core_cm4.h ****  */
 910:Generated_Source\PSoC6\pdl\cmsis/include/core_cm4.h **** 
 911:Generated_Source\PSoC6\pdl\cmsis/include/core_cm4.h **** /**
 912:Generated_Source\PSoC6\pdl\cmsis/include/core_cm4.h ****   \brief  Structure type to access the Data Watchpoint and Trace Register (DWT).
 913:Generated_Source\PSoC6\pdl\cmsis/include/core_cm4.h ****  */
 914:Generated_Source\PSoC6\pdl\cmsis/include/core_cm4.h **** typedef struct
 915:Generated_Source\PSoC6\pdl\cmsis/include/core_cm4.h **** {
 916:Generated_Source\PSoC6\pdl\cmsis/include/core_cm4.h ****   __IOM uint32_t CTRL;                   /*!< Offset: 0x000 (R/W)  Control Register */
 917:Generated_Source\PSoC6\pdl\cmsis/include/core_cm4.h ****   __IOM uint32_t CYCCNT;                 /*!< Offset: 0x004 (R/W)  Cycle Count Register */
 918:Generated_Source\PSoC6\pdl\cmsis/include/core_cm4.h ****   __IOM uint32_t CPICNT;                 /*!< Offset: 0x008 (R/W)  CPI Count Register */
 919:Generated_Source\PSoC6\pdl\cmsis/include/core_cm4.h ****   __IOM uint32_t EXCCNT;                 /*!< Offset: 0x00C (R/W)  Exception Overhead Count Registe
 920:Generated_Source\PSoC6\pdl\cmsis/include/core_cm4.h ****   __IOM uint32_t SLEEPCNT;               /*!< Offset: 0x010 (R/W)  Sleep Count Register */
 921:Generated_Source\PSoC6\pdl\cmsis/include/core_cm4.h ****   __IOM uint32_t LSUCNT;                 /*!< Offset: 0x014 (R/W)  LSU Count Register */
 922:Generated_Source\PSoC6\pdl\cmsis/include/core_cm4.h ****   __IOM uint32_t FOLDCNT;                /*!< Offset: 0x018 (R/W)  Folded-instruction Count Registe
 923:Generated_Source\PSoC6\pdl\cmsis/include/core_cm4.h ****   __IM  uint32_t PCSR;                   /*!< Offset: 0x01C (R/ )  Program Counter Sample Register 
 924:Generated_Source\PSoC6\pdl\cmsis/include/core_cm4.h ****   __IOM uint32_t COMP0;                  /*!< Offset: 0x020 (R/W)  Comparator Register 0 */
 925:Generated_Source\PSoC6\pdl\cmsis/include/core_cm4.h ****   __IOM uint32_t MASK0;                  /*!< Offset: 0x024 (R/W)  Mask Register 0 */
 926:Generated_Source\PSoC6\pdl\cmsis/include/core_cm4.h ****   __IOM uint32_t FUNCTION0;              /*!< Offset: 0x028 (R/W)  Function Register 0 */
 927:Generated_Source\PSoC6\pdl\cmsis/include/core_cm4.h ****         uint32_t RESERVED0[1U];
 928:Generated_Source\PSoC6\pdl\cmsis/include/core_cm4.h ****   __IOM uint32_t COMP1;                  /*!< Offset: 0x030 (R/W)  Comparator Register 1 */
 929:Generated_Source\PSoC6\pdl\cmsis/include/core_cm4.h ****   __IOM uint32_t MASK1;                  /*!< Offset: 0x034 (R/W)  Mask Register 1 */
 930:Generated_Source\PSoC6\pdl\cmsis/include/core_cm4.h ****   __IOM uint32_t FUNCTION1;              /*!< Offset: 0x038 (R/W)  Function Register 1 */
 931:Generated_Source\PSoC6\pdl\cmsis/include/core_cm4.h ****         uint32_t RESERVED1[1U];
 932:Generated_Source\PSoC6\pdl\cmsis/include/core_cm4.h ****   __IOM uint32_t COMP2;                  /*!< Offset: 0x040 (R/W)  Comparator Register 2 */
 933:Generated_Source\PSoC6\pdl\cmsis/include/core_cm4.h ****   __IOM uint32_t MASK2;                  /*!< Offset: 0x044 (R/W)  Mask Register 2 */
 934:Generated_Source\PSoC6\pdl\cmsis/include/core_cm4.h ****   __IOM uint32_t FUNCTION2;              /*!< Offset: 0x048 (R/W)  Function Register 2 */
 935:Generated_Source\PSoC6\pdl\cmsis/include/core_cm4.h ****         uint32_t RESERVED2[1U];
 936:Generated_Source\PSoC6\pdl\cmsis/include/core_cm4.h ****   __IOM uint32_t COMP3;                  /*!< Offset: 0x050 (R/W)  Comparator Register 3 */
 937:Generated_Source\PSoC6\pdl\cmsis/include/core_cm4.h ****   __IOM uint32_t MASK3;                  /*!< Offset: 0x054 (R/W)  Mask Register 3 */
 938:Generated_Source\PSoC6\pdl\cmsis/include/core_cm4.h ****   __IOM uint32_t FUNCTION3;              /*!< Offset: 0x058 (R/W)  Function Register 3 */
 939:Generated_Source\PSoC6\pdl\cmsis/include/core_cm4.h **** } DWT_Type;
 940:Generated_Source\PSoC6\pdl\cmsis/include/core_cm4.h **** 
 941:Generated_Source\PSoC6\pdl\cmsis/include/core_cm4.h **** /* DWT Control Register Definitions */
 942:Generated_Source\PSoC6\pdl\cmsis/include/core_cm4.h **** #define DWT_CTRL_NUMCOMP_Pos               28U                                         /*!< DWT CTR
 943:Generated_Source\PSoC6\pdl\cmsis/include/core_cm4.h **** #define DWT_CTRL_NUMCOMP_Msk               (0xFUL << DWT_CTRL_NUMCOMP_Pos)             /*!< DWT CTR
ARM GAS  C:\Users\yomat\AppData\Local\Temp\cc0omv11.s 			page 31


 944:Generated_Source\PSoC6\pdl\cmsis/include/core_cm4.h **** 
 945:Generated_Source\PSoC6\pdl\cmsis/include/core_cm4.h **** #define DWT_CTRL_NOTRCPKT_Pos              27U                                         /*!< DWT CTR
 946:Generated_Source\PSoC6\pdl\cmsis/include/core_cm4.h **** #define DWT_CTRL_NOTRCPKT_Msk              (0x1UL << DWT_CTRL_NOTRCPKT_Pos)            /*!< DWT CTR
 947:Generated_Source\PSoC6\pdl\cmsis/include/core_cm4.h **** 
 948:Generated_Source\PSoC6\pdl\cmsis/include/core_cm4.h **** #define DWT_CTRL_NOEXTTRIG_Pos             26U                                         /*!< DWT CTR
 949:Generated_Source\PSoC6\pdl\cmsis/include/core_cm4.h **** #define DWT_CTRL_NOEXTTRIG_Msk             (0x1UL << DWT_CTRL_NOEXTTRIG_Pos)           /*!< DWT CTR
 950:Generated_Source\PSoC6\pdl\cmsis/include/core_cm4.h **** 
 951:Generated_Source\PSoC6\pdl\cmsis/include/core_cm4.h **** #define DWT_CTRL_NOCYCCNT_Pos              25U                                         /*!< DWT CTR
 952:Generated_Source\PSoC6\pdl\cmsis/include/core_cm4.h **** #define DWT_CTRL_NOCYCCNT_Msk              (0x1UL << DWT_CTRL_NOCYCCNT_Pos)            /*!< DWT CTR
 953:Generated_Source\PSoC6\pdl\cmsis/include/core_cm4.h **** 
 954:Generated_Source\PSoC6\pdl\cmsis/include/core_cm4.h **** #define DWT_CTRL_NOPRFCNT_Pos              24U                                         /*!< DWT CTR
 955:Generated_Source\PSoC6\pdl\cmsis/include/core_cm4.h **** #define DWT_CTRL_NOPRFCNT_Msk              (0x1UL << DWT_CTRL_NOPRFCNT_Pos)            /*!< DWT CTR
 956:Generated_Source\PSoC6\pdl\cmsis/include/core_cm4.h **** 
 957:Generated_Source\PSoC6\pdl\cmsis/include/core_cm4.h **** #define DWT_CTRL_CYCEVTENA_Pos             22U                                         /*!< DWT CTR
 958:Generated_Source\PSoC6\pdl\cmsis/include/core_cm4.h **** #define DWT_CTRL_CYCEVTENA_Msk             (0x1UL << DWT_CTRL_CYCEVTENA_Pos)           /*!< DWT CTR
 959:Generated_Source\PSoC6\pdl\cmsis/include/core_cm4.h **** 
 960:Generated_Source\PSoC6\pdl\cmsis/include/core_cm4.h **** #define DWT_CTRL_FOLDEVTENA_Pos            21U                                         /*!< DWT CTR
 961:Generated_Source\PSoC6\pdl\cmsis/include/core_cm4.h **** #define DWT_CTRL_FOLDEVTENA_Msk            (0x1UL << DWT_CTRL_FOLDEVTENA_Pos)          /*!< DWT CTR
 962:Generated_Source\PSoC6\pdl\cmsis/include/core_cm4.h **** 
 963:Generated_Source\PSoC6\pdl\cmsis/include/core_cm4.h **** #define DWT_CTRL_LSUEVTENA_Pos             20U                                         /*!< DWT CTR
 964:Generated_Source\PSoC6\pdl\cmsis/include/core_cm4.h **** #define DWT_CTRL_LSUEVTENA_Msk             (0x1UL << DWT_CTRL_LSUEVTENA_Pos)           /*!< DWT CTR
 965:Generated_Source\PSoC6\pdl\cmsis/include/core_cm4.h **** 
 966:Generated_Source\PSoC6\pdl\cmsis/include/core_cm4.h **** #define DWT_CTRL_SLEEPEVTENA_Pos           19U                                         /*!< DWT CTR
 967:Generated_Source\PSoC6\pdl\cmsis/include/core_cm4.h **** #define DWT_CTRL_SLEEPEVTENA_Msk           (0x1UL << DWT_CTRL_SLEEPEVTENA_Pos)         /*!< DWT CTR
 968:Generated_Source\PSoC6\pdl\cmsis/include/core_cm4.h **** 
 969:Generated_Source\PSoC6\pdl\cmsis/include/core_cm4.h **** #define DWT_CTRL_EXCEVTENA_Pos             18U                                         /*!< DWT CTR
 970:Generated_Source\PSoC6\pdl\cmsis/include/core_cm4.h **** #define DWT_CTRL_EXCEVTENA_Msk             (0x1UL << DWT_CTRL_EXCEVTENA_Pos)           /*!< DWT CTR
 971:Generated_Source\PSoC6\pdl\cmsis/include/core_cm4.h **** 
 972:Generated_Source\PSoC6\pdl\cmsis/include/core_cm4.h **** #define DWT_CTRL_CPIEVTENA_Pos             17U                                         /*!< DWT CTR
 973:Generated_Source\PSoC6\pdl\cmsis/include/core_cm4.h **** #define DWT_CTRL_CPIEVTENA_Msk             (0x1UL << DWT_CTRL_CPIEVTENA_Pos)           /*!< DWT CTR
 974:Generated_Source\PSoC6\pdl\cmsis/include/core_cm4.h **** 
 975:Generated_Source\PSoC6\pdl\cmsis/include/core_cm4.h **** #define DWT_CTRL_EXCTRCENA_Pos             16U                                         /*!< DWT CTR
 976:Generated_Source\PSoC6\pdl\cmsis/include/core_cm4.h **** #define DWT_CTRL_EXCTRCENA_Msk             (0x1UL << DWT_CTRL_EXCTRCENA_Pos)           /*!< DWT CTR
 977:Generated_Source\PSoC6\pdl\cmsis/include/core_cm4.h **** 
 978:Generated_Source\PSoC6\pdl\cmsis/include/core_cm4.h **** #define DWT_CTRL_PCSAMPLENA_Pos            12U                                         /*!< DWT CTR
 979:Generated_Source\PSoC6\pdl\cmsis/include/core_cm4.h **** #define DWT_CTRL_PCSAMPLENA_Msk            (0x1UL << DWT_CTRL_PCSAMPLENA_Pos)          /*!< DWT CTR
 980:Generated_Source\PSoC6\pdl\cmsis/include/core_cm4.h **** 
 981:Generated_Source\PSoC6\pdl\cmsis/include/core_cm4.h **** #define DWT_CTRL_SYNCTAP_Pos               10U                                         /*!< DWT CTR
 982:Generated_Source\PSoC6\pdl\cmsis/include/core_cm4.h **** #define DWT_CTRL_SYNCTAP_Msk               (0x3UL << DWT_CTRL_SYNCTAP_Pos)             /*!< DWT CTR
 983:Generated_Source\PSoC6\pdl\cmsis/include/core_cm4.h **** 
 984:Generated_Source\PSoC6\pdl\cmsis/include/core_cm4.h **** #define DWT_CTRL_CYCTAP_Pos                 9U                                         /*!< DWT CTR
 985:Generated_Source\PSoC6\pdl\cmsis/include/core_cm4.h **** #define DWT_CTRL_CYCTAP_Msk                (0x1UL << DWT_CTRL_CYCTAP_Pos)              /*!< DWT CTR
 986:Generated_Source\PSoC6\pdl\cmsis/include/core_cm4.h **** 
 987:Generated_Source\PSoC6\pdl\cmsis/include/core_cm4.h **** #define DWT_CTRL_POSTINIT_Pos               5U                                         /*!< DWT CTR
 988:Generated_Source\PSoC6\pdl\cmsis/include/core_cm4.h **** #define DWT_CTRL_POSTINIT_Msk              (0xFUL << DWT_CTRL_POSTINIT_Pos)            /*!< DWT CTR
 989:Generated_Source\PSoC6\pdl\cmsis/include/core_cm4.h **** 
 990:Generated_Source\PSoC6\pdl\cmsis/include/core_cm4.h **** #define DWT_CTRL_POSTPRESET_Pos             1U                                         /*!< DWT CTR
 991:Generated_Source\PSoC6\pdl\cmsis/include/core_cm4.h **** #define DWT_CTRL_POSTPRESET_Msk            (0xFUL << DWT_CTRL_POSTPRESET_Pos)          /*!< DWT CTR
 992:Generated_Source\PSoC6\pdl\cmsis/include/core_cm4.h **** 
 993:Generated_Source\PSoC6\pdl\cmsis/include/core_cm4.h **** #define DWT_CTRL_CYCCNTENA_Pos              0U                                         /*!< DWT CTR
 994:Generated_Source\PSoC6\pdl\cmsis/include/core_cm4.h **** #define DWT_CTRL_CYCCNTENA_Msk             (0x1UL /*<< DWT_CTRL_CYCCNTENA_Pos*/)       /*!< DWT CTR
 995:Generated_Source\PSoC6\pdl\cmsis/include/core_cm4.h **** 
 996:Generated_Source\PSoC6\pdl\cmsis/include/core_cm4.h **** /* DWT CPI Count Register Definitions */
 997:Generated_Source\PSoC6\pdl\cmsis/include/core_cm4.h **** #define DWT_CPICNT_CPICNT_Pos               0U                                         /*!< DWT CPI
 998:Generated_Source\PSoC6\pdl\cmsis/include/core_cm4.h **** #define DWT_CPICNT_CPICNT_Msk              (0xFFUL /*<< DWT_CPICNT_CPICNT_Pos*/)       /*!< DWT CPI
 999:Generated_Source\PSoC6\pdl\cmsis/include/core_cm4.h **** 
1000:Generated_Source\PSoC6\pdl\cmsis/include/core_cm4.h **** /* DWT Exception Overhead Count Register Definitions */
ARM GAS  C:\Users\yomat\AppData\Local\Temp\cc0omv11.s 			page 32


1001:Generated_Source\PSoC6\pdl\cmsis/include/core_cm4.h **** #define DWT_EXCCNT_EXCCNT_Pos               0U                                         /*!< DWT EXC
1002:Generated_Source\PSoC6\pdl\cmsis/include/core_cm4.h **** #define DWT_EXCCNT_EXCCNT_Msk              (0xFFUL /*<< DWT_EXCCNT_EXCCNT_Pos*/)       /*!< DWT EXC
1003:Generated_Source\PSoC6\pdl\cmsis/include/core_cm4.h **** 
1004:Generated_Source\PSoC6\pdl\cmsis/include/core_cm4.h **** /* DWT Sleep Count Register Definitions */
1005:Generated_Source\PSoC6\pdl\cmsis/include/core_cm4.h **** #define DWT_SLEEPCNT_SLEEPCNT_Pos           0U                                         /*!< DWT SLE
1006:Generated_Source\PSoC6\pdl\cmsis/include/core_cm4.h **** #define DWT_SLEEPCNT_SLEEPCNT_Msk          (0xFFUL /*<< DWT_SLEEPCNT_SLEEPCNT_Pos*/)   /*!< DWT SLE
1007:Generated_Source\PSoC6\pdl\cmsis/include/core_cm4.h **** 
1008:Generated_Source\PSoC6\pdl\cmsis/include/core_cm4.h **** /* DWT LSU Count Register Definitions */
1009:Generated_Source\PSoC6\pdl\cmsis/include/core_cm4.h **** #define DWT_LSUCNT_LSUCNT_Pos               0U                                         /*!< DWT LSU
1010:Generated_Source\PSoC6\pdl\cmsis/include/core_cm4.h **** #define DWT_LSUCNT_LSUCNT_Msk              (0xFFUL /*<< DWT_LSUCNT_LSUCNT_Pos*/)       /*!< DWT LSU
1011:Generated_Source\PSoC6\pdl\cmsis/include/core_cm4.h **** 
1012:Generated_Source\PSoC6\pdl\cmsis/include/core_cm4.h **** /* DWT Folded-instruction Count Register Definitions */
1013:Generated_Source\PSoC6\pdl\cmsis/include/core_cm4.h **** #define DWT_FOLDCNT_FOLDCNT_Pos             0U                                         /*!< DWT FOL
1014:Generated_Source\PSoC6\pdl\cmsis/include/core_cm4.h **** #define DWT_FOLDCNT_FOLDCNT_Msk            (0xFFUL /*<< DWT_FOLDCNT_FOLDCNT_Pos*/)     /*!< DWT FOL
1015:Generated_Source\PSoC6\pdl\cmsis/include/core_cm4.h **** 
1016:Generated_Source\PSoC6\pdl\cmsis/include/core_cm4.h **** /* DWT Comparator Mask Register Definitions */
1017:Generated_Source\PSoC6\pdl\cmsis/include/core_cm4.h **** #define DWT_MASK_MASK_Pos                   0U                                         /*!< DWT MAS
1018:Generated_Source\PSoC6\pdl\cmsis/include/core_cm4.h **** #define DWT_MASK_MASK_Msk                  (0x1FUL /*<< DWT_MASK_MASK_Pos*/)           /*!< DWT MAS
1019:Generated_Source\PSoC6\pdl\cmsis/include/core_cm4.h **** 
1020:Generated_Source\PSoC6\pdl\cmsis/include/core_cm4.h **** /* DWT Comparator Function Register Definitions */
1021:Generated_Source\PSoC6\pdl\cmsis/include/core_cm4.h **** #define DWT_FUNCTION_MATCHED_Pos           24U                                         /*!< DWT FUN
1022:Generated_Source\PSoC6\pdl\cmsis/include/core_cm4.h **** #define DWT_FUNCTION_MATCHED_Msk           (0x1UL << DWT_FUNCTION_MATCHED_Pos)         /*!< DWT FUN
1023:Generated_Source\PSoC6\pdl\cmsis/include/core_cm4.h **** 
1024:Generated_Source\PSoC6\pdl\cmsis/include/core_cm4.h **** #define DWT_FUNCTION_DATAVADDR1_Pos        16U                                         /*!< DWT FUN
1025:Generated_Source\PSoC6\pdl\cmsis/include/core_cm4.h **** #define DWT_FUNCTION_DATAVADDR1_Msk        (0xFUL << DWT_FUNCTION_DATAVADDR1_Pos)      /*!< DWT FUN
1026:Generated_Source\PSoC6\pdl\cmsis/include/core_cm4.h **** 
1027:Generated_Source\PSoC6\pdl\cmsis/include/core_cm4.h **** #define DWT_FUNCTION_DATAVADDR0_Pos        12U                                         /*!< DWT FUN
1028:Generated_Source\PSoC6\pdl\cmsis/include/core_cm4.h **** #define DWT_FUNCTION_DATAVADDR0_Msk        (0xFUL << DWT_FUNCTION_DATAVADDR0_Pos)      /*!< DWT FUN
1029:Generated_Source\PSoC6\pdl\cmsis/include/core_cm4.h **** 
1030:Generated_Source\PSoC6\pdl\cmsis/include/core_cm4.h **** #define DWT_FUNCTION_DATAVSIZE_Pos         10U                                         /*!< DWT FUN
1031:Generated_Source\PSoC6\pdl\cmsis/include/core_cm4.h **** #define DWT_FUNCTION_DATAVSIZE_Msk         (0x3UL << DWT_FUNCTION_DATAVSIZE_Pos)       /*!< DWT FUN
1032:Generated_Source\PSoC6\pdl\cmsis/include/core_cm4.h **** 
1033:Generated_Source\PSoC6\pdl\cmsis/include/core_cm4.h **** #define DWT_FUNCTION_LNK1ENA_Pos            9U                                         /*!< DWT FUN
1034:Generated_Source\PSoC6\pdl\cmsis/include/core_cm4.h **** #define DWT_FUNCTION_LNK1ENA_Msk           (0x1UL << DWT_FUNCTION_LNK1ENA_Pos)         /*!< DWT FUN
1035:Generated_Source\PSoC6\pdl\cmsis/include/core_cm4.h **** 
1036:Generated_Source\PSoC6\pdl\cmsis/include/core_cm4.h **** #define DWT_FUNCTION_DATAVMATCH_Pos         8U                                         /*!< DWT FUN
1037:Generated_Source\PSoC6\pdl\cmsis/include/core_cm4.h **** #define DWT_FUNCTION_DATAVMATCH_Msk        (0x1UL << DWT_FUNCTION_DATAVMATCH_Pos)      /*!< DWT FUN
1038:Generated_Source\PSoC6\pdl\cmsis/include/core_cm4.h **** 
1039:Generated_Source\PSoC6\pdl\cmsis/include/core_cm4.h **** #define DWT_FUNCTION_CYCMATCH_Pos           7U                                         /*!< DWT FUN
1040:Generated_Source\PSoC6\pdl\cmsis/include/core_cm4.h **** #define DWT_FUNCTION_CYCMATCH_Msk          (0x1UL << DWT_FUNCTION_CYCMATCH_Pos)        /*!< DWT FUN
1041:Generated_Source\PSoC6\pdl\cmsis/include/core_cm4.h **** 
1042:Generated_Source\PSoC6\pdl\cmsis/include/core_cm4.h **** #define DWT_FUNCTION_EMITRANGE_Pos          5U                                         /*!< DWT FUN
1043:Generated_Source\PSoC6\pdl\cmsis/include/core_cm4.h **** #define DWT_FUNCTION_EMITRANGE_Msk         (0x1UL << DWT_FUNCTION_EMITRANGE_Pos)       /*!< DWT FUN
1044:Generated_Source\PSoC6\pdl\cmsis/include/core_cm4.h **** 
1045:Generated_Source\PSoC6\pdl\cmsis/include/core_cm4.h **** #define DWT_FUNCTION_FUNCTION_Pos           0U                                         /*!< DWT FUN
1046:Generated_Source\PSoC6\pdl\cmsis/include/core_cm4.h **** #define DWT_FUNCTION_FUNCTION_Msk          (0xFUL /*<< DWT_FUNCTION_FUNCTION_Pos*/)    /*!< DWT FUN
1047:Generated_Source\PSoC6\pdl\cmsis/include/core_cm4.h **** 
1048:Generated_Source\PSoC6\pdl\cmsis/include/core_cm4.h **** /*@}*/ /* end of group CMSIS_DWT */
1049:Generated_Source\PSoC6\pdl\cmsis/include/core_cm4.h **** 
1050:Generated_Source\PSoC6\pdl\cmsis/include/core_cm4.h **** 
1051:Generated_Source\PSoC6\pdl\cmsis/include/core_cm4.h **** /**
1052:Generated_Source\PSoC6\pdl\cmsis/include/core_cm4.h ****   \ingroup  CMSIS_core_register
1053:Generated_Source\PSoC6\pdl\cmsis/include/core_cm4.h ****   \defgroup CMSIS_TPI     Trace Port Interface (TPI)
1054:Generated_Source\PSoC6\pdl\cmsis/include/core_cm4.h ****   \brief    Type definitions for the Trace Port Interface (TPI)
1055:Generated_Source\PSoC6\pdl\cmsis/include/core_cm4.h ****   @{
1056:Generated_Source\PSoC6\pdl\cmsis/include/core_cm4.h ****  */
1057:Generated_Source\PSoC6\pdl\cmsis/include/core_cm4.h **** 
ARM GAS  C:\Users\yomat\AppData\Local\Temp\cc0omv11.s 			page 33


1058:Generated_Source\PSoC6\pdl\cmsis/include/core_cm4.h **** /**
1059:Generated_Source\PSoC6\pdl\cmsis/include/core_cm4.h ****   \brief  Structure type to access the Trace Port Interface Register (TPI).
1060:Generated_Source\PSoC6\pdl\cmsis/include/core_cm4.h ****  */
1061:Generated_Source\PSoC6\pdl\cmsis/include/core_cm4.h **** typedef struct
1062:Generated_Source\PSoC6\pdl\cmsis/include/core_cm4.h **** {
1063:Generated_Source\PSoC6\pdl\cmsis/include/core_cm4.h ****   __IOM uint32_t SSPSR;                  /*!< Offset: 0x000 (R/ )  Supported Parallel Port Size Reg
1064:Generated_Source\PSoC6\pdl\cmsis/include/core_cm4.h ****   __IOM uint32_t CSPSR;                  /*!< Offset: 0x004 (R/W)  Current Parallel Port Size Regis
1065:Generated_Source\PSoC6\pdl\cmsis/include/core_cm4.h ****         uint32_t RESERVED0[2U];
1066:Generated_Source\PSoC6\pdl\cmsis/include/core_cm4.h ****   __IOM uint32_t ACPR;                   /*!< Offset: 0x010 (R/W)  Asynchronous Clock Prescaler Reg
1067:Generated_Source\PSoC6\pdl\cmsis/include/core_cm4.h ****         uint32_t RESERVED1[55U];
1068:Generated_Source\PSoC6\pdl\cmsis/include/core_cm4.h ****   __IOM uint32_t SPPR;                   /*!< Offset: 0x0F0 (R/W)  Selected Pin Protocol Register *
1069:Generated_Source\PSoC6\pdl\cmsis/include/core_cm4.h ****         uint32_t RESERVED2[131U];
1070:Generated_Source\PSoC6\pdl\cmsis/include/core_cm4.h ****   __IM  uint32_t FFSR;                   /*!< Offset: 0x300 (R/ )  Formatter and Flush Status Regis
1071:Generated_Source\PSoC6\pdl\cmsis/include/core_cm4.h ****   __IOM uint32_t FFCR;                   /*!< Offset: 0x304 (R/W)  Formatter and Flush Control Regi
1072:Generated_Source\PSoC6\pdl\cmsis/include/core_cm4.h ****   __IM  uint32_t FSCR;                   /*!< Offset: 0x308 (R/ )  Formatter Synchronization Counte
1073:Generated_Source\PSoC6\pdl\cmsis/include/core_cm4.h ****         uint32_t RESERVED3[759U];
1074:Generated_Source\PSoC6\pdl\cmsis/include/core_cm4.h ****   __IM  uint32_t TRIGGER;                /*!< Offset: 0xEE8 (R/ )  TRIGGER */
1075:Generated_Source\PSoC6\pdl\cmsis/include/core_cm4.h ****   __IM  uint32_t FIFO0;                  /*!< Offset: 0xEEC (R/ )  Integration ETM Data */
1076:Generated_Source\PSoC6\pdl\cmsis/include/core_cm4.h ****   __IM  uint32_t ITATBCTR2;              /*!< Offset: 0xEF0 (R/ )  ITATBCTR2 */
1077:Generated_Source\PSoC6\pdl\cmsis/include/core_cm4.h ****         uint32_t RESERVED4[1U];
1078:Generated_Source\PSoC6\pdl\cmsis/include/core_cm4.h ****   __IM  uint32_t ITATBCTR0;              /*!< Offset: 0xEF8 (R/ )  ITATBCTR0 */
1079:Generated_Source\PSoC6\pdl\cmsis/include/core_cm4.h ****   __IM  uint32_t FIFO1;                  /*!< Offset: 0xEFC (R/ )  Integration ITM Data */
1080:Generated_Source\PSoC6\pdl\cmsis/include/core_cm4.h ****   __IOM uint32_t ITCTRL;                 /*!< Offset: 0xF00 (R/W)  Integration Mode Control */
1081:Generated_Source\PSoC6\pdl\cmsis/include/core_cm4.h ****         uint32_t RESERVED5[39U];
1082:Generated_Source\PSoC6\pdl\cmsis/include/core_cm4.h ****   __IOM uint32_t CLAIMSET;               /*!< Offset: 0xFA0 (R/W)  Claim tag set */
1083:Generated_Source\PSoC6\pdl\cmsis/include/core_cm4.h ****   __IOM uint32_t CLAIMCLR;               /*!< Offset: 0xFA4 (R/W)  Claim tag clear */
1084:Generated_Source\PSoC6\pdl\cmsis/include/core_cm4.h ****         uint32_t RESERVED7[8U];
1085:Generated_Source\PSoC6\pdl\cmsis/include/core_cm4.h ****   __IM  uint32_t DEVID;                  /*!< Offset: 0xFC8 (R/ )  TPIU_DEVID */
1086:Generated_Source\PSoC6\pdl\cmsis/include/core_cm4.h ****   __IM  uint32_t DEVTYPE;                /*!< Offset: 0xFCC (R/ )  TPIU_DEVTYPE */
1087:Generated_Source\PSoC6\pdl\cmsis/include/core_cm4.h **** } TPI_Type;
1088:Generated_Source\PSoC6\pdl\cmsis/include/core_cm4.h **** 
1089:Generated_Source\PSoC6\pdl\cmsis/include/core_cm4.h **** /* TPI Asynchronous Clock Prescaler Register Definitions */
1090:Generated_Source\PSoC6\pdl\cmsis/include/core_cm4.h **** #define TPI_ACPR_PRESCALER_Pos              0U                                         /*!< @Deprec
1091:Generated_Source\PSoC6\pdl\cmsis/include/core_cm4.h **** #define TPI_ACPR_PRESCALER_Msk             (0x1FFFUL /*<< TPI_ACPR_PRESCALER_Pos*/)    /*!< @Deprec
1092:Generated_Source\PSoC6\pdl\cmsis/include/core_cm4.h **** 
1093:Generated_Source\PSoC6\pdl\cmsis/include/core_cm4.h **** #define TPI_ACPR_SWOSCALER_Pos              0U                                         /*!< TPI ACP
1094:Generated_Source\PSoC6\pdl\cmsis/include/core_cm4.h **** #define TPI_ACPR_SWOSCALER_Msk             (0xFFFFUL /*<< TPI_ACPR_SWOSCALER_Pos*/)    /*!< TPI ACP
1095:Generated_Source\PSoC6\pdl\cmsis/include/core_cm4.h **** 
1096:Generated_Source\PSoC6\pdl\cmsis/include/core_cm4.h **** /* TPI Selected Pin Protocol Register Definitions */
1097:Generated_Source\PSoC6\pdl\cmsis/include/core_cm4.h **** #define TPI_SPPR_TXMODE_Pos                 0U                                         /*!< TPI SPP
1098:Generated_Source\PSoC6\pdl\cmsis/include/core_cm4.h **** #define TPI_SPPR_TXMODE_Msk                (0x3UL /*<< TPI_SPPR_TXMODE_Pos*/)          /*!< TPI SPP
1099:Generated_Source\PSoC6\pdl\cmsis/include/core_cm4.h **** 
1100:Generated_Source\PSoC6\pdl\cmsis/include/core_cm4.h **** /* TPI Formatter and Flush Status Register Definitions */
1101:Generated_Source\PSoC6\pdl\cmsis/include/core_cm4.h **** #define TPI_FFSR_FtNonStop_Pos              3U                                         /*!< TPI FFS
1102:Generated_Source\PSoC6\pdl\cmsis/include/core_cm4.h **** #define TPI_FFSR_FtNonStop_Msk             (0x1UL << TPI_FFSR_FtNonStop_Pos)           /*!< TPI FFS
1103:Generated_Source\PSoC6\pdl\cmsis/include/core_cm4.h **** 
1104:Generated_Source\PSoC6\pdl\cmsis/include/core_cm4.h **** #define TPI_FFSR_TCPresent_Pos              2U                                         /*!< TPI FFS
1105:Generated_Source\PSoC6\pdl\cmsis/include/core_cm4.h **** #define TPI_FFSR_TCPresent_Msk             (0x1UL << TPI_FFSR_TCPresent_Pos)           /*!< TPI FFS
1106:Generated_Source\PSoC6\pdl\cmsis/include/core_cm4.h **** 
1107:Generated_Source\PSoC6\pdl\cmsis/include/core_cm4.h **** #define TPI_FFSR_FtStopped_Pos              1U                                         /*!< TPI FFS
1108:Generated_Source\PSoC6\pdl\cmsis/include/core_cm4.h **** #define TPI_FFSR_FtStopped_Msk             (0x1UL << TPI_FFSR_FtStopped_Pos)           /*!< TPI FFS
1109:Generated_Source\PSoC6\pdl\cmsis/include/core_cm4.h **** 
1110:Generated_Source\PSoC6\pdl\cmsis/include/core_cm4.h **** #define TPI_FFSR_FlInProg_Pos               0U                                         /*!< TPI FFS
1111:Generated_Source\PSoC6\pdl\cmsis/include/core_cm4.h **** #define TPI_FFSR_FlInProg_Msk              (0x1UL /*<< TPI_FFSR_FlInProg_Pos*/)        /*!< TPI FFS
1112:Generated_Source\PSoC6\pdl\cmsis/include/core_cm4.h **** 
1113:Generated_Source\PSoC6\pdl\cmsis/include/core_cm4.h **** /* TPI Formatter and Flush Control Register Definitions */
1114:Generated_Source\PSoC6\pdl\cmsis/include/core_cm4.h **** #define TPI_FFCR_TrigIn_Pos                 8U                                         /*!< TPI FFC
ARM GAS  C:\Users\yomat\AppData\Local\Temp\cc0omv11.s 			page 34


1115:Generated_Source\PSoC6\pdl\cmsis/include/core_cm4.h **** #define TPI_FFCR_TrigIn_Msk                (0x1UL << TPI_FFCR_TrigIn_Pos)              /*!< TPI FFC
1116:Generated_Source\PSoC6\pdl\cmsis/include/core_cm4.h **** 
1117:Generated_Source\PSoC6\pdl\cmsis/include/core_cm4.h **** #define TPI_FFCR_EnFCont_Pos                1U                                         /*!< TPI FFC
1118:Generated_Source\PSoC6\pdl\cmsis/include/core_cm4.h **** #define TPI_FFCR_EnFCont_Msk               (0x1UL << TPI_FFCR_EnFCont_Pos)             /*!< TPI FFC
1119:Generated_Source\PSoC6\pdl\cmsis/include/core_cm4.h **** 
1120:Generated_Source\PSoC6\pdl\cmsis/include/core_cm4.h **** /* TPI TRIGGER Register Definitions */
1121:Generated_Source\PSoC6\pdl\cmsis/include/core_cm4.h **** #define TPI_TRIGGER_TRIGGER_Pos             0U                                         /*!< TPI TRI
1122:Generated_Source\PSoC6\pdl\cmsis/include/core_cm4.h **** #define TPI_TRIGGER_TRIGGER_Msk            (0x1UL /*<< TPI_TRIGGER_TRIGGER_Pos*/)      /*!< TPI TRI
1123:Generated_Source\PSoC6\pdl\cmsis/include/core_cm4.h **** 
1124:Generated_Source\PSoC6\pdl\cmsis/include/core_cm4.h **** /* TPI Integration ETM Data Register Definitions (FIFO0) */
1125:Generated_Source\PSoC6\pdl\cmsis/include/core_cm4.h **** #define TPI_FIFO0_ITM_ATVALID_Pos          29U                                         /*!< TPI FIF
1126:Generated_Source\PSoC6\pdl\cmsis/include/core_cm4.h **** #define TPI_FIFO0_ITM_ATVALID_Msk          (0x3UL << TPI_FIFO0_ITM_ATVALID_Pos)        /*!< TPI FIF
1127:Generated_Source\PSoC6\pdl\cmsis/include/core_cm4.h **** 
1128:Generated_Source\PSoC6\pdl\cmsis/include/core_cm4.h **** #define TPI_FIFO0_ITM_bytecount_Pos        27U                                         /*!< TPI FIF
1129:Generated_Source\PSoC6\pdl\cmsis/include/core_cm4.h **** #define TPI_FIFO0_ITM_bytecount_Msk        (0x3UL << TPI_FIFO0_ITM_bytecount_Pos)      /*!< TPI FIF
1130:Generated_Source\PSoC6\pdl\cmsis/include/core_cm4.h **** 
1131:Generated_Source\PSoC6\pdl\cmsis/include/core_cm4.h **** #define TPI_FIFO0_ETM_ATVALID_Pos          26U                                         /*!< TPI FIF
1132:Generated_Source\PSoC6\pdl\cmsis/include/core_cm4.h **** #define TPI_FIFO0_ETM_ATVALID_Msk          (0x3UL << TPI_FIFO0_ETM_ATVALID_Pos)        /*!< TPI FIF
1133:Generated_Source\PSoC6\pdl\cmsis/include/core_cm4.h **** 
1134:Generated_Source\PSoC6\pdl\cmsis/include/core_cm4.h **** #define TPI_FIFO0_ETM_bytecount_Pos        24U                                         /*!< TPI FIF
1135:Generated_Source\PSoC6\pdl\cmsis/include/core_cm4.h **** #define TPI_FIFO0_ETM_bytecount_Msk        (0x3UL << TPI_FIFO0_ETM_bytecount_Pos)      /*!< TPI FIF
1136:Generated_Source\PSoC6\pdl\cmsis/include/core_cm4.h **** 
1137:Generated_Source\PSoC6\pdl\cmsis/include/core_cm4.h **** #define TPI_FIFO0_ETM2_Pos                 16U                                         /*!< TPI FIF
1138:Generated_Source\PSoC6\pdl\cmsis/include/core_cm4.h **** #define TPI_FIFO0_ETM2_Msk                 (0xFFUL << TPI_FIFO0_ETM2_Pos)              /*!< TPI FIF
1139:Generated_Source\PSoC6\pdl\cmsis/include/core_cm4.h **** 
1140:Generated_Source\PSoC6\pdl\cmsis/include/core_cm4.h **** #define TPI_FIFO0_ETM1_Pos                  8U                                         /*!< TPI FIF
1141:Generated_Source\PSoC6\pdl\cmsis/include/core_cm4.h **** #define TPI_FIFO0_ETM1_Msk                 (0xFFUL << TPI_FIFO0_ETM1_Pos)              /*!< TPI FIF
1142:Generated_Source\PSoC6\pdl\cmsis/include/core_cm4.h **** 
1143:Generated_Source\PSoC6\pdl\cmsis/include/core_cm4.h **** #define TPI_FIFO0_ETM0_Pos                  0U                                         /*!< TPI FIF
1144:Generated_Source\PSoC6\pdl\cmsis/include/core_cm4.h **** #define TPI_FIFO0_ETM0_Msk                 (0xFFUL /*<< TPI_FIFO0_ETM0_Pos*/)          /*!< TPI FIF
1145:Generated_Source\PSoC6\pdl\cmsis/include/core_cm4.h **** 
1146:Generated_Source\PSoC6\pdl\cmsis/include/core_cm4.h **** /* TPI ITATBCTR2 Register Definitions */
1147:Generated_Source\PSoC6\pdl\cmsis/include/core_cm4.h **** #define TPI_ITATBCTR2_ATREADY_Pos           0U                                         /*!< TPI ITA
1148:Generated_Source\PSoC6\pdl\cmsis/include/core_cm4.h **** #define TPI_ITATBCTR2_ATREADY_Msk          (0x1UL /*<< TPI_ITATBCTR2_ATREADY_Pos*/)    /*!< TPI ITA
1149:Generated_Source\PSoC6\pdl\cmsis/include/core_cm4.h **** 
1150:Generated_Source\PSoC6\pdl\cmsis/include/core_cm4.h **** /* TPI Integration ITM Data Register Definitions (FIFO1) */
1151:Generated_Source\PSoC6\pdl\cmsis/include/core_cm4.h **** #define TPI_FIFO1_ITM_ATVALID_Pos          29U                                         /*!< TPI FIF
1152:Generated_Source\PSoC6\pdl\cmsis/include/core_cm4.h **** #define TPI_FIFO1_ITM_ATVALID_Msk          (0x3UL << TPI_FIFO1_ITM_ATVALID_Pos)        /*!< TPI FIF
1153:Generated_Source\PSoC6\pdl\cmsis/include/core_cm4.h **** 
1154:Generated_Source\PSoC6\pdl\cmsis/include/core_cm4.h **** #define TPI_FIFO1_ITM_bytecount_Pos        27U                                         /*!< TPI FIF
1155:Generated_Source\PSoC6\pdl\cmsis/include/core_cm4.h **** #define TPI_FIFO1_ITM_bytecount_Msk        (0x3UL << TPI_FIFO1_ITM_bytecount_Pos)      /*!< TPI FIF
1156:Generated_Source\PSoC6\pdl\cmsis/include/core_cm4.h **** 
1157:Generated_Source\PSoC6\pdl\cmsis/include/core_cm4.h **** #define TPI_FIFO1_ETM_ATVALID_Pos          26U                                         /*!< TPI FIF
1158:Generated_Source\PSoC6\pdl\cmsis/include/core_cm4.h **** #define TPI_FIFO1_ETM_ATVALID_Msk          (0x3UL << TPI_FIFO1_ETM_ATVALID_Pos)        /*!< TPI FIF
1159:Generated_Source\PSoC6\pdl\cmsis/include/core_cm4.h **** 
1160:Generated_Source\PSoC6\pdl\cmsis/include/core_cm4.h **** #define TPI_FIFO1_ETM_bytecount_Pos        24U                                         /*!< TPI FIF
1161:Generated_Source\PSoC6\pdl\cmsis/include/core_cm4.h **** #define TPI_FIFO1_ETM_bytecount_Msk        (0x3UL << TPI_FIFO1_ETM_bytecount_Pos)      /*!< TPI FIF
1162:Generated_Source\PSoC6\pdl\cmsis/include/core_cm4.h **** 
1163:Generated_Source\PSoC6\pdl\cmsis/include/core_cm4.h **** #define TPI_FIFO1_ITM2_Pos                 16U                                         /*!< TPI FIF
1164:Generated_Source\PSoC6\pdl\cmsis/include/core_cm4.h **** #define TPI_FIFO1_ITM2_Msk                 (0xFFUL << TPI_FIFO1_ITM2_Pos)              /*!< TPI FIF
1165:Generated_Source\PSoC6\pdl\cmsis/include/core_cm4.h **** 
1166:Generated_Source\PSoC6\pdl\cmsis/include/core_cm4.h **** #define TPI_FIFO1_ITM1_Pos                  8U                                         /*!< TPI FIF
1167:Generated_Source\PSoC6\pdl\cmsis/include/core_cm4.h **** #define TPI_FIFO1_ITM1_Msk                 (0xFFUL << TPI_FIFO1_ITM1_Pos)              /*!< TPI FIF
1168:Generated_Source\PSoC6\pdl\cmsis/include/core_cm4.h **** 
1169:Generated_Source\PSoC6\pdl\cmsis/include/core_cm4.h **** #define TPI_FIFO1_ITM0_Pos                  0U                                         /*!< TPI FIF
1170:Generated_Source\PSoC6\pdl\cmsis/include/core_cm4.h **** #define TPI_FIFO1_ITM0_Msk                 (0xFFUL /*<< TPI_FIFO1_ITM0_Pos*/)          /*!< TPI FIF
1171:Generated_Source\PSoC6\pdl\cmsis/include/core_cm4.h **** 
ARM GAS  C:\Users\yomat\AppData\Local\Temp\cc0omv11.s 			page 35


1172:Generated_Source\PSoC6\pdl\cmsis/include/core_cm4.h **** /* TPI ITATBCTR0 Register Definitions */
1173:Generated_Source\PSoC6\pdl\cmsis/include/core_cm4.h **** #define TPI_ITATBCTR0_ATREADY_Pos           0U                                         /*!< TPI ITA
1174:Generated_Source\PSoC6\pdl\cmsis/include/core_cm4.h **** #define TPI_ITATBCTR0_ATREADY_Msk          (0x1UL /*<< TPI_ITATBCTR0_ATREADY_Pos*/)    /*!< TPI ITA
1175:Generated_Source\PSoC6\pdl\cmsis/include/core_cm4.h **** 
1176:Generated_Source\PSoC6\pdl\cmsis/include/core_cm4.h **** /* TPI Integration Mode Control Register Definitions */
1177:Generated_Source\PSoC6\pdl\cmsis/include/core_cm4.h **** #define TPI_ITCTRL_Mode_Pos                 0U                                         /*!< TPI ITC
1178:Generated_Source\PSoC6\pdl\cmsis/include/core_cm4.h **** #define TPI_ITCTRL_Mode_Msk                (0x1UL /*<< TPI_ITCTRL_Mode_Pos*/)          /*!< TPI ITC
1179:Generated_Source\PSoC6\pdl\cmsis/include/core_cm4.h **** 
1180:Generated_Source\PSoC6\pdl\cmsis/include/core_cm4.h **** /* TPI DEVID Register Definitions */
1181:Generated_Source\PSoC6\pdl\cmsis/include/core_cm4.h **** #define TPI_DEVID_NRZVALID_Pos             11U                                         /*!< TPI DEV
1182:Generated_Source\PSoC6\pdl\cmsis/include/core_cm4.h **** #define TPI_DEVID_NRZVALID_Msk             (0x1UL << TPI_DEVID_NRZVALID_Pos)           /*!< TPI DEV
1183:Generated_Source\PSoC6\pdl\cmsis/include/core_cm4.h **** 
1184:Generated_Source\PSoC6\pdl\cmsis/include/core_cm4.h **** #define TPI_DEVID_MANCVALID_Pos            10U                                         /*!< TPI DEV
1185:Generated_Source\PSoC6\pdl\cmsis/include/core_cm4.h **** #define TPI_DEVID_MANCVALID_Msk            (0x1UL << TPI_DEVID_MANCVALID_Pos)          /*!< TPI DEV
1186:Generated_Source\PSoC6\pdl\cmsis/include/core_cm4.h **** 
1187:Generated_Source\PSoC6\pdl\cmsis/include/core_cm4.h **** #define TPI_DEVID_PTINVALID_Pos             9U                                         /*!< TPI DEV
1188:Generated_Source\PSoC6\pdl\cmsis/include/core_cm4.h **** #define TPI_DEVID_PTINVALID_Msk            (0x1UL << TPI_DEVID_PTINVALID_Pos)          /*!< TPI DEV
1189:Generated_Source\PSoC6\pdl\cmsis/include/core_cm4.h **** 
1190:Generated_Source\PSoC6\pdl\cmsis/include/core_cm4.h **** #define TPI_DEVID_MinBufSz_Pos              6U                                         /*!< TPI DEV
1191:Generated_Source\PSoC6\pdl\cmsis/include/core_cm4.h **** #define TPI_DEVID_MinBufSz_Msk             (0x7UL << TPI_DEVID_MinBufSz_Pos)           /*!< TPI DEV
1192:Generated_Source\PSoC6\pdl\cmsis/include/core_cm4.h **** 
1193:Generated_Source\PSoC6\pdl\cmsis/include/core_cm4.h **** #define TPI_DEVID_AsynClkIn_Pos             5U                                         /*!< TPI DEV
1194:Generated_Source\PSoC6\pdl\cmsis/include/core_cm4.h **** #define TPI_DEVID_AsynClkIn_Msk            (0x1UL << TPI_DEVID_AsynClkIn_Pos)          /*!< TPI DEV
1195:Generated_Source\PSoC6\pdl\cmsis/include/core_cm4.h **** 
1196:Generated_Source\PSoC6\pdl\cmsis/include/core_cm4.h **** #define TPI_DEVID_NrTraceInput_Pos          0U                                         /*!< TPI DEV
1197:Generated_Source\PSoC6\pdl\cmsis/include/core_cm4.h **** #define TPI_DEVID_NrTraceInput_Msk         (0x1FUL /*<< TPI_DEVID_NrTraceInput_Pos*/)  /*!< TPI DEV
1198:Generated_Source\PSoC6\pdl\cmsis/include/core_cm4.h **** 
1199:Generated_Source\PSoC6\pdl\cmsis/include/core_cm4.h **** /* TPI DEVTYPE Register Definitions */
1200:Generated_Source\PSoC6\pdl\cmsis/include/core_cm4.h **** #define TPI_DEVTYPE_MajorType_Pos           4U                                         /*!< TPI DEV
1201:Generated_Source\PSoC6\pdl\cmsis/include/core_cm4.h **** #define TPI_DEVTYPE_MajorType_Msk          (0xFUL << TPI_DEVTYPE_MajorType_Pos)        /*!< TPI DEV
1202:Generated_Source\PSoC6\pdl\cmsis/include/core_cm4.h **** 
1203:Generated_Source\PSoC6\pdl\cmsis/include/core_cm4.h **** #define TPI_DEVTYPE_SubType_Pos             0U                                         /*!< TPI DEV
1204:Generated_Source\PSoC6\pdl\cmsis/include/core_cm4.h **** #define TPI_DEVTYPE_SubType_Msk            (0xFUL /*<< TPI_DEVTYPE_SubType_Pos*/)      /*!< TPI DEV
1205:Generated_Source\PSoC6\pdl\cmsis/include/core_cm4.h **** 
1206:Generated_Source\PSoC6\pdl\cmsis/include/core_cm4.h **** /*@}*/ /* end of group CMSIS_TPI */
1207:Generated_Source\PSoC6\pdl\cmsis/include/core_cm4.h **** 
1208:Generated_Source\PSoC6\pdl\cmsis/include/core_cm4.h **** 
1209:Generated_Source\PSoC6\pdl\cmsis/include/core_cm4.h **** #if defined (__MPU_PRESENT) && (__MPU_PRESENT == 1U)
1210:Generated_Source\PSoC6\pdl\cmsis/include/core_cm4.h **** /**
1211:Generated_Source\PSoC6\pdl\cmsis/include/core_cm4.h ****   \ingroup  CMSIS_core_register
1212:Generated_Source\PSoC6\pdl\cmsis/include/core_cm4.h ****   \defgroup CMSIS_MPU     Memory Protection Unit (MPU)
1213:Generated_Source\PSoC6\pdl\cmsis/include/core_cm4.h ****   \brief    Type definitions for the Memory Protection Unit (MPU)
1214:Generated_Source\PSoC6\pdl\cmsis/include/core_cm4.h ****   @{
1215:Generated_Source\PSoC6\pdl\cmsis/include/core_cm4.h ****  */
1216:Generated_Source\PSoC6\pdl\cmsis/include/core_cm4.h **** 
1217:Generated_Source\PSoC6\pdl\cmsis/include/core_cm4.h **** /**
1218:Generated_Source\PSoC6\pdl\cmsis/include/core_cm4.h ****   \brief  Structure type to access the Memory Protection Unit (MPU).
1219:Generated_Source\PSoC6\pdl\cmsis/include/core_cm4.h ****  */
1220:Generated_Source\PSoC6\pdl\cmsis/include/core_cm4.h **** typedef struct
1221:Generated_Source\PSoC6\pdl\cmsis/include/core_cm4.h **** {
1222:Generated_Source\PSoC6\pdl\cmsis/include/core_cm4.h ****   __IM  uint32_t TYPE;                   /*!< Offset: 0x000 (R/ )  MPU Type Register */
1223:Generated_Source\PSoC6\pdl\cmsis/include/core_cm4.h ****   __IOM uint32_t CTRL;                   /*!< Offset: 0x004 (R/W)  MPU Control Register */
1224:Generated_Source\PSoC6\pdl\cmsis/include/core_cm4.h ****   __IOM uint32_t RNR;                    /*!< Offset: 0x008 (R/W)  MPU Region RNRber Register */
1225:Generated_Source\PSoC6\pdl\cmsis/include/core_cm4.h ****   __IOM uint32_t RBAR;                   /*!< Offset: 0x00C (R/W)  MPU Region Base Address Register
1226:Generated_Source\PSoC6\pdl\cmsis/include/core_cm4.h ****   __IOM uint32_t RASR;                   /*!< Offset: 0x010 (R/W)  MPU Region Attribute and Size Re
1227:Generated_Source\PSoC6\pdl\cmsis/include/core_cm4.h ****   __IOM uint32_t RBAR_A1;                /*!< Offset: 0x014 (R/W)  MPU Alias 1 Region Base Address 
1228:Generated_Source\PSoC6\pdl\cmsis/include/core_cm4.h ****   __IOM uint32_t RASR_A1;                /*!< Offset: 0x018 (R/W)  MPU Alias 1 Region Attribute and
ARM GAS  C:\Users\yomat\AppData\Local\Temp\cc0omv11.s 			page 36


1229:Generated_Source\PSoC6\pdl\cmsis/include/core_cm4.h ****   __IOM uint32_t RBAR_A2;                /*!< Offset: 0x01C (R/W)  MPU Alias 2 Region Base Address 
1230:Generated_Source\PSoC6\pdl\cmsis/include/core_cm4.h ****   __IOM uint32_t RASR_A2;                /*!< Offset: 0x020 (R/W)  MPU Alias 2 Region Attribute and
1231:Generated_Source\PSoC6\pdl\cmsis/include/core_cm4.h ****   __IOM uint32_t RBAR_A3;                /*!< Offset: 0x024 (R/W)  MPU Alias 3 Region Base Address 
1232:Generated_Source\PSoC6\pdl\cmsis/include/core_cm4.h ****   __IOM uint32_t RASR_A3;                /*!< Offset: 0x028 (R/W)  MPU Alias 3 Region Attribute and
1233:Generated_Source\PSoC6\pdl\cmsis/include/core_cm4.h **** } MPU_Type;
1234:Generated_Source\PSoC6\pdl\cmsis/include/core_cm4.h **** 
1235:Generated_Source\PSoC6\pdl\cmsis/include/core_cm4.h **** #define MPU_TYPE_RALIASES                  4U
1236:Generated_Source\PSoC6\pdl\cmsis/include/core_cm4.h **** 
1237:Generated_Source\PSoC6\pdl\cmsis/include/core_cm4.h **** /* MPU Type Register Definitions */
1238:Generated_Source\PSoC6\pdl\cmsis/include/core_cm4.h **** #define MPU_TYPE_IREGION_Pos               16U                                            /*!< MPU 
1239:Generated_Source\PSoC6\pdl\cmsis/include/core_cm4.h **** #define MPU_TYPE_IREGION_Msk               (0xFFUL << MPU_TYPE_IREGION_Pos)               /*!< MPU 
1240:Generated_Source\PSoC6\pdl\cmsis/include/core_cm4.h **** 
1241:Generated_Source\PSoC6\pdl\cmsis/include/core_cm4.h **** #define MPU_TYPE_DREGION_Pos                8U                                            /*!< MPU 
1242:Generated_Source\PSoC6\pdl\cmsis/include/core_cm4.h **** #define MPU_TYPE_DREGION_Msk               (0xFFUL << MPU_TYPE_DREGION_Pos)               /*!< MPU 
1243:Generated_Source\PSoC6\pdl\cmsis/include/core_cm4.h **** 
1244:Generated_Source\PSoC6\pdl\cmsis/include/core_cm4.h **** #define MPU_TYPE_SEPARATE_Pos               0U                                            /*!< MPU 
1245:Generated_Source\PSoC6\pdl\cmsis/include/core_cm4.h **** #define MPU_TYPE_SEPARATE_Msk              (1UL /*<< MPU_TYPE_SEPARATE_Pos*/)             /*!< MPU 
1246:Generated_Source\PSoC6\pdl\cmsis/include/core_cm4.h **** 
1247:Generated_Source\PSoC6\pdl\cmsis/include/core_cm4.h **** /* MPU Control Register Definitions */
1248:Generated_Source\PSoC6\pdl\cmsis/include/core_cm4.h **** #define MPU_CTRL_PRIVDEFENA_Pos             2U                                            /*!< MPU 
1249:Generated_Source\PSoC6\pdl\cmsis/include/core_cm4.h **** #define MPU_CTRL_PRIVDEFENA_Msk            (1UL << MPU_CTRL_PRIVDEFENA_Pos)               /*!< MPU 
1250:Generated_Source\PSoC6\pdl\cmsis/include/core_cm4.h **** 
1251:Generated_Source\PSoC6\pdl\cmsis/include/core_cm4.h **** #define MPU_CTRL_HFNMIENA_Pos               1U                                            /*!< MPU 
1252:Generated_Source\PSoC6\pdl\cmsis/include/core_cm4.h **** #define MPU_CTRL_HFNMIENA_Msk              (1UL << MPU_CTRL_HFNMIENA_Pos)                 /*!< MPU 
1253:Generated_Source\PSoC6\pdl\cmsis/include/core_cm4.h **** 
1254:Generated_Source\PSoC6\pdl\cmsis/include/core_cm4.h **** #define MPU_CTRL_ENABLE_Pos                 0U                                            /*!< MPU 
1255:Generated_Source\PSoC6\pdl\cmsis/include/core_cm4.h **** #define MPU_CTRL_ENABLE_Msk                (1UL /*<< MPU_CTRL_ENABLE_Pos*/)               /*!< MPU 
1256:Generated_Source\PSoC6\pdl\cmsis/include/core_cm4.h **** 
1257:Generated_Source\PSoC6\pdl\cmsis/include/core_cm4.h **** /* MPU Region Number Register Definitions */
1258:Generated_Source\PSoC6\pdl\cmsis/include/core_cm4.h **** #define MPU_RNR_REGION_Pos                  0U                                            /*!< MPU 
1259:Generated_Source\PSoC6\pdl\cmsis/include/core_cm4.h **** #define MPU_RNR_REGION_Msk                 (0xFFUL /*<< MPU_RNR_REGION_Pos*/)             /*!< MPU 
1260:Generated_Source\PSoC6\pdl\cmsis/include/core_cm4.h **** 
1261:Generated_Source\PSoC6\pdl\cmsis/include/core_cm4.h **** /* MPU Region Base Address Register Definitions */
1262:Generated_Source\PSoC6\pdl\cmsis/include/core_cm4.h **** #define MPU_RBAR_ADDR_Pos                   5U                                            /*!< MPU 
1263:Generated_Source\PSoC6\pdl\cmsis/include/core_cm4.h **** #define MPU_RBAR_ADDR_Msk                  (0x7FFFFFFUL << MPU_RBAR_ADDR_Pos)             /*!< MPU 
1264:Generated_Source\PSoC6\pdl\cmsis/include/core_cm4.h **** 
1265:Generated_Source\PSoC6\pdl\cmsis/include/core_cm4.h **** #define MPU_RBAR_VALID_Pos                  4U                                            /*!< MPU 
1266:Generated_Source\PSoC6\pdl\cmsis/include/core_cm4.h **** #define MPU_RBAR_VALID_Msk                 (1UL << MPU_RBAR_VALID_Pos)                    /*!< MPU 
1267:Generated_Source\PSoC6\pdl\cmsis/include/core_cm4.h **** 
1268:Generated_Source\PSoC6\pdl\cmsis/include/core_cm4.h **** #define MPU_RBAR_REGION_Pos                 0U                                            /*!< MPU 
1269:Generated_Source\PSoC6\pdl\cmsis/include/core_cm4.h **** #define MPU_RBAR_REGION_Msk                (0xFUL /*<< MPU_RBAR_REGION_Pos*/)             /*!< MPU 
1270:Generated_Source\PSoC6\pdl\cmsis/include/core_cm4.h **** 
1271:Generated_Source\PSoC6\pdl\cmsis/include/core_cm4.h **** /* MPU Region Attribute and Size Register Definitions */
1272:Generated_Source\PSoC6\pdl\cmsis/include/core_cm4.h **** #define MPU_RASR_ATTRS_Pos                 16U                                            /*!< MPU 
1273:Generated_Source\PSoC6\pdl\cmsis/include/core_cm4.h **** #define MPU_RASR_ATTRS_Msk                 (0xFFFFUL << MPU_RASR_ATTRS_Pos)               /*!< MPU 
1274:Generated_Source\PSoC6\pdl\cmsis/include/core_cm4.h **** 
1275:Generated_Source\PSoC6\pdl\cmsis/include/core_cm4.h **** #define MPU_RASR_XN_Pos                    28U                                            /*!< MPU 
1276:Generated_Source\PSoC6\pdl\cmsis/include/core_cm4.h **** #define MPU_RASR_XN_Msk                    (1UL << MPU_RASR_XN_Pos)                       /*!< MPU 
1277:Generated_Source\PSoC6\pdl\cmsis/include/core_cm4.h **** 
1278:Generated_Source\PSoC6\pdl\cmsis/include/core_cm4.h **** #define MPU_RASR_AP_Pos                    24U                                            /*!< MPU 
1279:Generated_Source\PSoC6\pdl\cmsis/include/core_cm4.h **** #define MPU_RASR_AP_Msk                    (0x7UL << MPU_RASR_AP_Pos)                     /*!< MPU 
1280:Generated_Source\PSoC6\pdl\cmsis/include/core_cm4.h **** 
1281:Generated_Source\PSoC6\pdl\cmsis/include/core_cm4.h **** #define MPU_RASR_TEX_Pos                   19U                                            /*!< MPU 
1282:Generated_Source\PSoC6\pdl\cmsis/include/core_cm4.h **** #define MPU_RASR_TEX_Msk                   (0x7UL << MPU_RASR_TEX_Pos)                    /*!< MPU 
1283:Generated_Source\PSoC6\pdl\cmsis/include/core_cm4.h **** 
1284:Generated_Source\PSoC6\pdl\cmsis/include/core_cm4.h **** #define MPU_RASR_S_Pos                     18U                                            /*!< MPU 
1285:Generated_Source\PSoC6\pdl\cmsis/include/core_cm4.h **** #define MPU_RASR_S_Msk                     (1UL << MPU_RASR_S_Pos)                        /*!< MPU 
ARM GAS  C:\Users\yomat\AppData\Local\Temp\cc0omv11.s 			page 37


1286:Generated_Source\PSoC6\pdl\cmsis/include/core_cm4.h **** 
1287:Generated_Source\PSoC6\pdl\cmsis/include/core_cm4.h **** #define MPU_RASR_C_Pos                     17U                                            /*!< MPU 
1288:Generated_Source\PSoC6\pdl\cmsis/include/core_cm4.h **** #define MPU_RASR_C_Msk                     (1UL << MPU_RASR_C_Pos)                        /*!< MPU 
1289:Generated_Source\PSoC6\pdl\cmsis/include/core_cm4.h **** 
1290:Generated_Source\PSoC6\pdl\cmsis/include/core_cm4.h **** #define MPU_RASR_B_Pos                     16U                                            /*!< MPU 
1291:Generated_Source\PSoC6\pdl\cmsis/include/core_cm4.h **** #define MPU_RASR_B_Msk                     (1UL << MPU_RASR_B_Pos)                        /*!< MPU 
1292:Generated_Source\PSoC6\pdl\cmsis/include/core_cm4.h **** 
1293:Generated_Source\PSoC6\pdl\cmsis/include/core_cm4.h **** #define MPU_RASR_SRD_Pos                    8U                                            /*!< MPU 
1294:Generated_Source\PSoC6\pdl\cmsis/include/core_cm4.h **** #define MPU_RASR_SRD_Msk                   (0xFFUL << MPU_RASR_SRD_Pos)                   /*!< MPU 
1295:Generated_Source\PSoC6\pdl\cmsis/include/core_cm4.h **** 
1296:Generated_Source\PSoC6\pdl\cmsis/include/core_cm4.h **** #define MPU_RASR_SIZE_Pos                   1U                                            /*!< MPU 
1297:Generated_Source\PSoC6\pdl\cmsis/include/core_cm4.h **** #define MPU_RASR_SIZE_Msk                  (0x1FUL << MPU_RASR_SIZE_Pos)                  /*!< MPU 
1298:Generated_Source\PSoC6\pdl\cmsis/include/core_cm4.h **** 
1299:Generated_Source\PSoC6\pdl\cmsis/include/core_cm4.h **** #define MPU_RASR_ENABLE_Pos                 0U                                            /*!< MPU 
1300:Generated_Source\PSoC6\pdl\cmsis/include/core_cm4.h **** #define MPU_RASR_ENABLE_Msk                (1UL /*<< MPU_RASR_ENABLE_Pos*/)               /*!< MPU 
1301:Generated_Source\PSoC6\pdl\cmsis/include/core_cm4.h **** 
1302:Generated_Source\PSoC6\pdl\cmsis/include/core_cm4.h **** /*@} end of group CMSIS_MPU */
1303:Generated_Source\PSoC6\pdl\cmsis/include/core_cm4.h **** #endif /* defined (__MPU_PRESENT) && (__MPU_PRESENT == 1U) */
1304:Generated_Source\PSoC6\pdl\cmsis/include/core_cm4.h **** 
1305:Generated_Source\PSoC6\pdl\cmsis/include/core_cm4.h **** 
1306:Generated_Source\PSoC6\pdl\cmsis/include/core_cm4.h **** /**
1307:Generated_Source\PSoC6\pdl\cmsis/include/core_cm4.h ****   \ingroup  CMSIS_core_register
1308:Generated_Source\PSoC6\pdl\cmsis/include/core_cm4.h ****   \defgroup CMSIS_FPU     Floating Point Unit (FPU)
1309:Generated_Source\PSoC6\pdl\cmsis/include/core_cm4.h ****   \brief    Type definitions for the Floating Point Unit (FPU)
1310:Generated_Source\PSoC6\pdl\cmsis/include/core_cm4.h ****   @{
1311:Generated_Source\PSoC6\pdl\cmsis/include/core_cm4.h ****  */
1312:Generated_Source\PSoC6\pdl\cmsis/include/core_cm4.h **** 
1313:Generated_Source\PSoC6\pdl\cmsis/include/core_cm4.h **** /**
1314:Generated_Source\PSoC6\pdl\cmsis/include/core_cm4.h ****   \brief  Structure type to access the Floating Point Unit (FPU).
1315:Generated_Source\PSoC6\pdl\cmsis/include/core_cm4.h ****  */
1316:Generated_Source\PSoC6\pdl\cmsis/include/core_cm4.h **** typedef struct
1317:Generated_Source\PSoC6\pdl\cmsis/include/core_cm4.h **** {
1318:Generated_Source\PSoC6\pdl\cmsis/include/core_cm4.h ****         uint32_t RESERVED0[1U];
1319:Generated_Source\PSoC6\pdl\cmsis/include/core_cm4.h ****   __IOM uint32_t FPCCR;                  /*!< Offset: 0x004 (R/W)  Floating-Point Context Control R
1320:Generated_Source\PSoC6\pdl\cmsis/include/core_cm4.h ****   __IOM uint32_t FPCAR;                  /*!< Offset: 0x008 (R/W)  Floating-Point Context Address R
1321:Generated_Source\PSoC6\pdl\cmsis/include/core_cm4.h ****   __IOM uint32_t FPDSCR;                 /*!< Offset: 0x00C (R/W)  Floating-Point Default Status Co
1322:Generated_Source\PSoC6\pdl\cmsis/include/core_cm4.h ****   __IM  uint32_t MVFR0;                  /*!< Offset: 0x010 (R/ )  Media and FP Feature Register 0 
1323:Generated_Source\PSoC6\pdl\cmsis/include/core_cm4.h ****   __IM  uint32_t MVFR1;                  /*!< Offset: 0x014 (R/ )  Media and FP Feature Register 1 
1324:Generated_Source\PSoC6\pdl\cmsis/include/core_cm4.h **** } FPU_Type;
1325:Generated_Source\PSoC6\pdl\cmsis/include/core_cm4.h **** 
1326:Generated_Source\PSoC6\pdl\cmsis/include/core_cm4.h **** /* Floating-Point Context Control Register Definitions */
1327:Generated_Source\PSoC6\pdl\cmsis/include/core_cm4.h **** #define FPU_FPCCR_ASPEN_Pos                31U                                            /*!< FPCC
1328:Generated_Source\PSoC6\pdl\cmsis/include/core_cm4.h **** #define FPU_FPCCR_ASPEN_Msk                (1UL << FPU_FPCCR_ASPEN_Pos)                   /*!< FPCC
1329:Generated_Source\PSoC6\pdl\cmsis/include/core_cm4.h **** 
1330:Generated_Source\PSoC6\pdl\cmsis/include/core_cm4.h **** #define FPU_FPCCR_LSPEN_Pos                30U                                            /*!< FPCC
1331:Generated_Source\PSoC6\pdl\cmsis/include/core_cm4.h **** #define FPU_FPCCR_LSPEN_Msk                (1UL << FPU_FPCCR_LSPEN_Pos)                   /*!< FPCC
1332:Generated_Source\PSoC6\pdl\cmsis/include/core_cm4.h **** 
1333:Generated_Source\PSoC6\pdl\cmsis/include/core_cm4.h **** #define FPU_FPCCR_MONRDY_Pos                8U                                            /*!< FPCC
1334:Generated_Source\PSoC6\pdl\cmsis/include/core_cm4.h **** #define FPU_FPCCR_MONRDY_Msk               (1UL << FPU_FPCCR_MONRDY_Pos)                  /*!< FPCC
1335:Generated_Source\PSoC6\pdl\cmsis/include/core_cm4.h **** 
1336:Generated_Source\PSoC6\pdl\cmsis/include/core_cm4.h **** #define FPU_FPCCR_BFRDY_Pos                 6U                                            /*!< FPCC
1337:Generated_Source\PSoC6\pdl\cmsis/include/core_cm4.h **** #define FPU_FPCCR_BFRDY_Msk                (1UL << FPU_FPCCR_BFRDY_Pos)                   /*!< FPCC
1338:Generated_Source\PSoC6\pdl\cmsis/include/core_cm4.h **** 
1339:Generated_Source\PSoC6\pdl\cmsis/include/core_cm4.h **** #define FPU_FPCCR_MMRDY_Pos                 5U                                            /*!< FPCC
1340:Generated_Source\PSoC6\pdl\cmsis/include/core_cm4.h **** #define FPU_FPCCR_MMRDY_Msk                (1UL << FPU_FPCCR_MMRDY_Pos)                   /*!< FPCC
1341:Generated_Source\PSoC6\pdl\cmsis/include/core_cm4.h **** 
1342:Generated_Source\PSoC6\pdl\cmsis/include/core_cm4.h **** #define FPU_FPCCR_HFRDY_Pos                 4U                                            /*!< FPCC
ARM GAS  C:\Users\yomat\AppData\Local\Temp\cc0omv11.s 			page 38


1343:Generated_Source\PSoC6\pdl\cmsis/include/core_cm4.h **** #define FPU_FPCCR_HFRDY_Msk                (1UL << FPU_FPCCR_HFRDY_Pos)                   /*!< FPCC
1344:Generated_Source\PSoC6\pdl\cmsis/include/core_cm4.h **** 
1345:Generated_Source\PSoC6\pdl\cmsis/include/core_cm4.h **** #define FPU_FPCCR_THREAD_Pos                3U                                            /*!< FPCC
1346:Generated_Source\PSoC6\pdl\cmsis/include/core_cm4.h **** #define FPU_FPCCR_THREAD_Msk               (1UL << FPU_FPCCR_THREAD_Pos)                  /*!< FPCC
1347:Generated_Source\PSoC6\pdl\cmsis/include/core_cm4.h **** 
1348:Generated_Source\PSoC6\pdl\cmsis/include/core_cm4.h **** #define FPU_FPCCR_USER_Pos                  1U                                            /*!< FPCC
1349:Generated_Source\PSoC6\pdl\cmsis/include/core_cm4.h **** #define FPU_FPCCR_USER_Msk                 (1UL << FPU_FPCCR_USER_Pos)                    /*!< FPCC
1350:Generated_Source\PSoC6\pdl\cmsis/include/core_cm4.h **** 
1351:Generated_Source\PSoC6\pdl\cmsis/include/core_cm4.h **** #define FPU_FPCCR_LSPACT_Pos                0U                                            /*!< FPCC
1352:Generated_Source\PSoC6\pdl\cmsis/include/core_cm4.h **** #define FPU_FPCCR_LSPACT_Msk               (1UL /*<< FPU_FPCCR_LSPACT_Pos*/)              /*!< FPCC
1353:Generated_Source\PSoC6\pdl\cmsis/include/core_cm4.h **** 
1354:Generated_Source\PSoC6\pdl\cmsis/include/core_cm4.h **** /* Floating-Point Context Address Register Definitions */
1355:Generated_Source\PSoC6\pdl\cmsis/include/core_cm4.h **** #define FPU_FPCAR_ADDRESS_Pos               3U                                            /*!< FPCA
1356:Generated_Source\PSoC6\pdl\cmsis/include/core_cm4.h **** #define FPU_FPCAR_ADDRESS_Msk              (0x1FFFFFFFUL << FPU_FPCAR_ADDRESS_Pos)        /*!< FPCA
1357:Generated_Source\PSoC6\pdl\cmsis/include/core_cm4.h **** 
1358:Generated_Source\PSoC6\pdl\cmsis/include/core_cm4.h **** /* Floating-Point Default Status Control Register Definitions */
1359:Generated_Source\PSoC6\pdl\cmsis/include/core_cm4.h **** #define FPU_FPDSCR_AHP_Pos                 26U                                            /*!< FPDS
1360:Generated_Source\PSoC6\pdl\cmsis/include/core_cm4.h **** #define FPU_FPDSCR_AHP_Msk                 (1UL << FPU_FPDSCR_AHP_Pos)                    /*!< FPDS
1361:Generated_Source\PSoC6\pdl\cmsis/include/core_cm4.h **** 
1362:Generated_Source\PSoC6\pdl\cmsis/include/core_cm4.h **** #define FPU_FPDSCR_DN_Pos                  25U                                            /*!< FPDS
1363:Generated_Source\PSoC6\pdl\cmsis/include/core_cm4.h **** #define FPU_FPDSCR_DN_Msk                  (1UL << FPU_FPDSCR_DN_Pos)                     /*!< FPDS
1364:Generated_Source\PSoC6\pdl\cmsis/include/core_cm4.h **** 
1365:Generated_Source\PSoC6\pdl\cmsis/include/core_cm4.h **** #define FPU_FPDSCR_FZ_Pos                  24U                                            /*!< FPDS
1366:Generated_Source\PSoC6\pdl\cmsis/include/core_cm4.h **** #define FPU_FPDSCR_FZ_Msk                  (1UL << FPU_FPDSCR_FZ_Pos)                     /*!< FPDS
1367:Generated_Source\PSoC6\pdl\cmsis/include/core_cm4.h **** 
1368:Generated_Source\PSoC6\pdl\cmsis/include/core_cm4.h **** #define FPU_FPDSCR_RMode_Pos               22U                                            /*!< FPDS
1369:Generated_Source\PSoC6\pdl\cmsis/include/core_cm4.h **** #define FPU_FPDSCR_RMode_Msk               (3UL << FPU_FPDSCR_RMode_Pos)                  /*!< FPDS
1370:Generated_Source\PSoC6\pdl\cmsis/include/core_cm4.h **** 
1371:Generated_Source\PSoC6\pdl\cmsis/include/core_cm4.h **** /* Media and FP Feature Register 0 Definitions */
1372:Generated_Source\PSoC6\pdl\cmsis/include/core_cm4.h **** #define FPU_MVFR0_FP_rounding_modes_Pos    28U                                            /*!< MVFR
1373:Generated_Source\PSoC6\pdl\cmsis/include/core_cm4.h **** #define FPU_MVFR0_FP_rounding_modes_Msk    (0xFUL << FPU_MVFR0_FP_rounding_modes_Pos)     /*!< MVFR
1374:Generated_Source\PSoC6\pdl\cmsis/include/core_cm4.h **** 
1375:Generated_Source\PSoC6\pdl\cmsis/include/core_cm4.h **** #define FPU_MVFR0_Short_vectors_Pos        24U                                            /*!< MVFR
1376:Generated_Source\PSoC6\pdl\cmsis/include/core_cm4.h **** #define FPU_MVFR0_Short_vectors_Msk        (0xFUL << FPU_MVFR0_Short_vectors_Pos)         /*!< MVFR
1377:Generated_Source\PSoC6\pdl\cmsis/include/core_cm4.h **** 
1378:Generated_Source\PSoC6\pdl\cmsis/include/core_cm4.h **** #define FPU_MVFR0_Square_root_Pos          20U                                            /*!< MVFR
1379:Generated_Source\PSoC6\pdl\cmsis/include/core_cm4.h **** #define FPU_MVFR0_Square_root_Msk          (0xFUL << FPU_MVFR0_Square_root_Pos)           /*!< MVFR
1380:Generated_Source\PSoC6\pdl\cmsis/include/core_cm4.h **** 
1381:Generated_Source\PSoC6\pdl\cmsis/include/core_cm4.h **** #define FPU_MVFR0_Divide_Pos               16U                                            /*!< MVFR
1382:Generated_Source\PSoC6\pdl\cmsis/include/core_cm4.h **** #define FPU_MVFR0_Divide_Msk               (0xFUL << FPU_MVFR0_Divide_Pos)                /*!< MVFR
1383:Generated_Source\PSoC6\pdl\cmsis/include/core_cm4.h **** 
1384:Generated_Source\PSoC6\pdl\cmsis/include/core_cm4.h **** #define FPU_MVFR0_FP_excep_trapping_Pos    12U                                            /*!< MVFR
1385:Generated_Source\PSoC6\pdl\cmsis/include/core_cm4.h **** #define FPU_MVFR0_FP_excep_trapping_Msk    (0xFUL << FPU_MVFR0_FP_excep_trapping_Pos)     /*!< MVFR
1386:Generated_Source\PSoC6\pdl\cmsis/include/core_cm4.h **** 
1387:Generated_Source\PSoC6\pdl\cmsis/include/core_cm4.h **** #define FPU_MVFR0_Double_precision_Pos      8U                                            /*!< MVFR
1388:Generated_Source\PSoC6\pdl\cmsis/include/core_cm4.h **** #define FPU_MVFR0_Double_precision_Msk     (0xFUL << FPU_MVFR0_Double_precision_Pos)      /*!< MVFR
1389:Generated_Source\PSoC6\pdl\cmsis/include/core_cm4.h **** 
1390:Generated_Source\PSoC6\pdl\cmsis/include/core_cm4.h **** #define FPU_MVFR0_Single_precision_Pos      4U                                            /*!< MVFR
1391:Generated_Source\PSoC6\pdl\cmsis/include/core_cm4.h **** #define FPU_MVFR0_Single_precision_Msk     (0xFUL << FPU_MVFR0_Single_precision_Pos)      /*!< MVFR
1392:Generated_Source\PSoC6\pdl\cmsis/include/core_cm4.h **** 
1393:Generated_Source\PSoC6\pdl\cmsis/include/core_cm4.h **** #define FPU_MVFR0_A_SIMD_registers_Pos      0U                                            /*!< MVFR
1394:Generated_Source\PSoC6\pdl\cmsis/include/core_cm4.h **** #define FPU_MVFR0_A_SIMD_registers_Msk     (0xFUL /*<< FPU_MVFR0_A_SIMD_registers_Pos*/)  /*!< MVFR
1395:Generated_Source\PSoC6\pdl\cmsis/include/core_cm4.h **** 
1396:Generated_Source\PSoC6\pdl\cmsis/include/core_cm4.h **** /* Media and FP Feature Register 1 Definitions */
1397:Generated_Source\PSoC6\pdl\cmsis/include/core_cm4.h **** #define FPU_MVFR1_FP_fused_MAC_Pos         28U                                            /*!< MVFR
1398:Generated_Source\PSoC6\pdl\cmsis/include/core_cm4.h **** #define FPU_MVFR1_FP_fused_MAC_Msk         (0xFUL << FPU_MVFR1_FP_fused_MAC_Pos)          /*!< MVFR
1399:Generated_Source\PSoC6\pdl\cmsis/include/core_cm4.h **** 
ARM GAS  C:\Users\yomat\AppData\Local\Temp\cc0omv11.s 			page 39


1400:Generated_Source\PSoC6\pdl\cmsis/include/core_cm4.h **** #define FPU_MVFR1_FP_HPFP_Pos              24U                                            /*!< MVFR
1401:Generated_Source\PSoC6\pdl\cmsis/include/core_cm4.h **** #define FPU_MVFR1_FP_HPFP_Msk              (0xFUL << FPU_MVFR1_FP_HPFP_Pos)               /*!< MVFR
1402:Generated_Source\PSoC6\pdl\cmsis/include/core_cm4.h **** 
1403:Generated_Source\PSoC6\pdl\cmsis/include/core_cm4.h **** #define FPU_MVFR1_D_NaN_mode_Pos            4U                                            /*!< MVFR
1404:Generated_Source\PSoC6\pdl\cmsis/include/core_cm4.h **** #define FPU_MVFR1_D_NaN_mode_Msk           (0xFUL << FPU_MVFR1_D_NaN_mode_Pos)            /*!< MVFR
1405:Generated_Source\PSoC6\pdl\cmsis/include/core_cm4.h **** 
1406:Generated_Source\PSoC6\pdl\cmsis/include/core_cm4.h **** #define FPU_MVFR1_FtZ_mode_Pos              0U                                            /*!< MVFR
1407:Generated_Source\PSoC6\pdl\cmsis/include/core_cm4.h **** #define FPU_MVFR1_FtZ_mode_Msk             (0xFUL /*<< FPU_MVFR1_FtZ_mode_Pos*/)          /*!< MVFR
1408:Generated_Source\PSoC6\pdl\cmsis/include/core_cm4.h **** 
1409:Generated_Source\PSoC6\pdl\cmsis/include/core_cm4.h **** /*@} end of group CMSIS_FPU */
1410:Generated_Source\PSoC6\pdl\cmsis/include/core_cm4.h **** 
1411:Generated_Source\PSoC6\pdl\cmsis/include/core_cm4.h **** 
1412:Generated_Source\PSoC6\pdl\cmsis/include/core_cm4.h **** /**
1413:Generated_Source\PSoC6\pdl\cmsis/include/core_cm4.h ****   \ingroup  CMSIS_core_register
1414:Generated_Source\PSoC6\pdl\cmsis/include/core_cm4.h ****   \defgroup CMSIS_CoreDebug       Core Debug Registers (CoreDebug)
1415:Generated_Source\PSoC6\pdl\cmsis/include/core_cm4.h ****   \brief    Type definitions for the Core Debug Registers
1416:Generated_Source\PSoC6\pdl\cmsis/include/core_cm4.h ****   @{
1417:Generated_Source\PSoC6\pdl\cmsis/include/core_cm4.h ****  */
1418:Generated_Source\PSoC6\pdl\cmsis/include/core_cm4.h **** 
1419:Generated_Source\PSoC6\pdl\cmsis/include/core_cm4.h **** /**
1420:Generated_Source\PSoC6\pdl\cmsis/include/core_cm4.h ****   \brief  Structure type to access the Core Debug Register (CoreDebug).
1421:Generated_Source\PSoC6\pdl\cmsis/include/core_cm4.h ****  */
1422:Generated_Source\PSoC6\pdl\cmsis/include/core_cm4.h **** typedef struct
1423:Generated_Source\PSoC6\pdl\cmsis/include/core_cm4.h **** {
1424:Generated_Source\PSoC6\pdl\cmsis/include/core_cm4.h ****   __IOM uint32_t DHCSR;                  /*!< Offset: 0x000 (R/W)  Debug Halting Control and Status
1425:Generated_Source\PSoC6\pdl\cmsis/include/core_cm4.h ****   __OM  uint32_t DCRSR;                  /*!< Offset: 0x004 ( /W)  Debug Core Register Selector Reg
1426:Generated_Source\PSoC6\pdl\cmsis/include/core_cm4.h ****   __IOM uint32_t DCRDR;                  /*!< Offset: 0x008 (R/W)  Debug Core Register Data Registe
1427:Generated_Source\PSoC6\pdl\cmsis/include/core_cm4.h ****   __IOM uint32_t DEMCR;                  /*!< Offset: 0x00C (R/W)  Debug Exception and Monitor Cont
1428:Generated_Source\PSoC6\pdl\cmsis/include/core_cm4.h **** } CoreDebug_Type;
1429:Generated_Source\PSoC6\pdl\cmsis/include/core_cm4.h **** 
1430:Generated_Source\PSoC6\pdl\cmsis/include/core_cm4.h **** /* Debug Halting Control and Status Register Definitions */
1431:Generated_Source\PSoC6\pdl\cmsis/include/core_cm4.h **** #define CoreDebug_DHCSR_DBGKEY_Pos         16U                                            /*!< Core
1432:Generated_Source\PSoC6\pdl\cmsis/include/core_cm4.h **** #define CoreDebug_DHCSR_DBGKEY_Msk         (0xFFFFUL << CoreDebug_DHCSR_DBGKEY_Pos)       /*!< Core
1433:Generated_Source\PSoC6\pdl\cmsis/include/core_cm4.h **** 
1434:Generated_Source\PSoC6\pdl\cmsis/include/core_cm4.h **** #define CoreDebug_DHCSR_S_RESET_ST_Pos     25U                                            /*!< Core
1435:Generated_Source\PSoC6\pdl\cmsis/include/core_cm4.h **** #define CoreDebug_DHCSR_S_RESET_ST_Msk     (1UL << CoreDebug_DHCSR_S_RESET_ST_Pos)        /*!< Core
1436:Generated_Source\PSoC6\pdl\cmsis/include/core_cm4.h **** 
1437:Generated_Source\PSoC6\pdl\cmsis/include/core_cm4.h **** #define CoreDebug_DHCSR_S_RETIRE_ST_Pos    24U                                            /*!< Core
1438:Generated_Source\PSoC6\pdl\cmsis/include/core_cm4.h **** #define CoreDebug_DHCSR_S_RETIRE_ST_Msk    (1UL << CoreDebug_DHCSR_S_RETIRE_ST_Pos)       /*!< Core
1439:Generated_Source\PSoC6\pdl\cmsis/include/core_cm4.h **** 
1440:Generated_Source\PSoC6\pdl\cmsis/include/core_cm4.h **** #define CoreDebug_DHCSR_S_LOCKUP_Pos       19U                                            /*!< Core
1441:Generated_Source\PSoC6\pdl\cmsis/include/core_cm4.h **** #define CoreDebug_DHCSR_S_LOCKUP_Msk       (1UL << CoreDebug_DHCSR_S_LOCKUP_Pos)          /*!< Core
1442:Generated_Source\PSoC6\pdl\cmsis/include/core_cm4.h **** 
1443:Generated_Source\PSoC6\pdl\cmsis/include/core_cm4.h **** #define CoreDebug_DHCSR_S_SLEEP_Pos        18U                                            /*!< Core
1444:Generated_Source\PSoC6\pdl\cmsis/include/core_cm4.h **** #define CoreDebug_DHCSR_S_SLEEP_Msk        (1UL << CoreDebug_DHCSR_S_SLEEP_Pos)           /*!< Core
1445:Generated_Source\PSoC6\pdl\cmsis/include/core_cm4.h **** 
1446:Generated_Source\PSoC6\pdl\cmsis/include/core_cm4.h **** #define CoreDebug_DHCSR_S_HALT_Pos         17U                                            /*!< Core
1447:Generated_Source\PSoC6\pdl\cmsis/include/core_cm4.h **** #define CoreDebug_DHCSR_S_HALT_Msk         (1UL << CoreDebug_DHCSR_S_HALT_Pos)            /*!< Core
1448:Generated_Source\PSoC6\pdl\cmsis/include/core_cm4.h **** 
1449:Generated_Source\PSoC6\pdl\cmsis/include/core_cm4.h **** #define CoreDebug_DHCSR_S_REGRDY_Pos       16U                                            /*!< Core
1450:Generated_Source\PSoC6\pdl\cmsis/include/core_cm4.h **** #define CoreDebug_DHCSR_S_REGRDY_Msk       (1UL << CoreDebug_DHCSR_S_REGRDY_Pos)          /*!< Core
1451:Generated_Source\PSoC6\pdl\cmsis/include/core_cm4.h **** 
1452:Generated_Source\PSoC6\pdl\cmsis/include/core_cm4.h **** #define CoreDebug_DHCSR_C_SNAPSTALL_Pos     5U                                            /*!< Core
1453:Generated_Source\PSoC6\pdl\cmsis/include/core_cm4.h **** #define CoreDebug_DHCSR_C_SNAPSTALL_Msk    (1UL << CoreDebug_DHCSR_C_SNAPSTALL_Pos)       /*!< Core
1454:Generated_Source\PSoC6\pdl\cmsis/include/core_cm4.h **** 
1455:Generated_Source\PSoC6\pdl\cmsis/include/core_cm4.h **** #define CoreDebug_DHCSR_C_MASKINTS_Pos      3U                                            /*!< Core
1456:Generated_Source\PSoC6\pdl\cmsis/include/core_cm4.h **** #define CoreDebug_DHCSR_C_MASKINTS_Msk     (1UL << CoreDebug_DHCSR_C_MASKINTS_Pos)        /*!< Core
ARM GAS  C:\Users\yomat\AppData\Local\Temp\cc0omv11.s 			page 40


1457:Generated_Source\PSoC6\pdl\cmsis/include/core_cm4.h **** 
1458:Generated_Source\PSoC6\pdl\cmsis/include/core_cm4.h **** #define CoreDebug_DHCSR_C_STEP_Pos          2U                                            /*!< Core
1459:Generated_Source\PSoC6\pdl\cmsis/include/core_cm4.h **** #define CoreDebug_DHCSR_C_STEP_Msk         (1UL << CoreDebug_DHCSR_C_STEP_Pos)            /*!< Core
1460:Generated_Source\PSoC6\pdl\cmsis/include/core_cm4.h **** 
1461:Generated_Source\PSoC6\pdl\cmsis/include/core_cm4.h **** #define CoreDebug_DHCSR_C_HALT_Pos          1U                                            /*!< Core
1462:Generated_Source\PSoC6\pdl\cmsis/include/core_cm4.h **** #define CoreDebug_DHCSR_C_HALT_Msk         (1UL << CoreDebug_DHCSR_C_HALT_Pos)            /*!< Core
1463:Generated_Source\PSoC6\pdl\cmsis/include/core_cm4.h **** 
1464:Generated_Source\PSoC6\pdl\cmsis/include/core_cm4.h **** #define CoreDebug_DHCSR_C_DEBUGEN_Pos       0U                                            /*!< Core
1465:Generated_Source\PSoC6\pdl\cmsis/include/core_cm4.h **** #define CoreDebug_DHCSR_C_DEBUGEN_Msk      (1UL /*<< CoreDebug_DHCSR_C_DEBUGEN_Pos*/)     /*!< Core
1466:Generated_Source\PSoC6\pdl\cmsis/include/core_cm4.h **** 
1467:Generated_Source\PSoC6\pdl\cmsis/include/core_cm4.h **** /* Debug Core Register Selector Register Definitions */
1468:Generated_Source\PSoC6\pdl\cmsis/include/core_cm4.h **** #define CoreDebug_DCRSR_REGWnR_Pos         16U                                            /*!< Core
1469:Generated_Source\PSoC6\pdl\cmsis/include/core_cm4.h **** #define CoreDebug_DCRSR_REGWnR_Msk         (1UL << CoreDebug_DCRSR_REGWnR_Pos)            /*!< Core
1470:Generated_Source\PSoC6\pdl\cmsis/include/core_cm4.h **** 
1471:Generated_Source\PSoC6\pdl\cmsis/include/core_cm4.h **** #define CoreDebug_DCRSR_REGSEL_Pos          0U                                            /*!< Core
1472:Generated_Source\PSoC6\pdl\cmsis/include/core_cm4.h **** #define CoreDebug_DCRSR_REGSEL_Msk         (0x1FUL /*<< CoreDebug_DCRSR_REGSEL_Pos*/)     /*!< Core
1473:Generated_Source\PSoC6\pdl\cmsis/include/core_cm4.h **** 
1474:Generated_Source\PSoC6\pdl\cmsis/include/core_cm4.h **** /* Debug Exception and Monitor Control Register Definitions */
1475:Generated_Source\PSoC6\pdl\cmsis/include/core_cm4.h **** #define CoreDebug_DEMCR_TRCENA_Pos         24U                                            /*!< Core
1476:Generated_Source\PSoC6\pdl\cmsis/include/core_cm4.h **** #define CoreDebug_DEMCR_TRCENA_Msk         (1UL << CoreDebug_DEMCR_TRCENA_Pos)            /*!< Core
1477:Generated_Source\PSoC6\pdl\cmsis/include/core_cm4.h **** 
1478:Generated_Source\PSoC6\pdl\cmsis/include/core_cm4.h **** #define CoreDebug_DEMCR_MON_REQ_Pos        19U                                            /*!< Core
1479:Generated_Source\PSoC6\pdl\cmsis/include/core_cm4.h **** #define CoreDebug_DEMCR_MON_REQ_Msk        (1UL << CoreDebug_DEMCR_MON_REQ_Pos)           /*!< Core
1480:Generated_Source\PSoC6\pdl\cmsis/include/core_cm4.h **** 
1481:Generated_Source\PSoC6\pdl\cmsis/include/core_cm4.h **** #define CoreDebug_DEMCR_MON_STEP_Pos       18U                                            /*!< Core
1482:Generated_Source\PSoC6\pdl\cmsis/include/core_cm4.h **** #define CoreDebug_DEMCR_MON_STEP_Msk       (1UL << CoreDebug_DEMCR_MON_STEP_Pos)          /*!< Core
1483:Generated_Source\PSoC6\pdl\cmsis/include/core_cm4.h **** 
1484:Generated_Source\PSoC6\pdl\cmsis/include/core_cm4.h **** #define CoreDebug_DEMCR_MON_PEND_Pos       17U                                            /*!< Core
1485:Generated_Source\PSoC6\pdl\cmsis/include/core_cm4.h **** #define CoreDebug_DEMCR_MON_PEND_Msk       (1UL << CoreDebug_DEMCR_MON_PEND_Pos)          /*!< Core
1486:Generated_Source\PSoC6\pdl\cmsis/include/core_cm4.h **** 
1487:Generated_Source\PSoC6\pdl\cmsis/include/core_cm4.h **** #define CoreDebug_DEMCR_MON_EN_Pos         16U                                            /*!< Core
1488:Generated_Source\PSoC6\pdl\cmsis/include/core_cm4.h **** #define CoreDebug_DEMCR_MON_EN_Msk         (1UL << CoreDebug_DEMCR_MON_EN_Pos)            /*!< Core
1489:Generated_Source\PSoC6\pdl\cmsis/include/core_cm4.h **** 
1490:Generated_Source\PSoC6\pdl\cmsis/include/core_cm4.h **** #define CoreDebug_DEMCR_VC_HARDERR_Pos     10U                                            /*!< Core
1491:Generated_Source\PSoC6\pdl\cmsis/include/core_cm4.h **** #define CoreDebug_DEMCR_VC_HARDERR_Msk     (1UL << CoreDebug_DEMCR_VC_HARDERR_Pos)        /*!< Core
1492:Generated_Source\PSoC6\pdl\cmsis/include/core_cm4.h **** 
1493:Generated_Source\PSoC6\pdl\cmsis/include/core_cm4.h **** #define CoreDebug_DEMCR_VC_INTERR_Pos       9U                                            /*!< Core
1494:Generated_Source\PSoC6\pdl\cmsis/include/core_cm4.h **** #define CoreDebug_DEMCR_VC_INTERR_Msk      (1UL << CoreDebug_DEMCR_VC_INTERR_Pos)         /*!< Core
1495:Generated_Source\PSoC6\pdl\cmsis/include/core_cm4.h **** 
1496:Generated_Source\PSoC6\pdl\cmsis/include/core_cm4.h **** #define CoreDebug_DEMCR_VC_BUSERR_Pos       8U                                            /*!< Core
1497:Generated_Source\PSoC6\pdl\cmsis/include/core_cm4.h **** #define CoreDebug_DEMCR_VC_BUSERR_Msk      (1UL << CoreDebug_DEMCR_VC_BUSERR_Pos)         /*!< Core
1498:Generated_Source\PSoC6\pdl\cmsis/include/core_cm4.h **** 
1499:Generated_Source\PSoC6\pdl\cmsis/include/core_cm4.h **** #define CoreDebug_DEMCR_VC_STATERR_Pos      7U                                            /*!< Core
1500:Generated_Source\PSoC6\pdl\cmsis/include/core_cm4.h **** #define CoreDebug_DEMCR_VC_STATERR_Msk     (1UL << CoreDebug_DEMCR_VC_STATERR_Pos)        /*!< Core
1501:Generated_Source\PSoC6\pdl\cmsis/include/core_cm4.h **** 
1502:Generated_Source\PSoC6\pdl\cmsis/include/core_cm4.h **** #define CoreDebug_DEMCR_VC_CHKERR_Pos       6U                                            /*!< Core
1503:Generated_Source\PSoC6\pdl\cmsis/include/core_cm4.h **** #define CoreDebug_DEMCR_VC_CHKERR_Msk      (1UL << CoreDebug_DEMCR_VC_CHKERR_Pos)         /*!< Core
1504:Generated_Source\PSoC6\pdl\cmsis/include/core_cm4.h **** 
1505:Generated_Source\PSoC6\pdl\cmsis/include/core_cm4.h **** #define CoreDebug_DEMCR_VC_NOCPERR_Pos      5U                                            /*!< Core
1506:Generated_Source\PSoC6\pdl\cmsis/include/core_cm4.h **** #define CoreDebug_DEMCR_VC_NOCPERR_Msk     (1UL << CoreDebug_DEMCR_VC_NOCPERR_Pos)        /*!< Core
1507:Generated_Source\PSoC6\pdl\cmsis/include/core_cm4.h **** 
1508:Generated_Source\PSoC6\pdl\cmsis/include/core_cm4.h **** #define CoreDebug_DEMCR_VC_MMERR_Pos        4U                                            /*!< Core
1509:Generated_Source\PSoC6\pdl\cmsis/include/core_cm4.h **** #define CoreDebug_DEMCR_VC_MMERR_Msk       (1UL << CoreDebug_DEMCR_VC_MMERR_Pos)          /*!< Core
1510:Generated_Source\PSoC6\pdl\cmsis/include/core_cm4.h **** 
1511:Generated_Source\PSoC6\pdl\cmsis/include/core_cm4.h **** #define CoreDebug_DEMCR_VC_CORERESET_Pos    0U                                            /*!< Core
1512:Generated_Source\PSoC6\pdl\cmsis/include/core_cm4.h **** #define CoreDebug_DEMCR_VC_CORERESET_Msk   (1UL /*<< CoreDebug_DEMCR_VC_CORERESET_Pos*/)  /*!< Core
1513:Generated_Source\PSoC6\pdl\cmsis/include/core_cm4.h **** 
ARM GAS  C:\Users\yomat\AppData\Local\Temp\cc0omv11.s 			page 41


1514:Generated_Source\PSoC6\pdl\cmsis/include/core_cm4.h **** /*@} end of group CMSIS_CoreDebug */
1515:Generated_Source\PSoC6\pdl\cmsis/include/core_cm4.h **** 
1516:Generated_Source\PSoC6\pdl\cmsis/include/core_cm4.h **** 
1517:Generated_Source\PSoC6\pdl\cmsis/include/core_cm4.h **** /**
1518:Generated_Source\PSoC6\pdl\cmsis/include/core_cm4.h ****   \ingroup    CMSIS_core_register
1519:Generated_Source\PSoC6\pdl\cmsis/include/core_cm4.h ****   \defgroup   CMSIS_core_bitfield     Core register bit field macros
1520:Generated_Source\PSoC6\pdl\cmsis/include/core_cm4.h ****   \brief      Macros for use with bit field definitions (xxx_Pos, xxx_Msk).
1521:Generated_Source\PSoC6\pdl\cmsis/include/core_cm4.h ****   @{
1522:Generated_Source\PSoC6\pdl\cmsis/include/core_cm4.h ****  */
1523:Generated_Source\PSoC6\pdl\cmsis/include/core_cm4.h **** 
1524:Generated_Source\PSoC6\pdl\cmsis/include/core_cm4.h **** /**
1525:Generated_Source\PSoC6\pdl\cmsis/include/core_cm4.h ****   \brief   Mask and shift a bit field value for use in a register bit range.
1526:Generated_Source\PSoC6\pdl\cmsis/include/core_cm4.h ****   \param[in] field  Name of the register bit field.
1527:Generated_Source\PSoC6\pdl\cmsis/include/core_cm4.h ****   \param[in] value  Value of the bit field. This parameter is interpreted as an uint32_t type.
1528:Generated_Source\PSoC6\pdl\cmsis/include/core_cm4.h ****   \return           Masked and shifted value.
1529:Generated_Source\PSoC6\pdl\cmsis/include/core_cm4.h **** */
1530:Generated_Source\PSoC6\pdl\cmsis/include/core_cm4.h **** #define _VAL2FLD(field, value)    (((uint32_t)(value) << field ## _Pos) & field ## _Msk)
1531:Generated_Source\PSoC6\pdl\cmsis/include/core_cm4.h **** 
1532:Generated_Source\PSoC6\pdl\cmsis/include/core_cm4.h **** /**
1533:Generated_Source\PSoC6\pdl\cmsis/include/core_cm4.h ****   \brief     Mask and shift a register value to extract a bit filed value.
1534:Generated_Source\PSoC6\pdl\cmsis/include/core_cm4.h ****   \param[in] field  Name of the register bit field.
1535:Generated_Source\PSoC6\pdl\cmsis/include/core_cm4.h ****   \param[in] value  Value of register. This parameter is interpreted as an uint32_t type.
1536:Generated_Source\PSoC6\pdl\cmsis/include/core_cm4.h ****   \return           Masked and shifted bit field value.
1537:Generated_Source\PSoC6\pdl\cmsis/include/core_cm4.h **** */
1538:Generated_Source\PSoC6\pdl\cmsis/include/core_cm4.h **** #define _FLD2VAL(field, value)    (((uint32_t)(value) & field ## _Msk) >> field ## _Pos)
1539:Generated_Source\PSoC6\pdl\cmsis/include/core_cm4.h **** 
1540:Generated_Source\PSoC6\pdl\cmsis/include/core_cm4.h **** /*@} end of group CMSIS_core_bitfield */
1541:Generated_Source\PSoC6\pdl\cmsis/include/core_cm4.h **** 
1542:Generated_Source\PSoC6\pdl\cmsis/include/core_cm4.h **** 
1543:Generated_Source\PSoC6\pdl\cmsis/include/core_cm4.h **** /**
1544:Generated_Source\PSoC6\pdl\cmsis/include/core_cm4.h ****   \ingroup    CMSIS_core_register
1545:Generated_Source\PSoC6\pdl\cmsis/include/core_cm4.h ****   \defgroup   CMSIS_core_base     Core Definitions
1546:Generated_Source\PSoC6\pdl\cmsis/include/core_cm4.h ****   \brief      Definitions for base addresses, unions, and structures.
1547:Generated_Source\PSoC6\pdl\cmsis/include/core_cm4.h ****   @{
1548:Generated_Source\PSoC6\pdl\cmsis/include/core_cm4.h ****  */
1549:Generated_Source\PSoC6\pdl\cmsis/include/core_cm4.h **** 
1550:Generated_Source\PSoC6\pdl\cmsis/include/core_cm4.h **** /* Memory mapping of Core Hardware */
1551:Generated_Source\PSoC6\pdl\cmsis/include/core_cm4.h **** #define SCS_BASE            (0xE000E000UL)                            /*!< System Control Space Bas
1552:Generated_Source\PSoC6\pdl\cmsis/include/core_cm4.h **** #define ITM_BASE            (0xE0000000UL)                            /*!< ITM Base Address */
1553:Generated_Source\PSoC6\pdl\cmsis/include/core_cm4.h **** #define DWT_BASE            (0xE0001000UL)                            /*!< DWT Base Address */
1554:Generated_Source\PSoC6\pdl\cmsis/include/core_cm4.h **** #define TPI_BASE            (0xE0040000UL)                            /*!< TPI Base Address */
1555:Generated_Source\PSoC6\pdl\cmsis/include/core_cm4.h **** #define CoreDebug_BASE      (0xE000EDF0UL)                            /*!< Core Debug Base Address 
1556:Generated_Source\PSoC6\pdl\cmsis/include/core_cm4.h **** #define SysTick_BASE        (SCS_BASE +  0x0010UL)                    /*!< SysTick Base Address */
1557:Generated_Source\PSoC6\pdl\cmsis/include/core_cm4.h **** #define NVIC_BASE           (SCS_BASE +  0x0100UL)                    /*!< NVIC Base Address */
1558:Generated_Source\PSoC6\pdl\cmsis/include/core_cm4.h **** #define SCB_BASE            (SCS_BASE +  0x0D00UL)                    /*!< System Control Block Bas
1559:Generated_Source\PSoC6\pdl\cmsis/include/core_cm4.h **** 
1560:Generated_Source\PSoC6\pdl\cmsis/include/core_cm4.h **** #define SCnSCB              ((SCnSCB_Type    *)     SCS_BASE      )   /*!< System control Register 
1561:Generated_Source\PSoC6\pdl\cmsis/include/core_cm4.h **** #define SCB                 ((SCB_Type       *)     SCB_BASE      )   /*!< SCB configuration struct
1562:Generated_Source\PSoC6\pdl\cmsis/include/core_cm4.h **** #define SysTick             ((SysTick_Type   *)     SysTick_BASE  )   /*!< SysTick configuration st
1563:Generated_Source\PSoC6\pdl\cmsis/include/core_cm4.h **** #define NVIC                ((NVIC_Type      *)     NVIC_BASE     )   /*!< NVIC configuration struc
1564:Generated_Source\PSoC6\pdl\cmsis/include/core_cm4.h **** #define ITM                 ((ITM_Type       *)     ITM_BASE      )   /*!< ITM configuration struct
1565:Generated_Source\PSoC6\pdl\cmsis/include/core_cm4.h **** #define DWT                 ((DWT_Type       *)     DWT_BASE      )   /*!< DWT configuration struct
1566:Generated_Source\PSoC6\pdl\cmsis/include/core_cm4.h **** #define TPI                 ((TPI_Type       *)     TPI_BASE      )   /*!< TPI configuration struct
1567:Generated_Source\PSoC6\pdl\cmsis/include/core_cm4.h **** #define CoreDebug           ((CoreDebug_Type *)     CoreDebug_BASE)   /*!< Core Debug configuration
1568:Generated_Source\PSoC6\pdl\cmsis/include/core_cm4.h **** 
1569:Generated_Source\PSoC6\pdl\cmsis/include/core_cm4.h **** #if defined (__MPU_PRESENT) && (__MPU_PRESENT == 1U)
1570:Generated_Source\PSoC6\pdl\cmsis/include/core_cm4.h ****   #define MPU_BASE          (SCS_BASE +  0x0D90UL)                    /*!< Memory Protection Unit *
ARM GAS  C:\Users\yomat\AppData\Local\Temp\cc0omv11.s 			page 42


1571:Generated_Source\PSoC6\pdl\cmsis/include/core_cm4.h ****   #define MPU               ((MPU_Type       *)     MPU_BASE      )   /*!< Memory Protection Unit *
1572:Generated_Source\PSoC6\pdl\cmsis/include/core_cm4.h **** #endif
1573:Generated_Source\PSoC6\pdl\cmsis/include/core_cm4.h **** 
1574:Generated_Source\PSoC6\pdl\cmsis/include/core_cm4.h **** #define FPU_BASE            (SCS_BASE +  0x0F30UL)                    /*!< Floating Point Unit */
1575:Generated_Source\PSoC6\pdl\cmsis/include/core_cm4.h **** #define FPU                 ((FPU_Type       *)     FPU_BASE      )   /*!< Floating Point Unit */
1576:Generated_Source\PSoC6\pdl\cmsis/include/core_cm4.h **** 
1577:Generated_Source\PSoC6\pdl\cmsis/include/core_cm4.h **** /*@} */
1578:Generated_Source\PSoC6\pdl\cmsis/include/core_cm4.h **** 
1579:Generated_Source\PSoC6\pdl\cmsis/include/core_cm4.h **** 
1580:Generated_Source\PSoC6\pdl\cmsis/include/core_cm4.h **** 
1581:Generated_Source\PSoC6\pdl\cmsis/include/core_cm4.h **** /*******************************************************************************
1582:Generated_Source\PSoC6\pdl\cmsis/include/core_cm4.h ****  *                Hardware Abstraction Layer
1583:Generated_Source\PSoC6\pdl\cmsis/include/core_cm4.h ****   Core Function Interface contains:
1584:Generated_Source\PSoC6\pdl\cmsis/include/core_cm4.h ****   - Core NVIC Functions
1585:Generated_Source\PSoC6\pdl\cmsis/include/core_cm4.h ****   - Core SysTick Functions
1586:Generated_Source\PSoC6\pdl\cmsis/include/core_cm4.h ****   - Core Debug Functions
1587:Generated_Source\PSoC6\pdl\cmsis/include/core_cm4.h ****   - Core Register Access Functions
1588:Generated_Source\PSoC6\pdl\cmsis/include/core_cm4.h ****  ******************************************************************************/
1589:Generated_Source\PSoC6\pdl\cmsis/include/core_cm4.h **** /**
1590:Generated_Source\PSoC6\pdl\cmsis/include/core_cm4.h ****   \defgroup CMSIS_Core_FunctionInterface Functions and Instructions Reference
1591:Generated_Source\PSoC6\pdl\cmsis/include/core_cm4.h **** */
1592:Generated_Source\PSoC6\pdl\cmsis/include/core_cm4.h **** 
1593:Generated_Source\PSoC6\pdl\cmsis/include/core_cm4.h **** 
1594:Generated_Source\PSoC6\pdl\cmsis/include/core_cm4.h **** 
1595:Generated_Source\PSoC6\pdl\cmsis/include/core_cm4.h **** /* ##########################   NVIC functions  #################################### */
1596:Generated_Source\PSoC6\pdl\cmsis/include/core_cm4.h **** /**
1597:Generated_Source\PSoC6\pdl\cmsis/include/core_cm4.h ****   \ingroup  CMSIS_Core_FunctionInterface
1598:Generated_Source\PSoC6\pdl\cmsis/include/core_cm4.h ****   \defgroup CMSIS_Core_NVICFunctions NVIC Functions
1599:Generated_Source\PSoC6\pdl\cmsis/include/core_cm4.h ****   \brief    Functions that manage interrupts and exceptions via the NVIC.
1600:Generated_Source\PSoC6\pdl\cmsis/include/core_cm4.h ****   @{
1601:Generated_Source\PSoC6\pdl\cmsis/include/core_cm4.h ****  */
1602:Generated_Source\PSoC6\pdl\cmsis/include/core_cm4.h **** 
1603:Generated_Source\PSoC6\pdl\cmsis/include/core_cm4.h **** #ifdef CMSIS_NVIC_VIRTUAL
1604:Generated_Source\PSoC6\pdl\cmsis/include/core_cm4.h ****   #ifndef CMSIS_NVIC_VIRTUAL_HEADER_FILE
1605:Generated_Source\PSoC6\pdl\cmsis/include/core_cm4.h ****     #define CMSIS_NVIC_VIRTUAL_HEADER_FILE "cmsis_nvic_virtual.h"
1606:Generated_Source\PSoC6\pdl\cmsis/include/core_cm4.h ****   #endif
1607:Generated_Source\PSoC6\pdl\cmsis/include/core_cm4.h ****   #include CMSIS_NVIC_VIRTUAL_HEADER_FILE
1608:Generated_Source\PSoC6\pdl\cmsis/include/core_cm4.h **** #else
1609:Generated_Source\PSoC6\pdl\cmsis/include/core_cm4.h ****   #define NVIC_SetPriorityGrouping    __NVIC_SetPriorityGrouping
1610:Generated_Source\PSoC6\pdl\cmsis/include/core_cm4.h ****   #define NVIC_GetPriorityGrouping    __NVIC_GetPriorityGrouping
1611:Generated_Source\PSoC6\pdl\cmsis/include/core_cm4.h ****   #define NVIC_EnableIRQ              __NVIC_EnableIRQ
1612:Generated_Source\PSoC6\pdl\cmsis/include/core_cm4.h ****   #define NVIC_GetEnableIRQ           __NVIC_GetEnableIRQ
1613:Generated_Source\PSoC6\pdl\cmsis/include/core_cm4.h ****   #define NVIC_DisableIRQ             __NVIC_DisableIRQ
1614:Generated_Source\PSoC6\pdl\cmsis/include/core_cm4.h ****   #define NVIC_GetPendingIRQ          __NVIC_GetPendingIRQ
1615:Generated_Source\PSoC6\pdl\cmsis/include/core_cm4.h ****   #define NVIC_SetPendingIRQ          __NVIC_SetPendingIRQ
1616:Generated_Source\PSoC6\pdl\cmsis/include/core_cm4.h ****   #define NVIC_ClearPendingIRQ        __NVIC_ClearPendingIRQ
1617:Generated_Source\PSoC6\pdl\cmsis/include/core_cm4.h ****   #define NVIC_GetActive              __NVIC_GetActive
1618:Generated_Source\PSoC6\pdl\cmsis/include/core_cm4.h ****   #define NVIC_SetPriority            __NVIC_SetPriority
1619:Generated_Source\PSoC6\pdl\cmsis/include/core_cm4.h ****   #define NVIC_GetPriority            __NVIC_GetPriority
1620:Generated_Source\PSoC6\pdl\cmsis/include/core_cm4.h ****   #define NVIC_SystemReset            __NVIC_SystemReset
1621:Generated_Source\PSoC6\pdl\cmsis/include/core_cm4.h **** #endif /* CMSIS_NVIC_VIRTUAL */
1622:Generated_Source\PSoC6\pdl\cmsis/include/core_cm4.h **** 
1623:Generated_Source\PSoC6\pdl\cmsis/include/core_cm4.h **** #ifdef CMSIS_VECTAB_VIRTUAL
1624:Generated_Source\PSoC6\pdl\cmsis/include/core_cm4.h ****   #ifndef CMSIS_VECTAB_VIRTUAL_HEADER_FILE
1625:Generated_Source\PSoC6\pdl\cmsis/include/core_cm4.h ****    #define CMSIS_VECTAB_VIRTUAL_HEADER_FILE "cmsis_vectab_virtual.h"
1626:Generated_Source\PSoC6\pdl\cmsis/include/core_cm4.h ****   #endif
1627:Generated_Source\PSoC6\pdl\cmsis/include/core_cm4.h ****   #include CMSIS_VECTAB_VIRTUAL_HEADER_FILE
ARM GAS  C:\Users\yomat\AppData\Local\Temp\cc0omv11.s 			page 43


1628:Generated_Source\PSoC6\pdl\cmsis/include/core_cm4.h **** #else
1629:Generated_Source\PSoC6\pdl\cmsis/include/core_cm4.h ****   #define NVIC_SetVector              __NVIC_SetVector
1630:Generated_Source\PSoC6\pdl\cmsis/include/core_cm4.h ****   #define NVIC_GetVector              __NVIC_GetVector
1631:Generated_Source\PSoC6\pdl\cmsis/include/core_cm4.h **** #endif  /* (CMSIS_VECTAB_VIRTUAL) */
1632:Generated_Source\PSoC6\pdl\cmsis/include/core_cm4.h **** 
1633:Generated_Source\PSoC6\pdl\cmsis/include/core_cm4.h **** #define NVIC_USER_IRQ_OFFSET          16
1634:Generated_Source\PSoC6\pdl\cmsis/include/core_cm4.h **** 
1635:Generated_Source\PSoC6\pdl\cmsis/include/core_cm4.h **** 
1636:Generated_Source\PSoC6\pdl\cmsis/include/core_cm4.h **** 
1637:Generated_Source\PSoC6\pdl\cmsis/include/core_cm4.h **** /**
1638:Generated_Source\PSoC6\pdl\cmsis/include/core_cm4.h ****   \brief   Set Priority Grouping
1639:Generated_Source\PSoC6\pdl\cmsis/include/core_cm4.h ****   \details Sets the priority grouping field using the required unlock sequence.
1640:Generated_Source\PSoC6\pdl\cmsis/include/core_cm4.h ****            The parameter PriorityGroup is assigned to the field SCB->AIRCR [10:8] PRIGROUP field.
1641:Generated_Source\PSoC6\pdl\cmsis/include/core_cm4.h ****            Only values from 0..7 are used.
1642:Generated_Source\PSoC6\pdl\cmsis/include/core_cm4.h ****            In case of a conflict between priority grouping and available
1643:Generated_Source\PSoC6\pdl\cmsis/include/core_cm4.h ****            priority bits (__NVIC_PRIO_BITS), the smallest possible priority group is set.
1644:Generated_Source\PSoC6\pdl\cmsis/include/core_cm4.h ****   \param [in]      PriorityGroup  Priority grouping field.
1645:Generated_Source\PSoC6\pdl\cmsis/include/core_cm4.h ****  */
1646:Generated_Source\PSoC6\pdl\cmsis/include/core_cm4.h **** __STATIC_INLINE void __NVIC_SetPriorityGrouping(uint32_t PriorityGroup)
1647:Generated_Source\PSoC6\pdl\cmsis/include/core_cm4.h **** {
1648:Generated_Source\PSoC6\pdl\cmsis/include/core_cm4.h ****   uint32_t reg_value;
1649:Generated_Source\PSoC6\pdl\cmsis/include/core_cm4.h ****   uint32_t PriorityGroupTmp = (PriorityGroup & (uint32_t)0x07UL);             /* only values 0..7 a
1650:Generated_Source\PSoC6\pdl\cmsis/include/core_cm4.h **** 
1651:Generated_Source\PSoC6\pdl\cmsis/include/core_cm4.h ****   reg_value  =  SCB->AIRCR;                                                   /* read old register 
1652:Generated_Source\PSoC6\pdl\cmsis/include/core_cm4.h ****   reg_value &= ~((uint32_t)(SCB_AIRCR_VECTKEY_Msk | SCB_AIRCR_PRIGROUP_Msk)); /* clear bits to chan
1653:Generated_Source\PSoC6\pdl\cmsis/include/core_cm4.h ****   reg_value  =  (reg_value                                   |
1654:Generated_Source\PSoC6\pdl\cmsis/include/core_cm4.h ****                 ((uint32_t)0x5FAUL << SCB_AIRCR_VECTKEY_Pos) |
1655:Generated_Source\PSoC6\pdl\cmsis/include/core_cm4.h ****                 (PriorityGroupTmp << SCB_AIRCR_PRIGROUP_Pos)  );              /* Insert write key a
1656:Generated_Source\PSoC6\pdl\cmsis/include/core_cm4.h ****   SCB->AIRCR =  reg_value;
1657:Generated_Source\PSoC6\pdl\cmsis/include/core_cm4.h **** }
1658:Generated_Source\PSoC6\pdl\cmsis/include/core_cm4.h **** 
1659:Generated_Source\PSoC6\pdl\cmsis/include/core_cm4.h **** 
1660:Generated_Source\PSoC6\pdl\cmsis/include/core_cm4.h **** /**
1661:Generated_Source\PSoC6\pdl\cmsis/include/core_cm4.h ****   \brief   Get Priority Grouping
1662:Generated_Source\PSoC6\pdl\cmsis/include/core_cm4.h ****   \details Reads the priority grouping field from the NVIC Interrupt Controller.
1663:Generated_Source\PSoC6\pdl\cmsis/include/core_cm4.h ****   \return                Priority grouping field (SCB->AIRCR [10:8] PRIGROUP field).
1664:Generated_Source\PSoC6\pdl\cmsis/include/core_cm4.h ****  */
1665:Generated_Source\PSoC6\pdl\cmsis/include/core_cm4.h **** __STATIC_INLINE uint32_t __NVIC_GetPriorityGrouping(void)
1666:Generated_Source\PSoC6\pdl\cmsis/include/core_cm4.h **** {
1667:Generated_Source\PSoC6\pdl\cmsis/include/core_cm4.h ****   return ((uint32_t)((SCB->AIRCR & SCB_AIRCR_PRIGROUP_Msk) >> SCB_AIRCR_PRIGROUP_Pos));
1668:Generated_Source\PSoC6\pdl\cmsis/include/core_cm4.h **** }
1669:Generated_Source\PSoC6\pdl\cmsis/include/core_cm4.h **** 
1670:Generated_Source\PSoC6\pdl\cmsis/include/core_cm4.h **** 
1671:Generated_Source\PSoC6\pdl\cmsis/include/core_cm4.h **** /**
1672:Generated_Source\PSoC6\pdl\cmsis/include/core_cm4.h ****   \brief   Enable Interrupt
1673:Generated_Source\PSoC6\pdl\cmsis/include/core_cm4.h ****   \details Enables a device specific interrupt in the NVIC interrupt controller.
1674:Generated_Source\PSoC6\pdl\cmsis/include/core_cm4.h ****   \param [in]      IRQn  Device specific interrupt number.
1675:Generated_Source\PSoC6\pdl\cmsis/include/core_cm4.h ****   \note    IRQn must not be negative.
1676:Generated_Source\PSoC6\pdl\cmsis/include/core_cm4.h ****  */
1677:Generated_Source\PSoC6\pdl\cmsis/include/core_cm4.h **** __STATIC_INLINE void __NVIC_EnableIRQ(IRQn_Type IRQn)
1678:Generated_Source\PSoC6\pdl\cmsis/include/core_cm4.h **** {
1679:Generated_Source\PSoC6\pdl\cmsis/include/core_cm4.h ****   if ((int32_t)(IRQn) >= 0)
1680:Generated_Source\PSoC6\pdl\cmsis/include/core_cm4.h ****   {
1681:Generated_Source\PSoC6\pdl\cmsis/include/core_cm4.h ****     NVIC->ISER[(((uint32_t)IRQn) >> 5UL)] = (uint32_t)(1UL << (((uint32_t)IRQn) & 0x1FUL));
1682:Generated_Source\PSoC6\pdl\cmsis/include/core_cm4.h ****   }
1683:Generated_Source\PSoC6\pdl\cmsis/include/core_cm4.h **** }
1684:Generated_Source\PSoC6\pdl\cmsis/include/core_cm4.h **** 
ARM GAS  C:\Users\yomat\AppData\Local\Temp\cc0omv11.s 			page 44


1685:Generated_Source\PSoC6\pdl\cmsis/include/core_cm4.h **** 
1686:Generated_Source\PSoC6\pdl\cmsis/include/core_cm4.h **** /**
1687:Generated_Source\PSoC6\pdl\cmsis/include/core_cm4.h ****   \brief   Get Interrupt Enable status
1688:Generated_Source\PSoC6\pdl\cmsis/include/core_cm4.h ****   \details Returns a device specific interrupt enable status from the NVIC interrupt controller.
1689:Generated_Source\PSoC6\pdl\cmsis/include/core_cm4.h ****   \param [in]      IRQn  Device specific interrupt number.
1690:Generated_Source\PSoC6\pdl\cmsis/include/core_cm4.h ****   \return             0  Interrupt is not enabled.
1691:Generated_Source\PSoC6\pdl\cmsis/include/core_cm4.h ****   \return             1  Interrupt is enabled.
1692:Generated_Source\PSoC6\pdl\cmsis/include/core_cm4.h ****   \note    IRQn must not be negative.
1693:Generated_Source\PSoC6\pdl\cmsis/include/core_cm4.h ****  */
1694:Generated_Source\PSoC6\pdl\cmsis/include/core_cm4.h **** __STATIC_INLINE uint32_t __NVIC_GetEnableIRQ(IRQn_Type IRQn)
1695:Generated_Source\PSoC6\pdl\cmsis/include/core_cm4.h **** {
1696:Generated_Source\PSoC6\pdl\cmsis/include/core_cm4.h ****   if ((int32_t)(IRQn) >= 0)
1697:Generated_Source\PSoC6\pdl\cmsis/include/core_cm4.h ****   {
1698:Generated_Source\PSoC6\pdl\cmsis/include/core_cm4.h ****     return((uint32_t)(((NVIC->ISER[(((uint32_t)IRQn) >> 5UL)] & (1UL << (((uint32_t)IRQn) & 0x1FUL)
1699:Generated_Source\PSoC6\pdl\cmsis/include/core_cm4.h ****   }
1700:Generated_Source\PSoC6\pdl\cmsis/include/core_cm4.h ****   else
1701:Generated_Source\PSoC6\pdl\cmsis/include/core_cm4.h ****   {
1702:Generated_Source\PSoC6\pdl\cmsis/include/core_cm4.h ****     return(0U);
1703:Generated_Source\PSoC6\pdl\cmsis/include/core_cm4.h ****   }
1704:Generated_Source\PSoC6\pdl\cmsis/include/core_cm4.h **** }
1705:Generated_Source\PSoC6\pdl\cmsis/include/core_cm4.h **** 
1706:Generated_Source\PSoC6\pdl\cmsis/include/core_cm4.h **** 
1707:Generated_Source\PSoC6\pdl\cmsis/include/core_cm4.h **** /**
1708:Generated_Source\PSoC6\pdl\cmsis/include/core_cm4.h ****   \brief   Disable Interrupt
1709:Generated_Source\PSoC6\pdl\cmsis/include/core_cm4.h ****   \details Disables a device specific interrupt in the NVIC interrupt controller.
1710:Generated_Source\PSoC6\pdl\cmsis/include/core_cm4.h ****   \param [in]      IRQn  Device specific interrupt number.
1711:Generated_Source\PSoC6\pdl\cmsis/include/core_cm4.h ****   \note    IRQn must not be negative.
1712:Generated_Source\PSoC6\pdl\cmsis/include/core_cm4.h ****  */
1713:Generated_Source\PSoC6\pdl\cmsis/include/core_cm4.h **** __STATIC_INLINE void __NVIC_DisableIRQ(IRQn_Type IRQn)
1714:Generated_Source\PSoC6\pdl\cmsis/include/core_cm4.h **** {
1715:Generated_Source\PSoC6\pdl\cmsis/include/core_cm4.h ****   if ((int32_t)(IRQn) >= 0)
 512              		.loc 2 1715 0
 513 001a 002B     		cmp	r3, #0
 514 001c 0DDB     		blt	.L34
1716:Generated_Source\PSoC6\pdl\cmsis/include/core_cm4.h ****   {
1717:Generated_Source\PSoC6\pdl\cmsis/include/core_cm4.h ****     NVIC->ICER[(((uint32_t)IRQn) >> 5UL)] = (uint32_t)(1UL << (((uint32_t)IRQn) & 0x1FUL));
 515              		.loc 2 1717 0
 516 001e 5A09     		lsrs	r2, r3, #5
 517 0020 03F01F03 		and	r3, r3, #31
 518              	.LVL46:
 519 0024 0121     		movs	r1, #1
 520 0026 01FA03F3 		lsl	r3, r1, r3
 521 002a 2032     		adds	r2, r2, #32
 522 002c 4549     		ldr	r1, .L43+4
 523 002e 41F82230 		str	r3, [r1, r2, lsl #2]
 524              	.LBB66:
 525              	.LBB67:
 526              		.file 3 "Generated_Source\\PSoC6\\pdl\\cmsis/include/cmsis_gcc.h"
   1:Generated_Source\PSoC6\pdl\cmsis/include/cmsis_gcc.h **** /**************************************************************************//**
   2:Generated_Source\PSoC6\pdl\cmsis/include/cmsis_gcc.h ****  * @file     cmsis_gcc.h
   3:Generated_Source\PSoC6\pdl\cmsis/include/cmsis_gcc.h ****  * @brief    CMSIS compiler GCC header file
   4:Generated_Source\PSoC6\pdl\cmsis/include/cmsis_gcc.h ****  * @version  V5.0.3
   5:Generated_Source\PSoC6\pdl\cmsis/include/cmsis_gcc.h ****  * @date     16. January 2018
   6:Generated_Source\PSoC6\pdl\cmsis/include/cmsis_gcc.h ****  ******************************************************************************/
   7:Generated_Source\PSoC6\pdl\cmsis/include/cmsis_gcc.h **** /*
   8:Generated_Source\PSoC6\pdl\cmsis/include/cmsis_gcc.h ****  * Copyright (c) 2009-2017 ARM Limited. All rights reserved.
   9:Generated_Source\PSoC6\pdl\cmsis/include/cmsis_gcc.h ****  *
ARM GAS  C:\Users\yomat\AppData\Local\Temp\cc0omv11.s 			page 45


  10:Generated_Source\PSoC6\pdl\cmsis/include/cmsis_gcc.h ****  * SPDX-License-Identifier: Apache-2.0
  11:Generated_Source\PSoC6\pdl\cmsis/include/cmsis_gcc.h ****  *
  12:Generated_Source\PSoC6\pdl\cmsis/include/cmsis_gcc.h ****  * Licensed under the Apache License, Version 2.0 (the License); you may
  13:Generated_Source\PSoC6\pdl\cmsis/include/cmsis_gcc.h ****  * not use this file except in compliance with the License.
  14:Generated_Source\PSoC6\pdl\cmsis/include/cmsis_gcc.h ****  * You may obtain a copy of the License at
  15:Generated_Source\PSoC6\pdl\cmsis/include/cmsis_gcc.h ****  *
  16:Generated_Source\PSoC6\pdl\cmsis/include/cmsis_gcc.h ****  * www.apache.org/licenses/LICENSE-2.0
  17:Generated_Source\PSoC6\pdl\cmsis/include/cmsis_gcc.h ****  *
  18:Generated_Source\PSoC6\pdl\cmsis/include/cmsis_gcc.h ****  * Unless required by applicable law or agreed to in writing, software
  19:Generated_Source\PSoC6\pdl\cmsis/include/cmsis_gcc.h ****  * distributed under the License is distributed on an AS IS BASIS, WITHOUT
  20:Generated_Source\PSoC6\pdl\cmsis/include/cmsis_gcc.h ****  * WARRANTIES OR CONDITIONS OF ANY KIND, either express or implied.
  21:Generated_Source\PSoC6\pdl\cmsis/include/cmsis_gcc.h ****  * See the License for the specific language governing permissions and
  22:Generated_Source\PSoC6\pdl\cmsis/include/cmsis_gcc.h ****  * limitations under the License.
  23:Generated_Source\PSoC6\pdl\cmsis/include/cmsis_gcc.h ****  */
  24:Generated_Source\PSoC6\pdl\cmsis/include/cmsis_gcc.h **** 
  25:Generated_Source\PSoC6\pdl\cmsis/include/cmsis_gcc.h **** #ifndef __CMSIS_GCC_H
  26:Generated_Source\PSoC6\pdl\cmsis/include/cmsis_gcc.h **** #define __CMSIS_GCC_H
  27:Generated_Source\PSoC6\pdl\cmsis/include/cmsis_gcc.h **** 
  28:Generated_Source\PSoC6\pdl\cmsis/include/cmsis_gcc.h **** /* ignore some GCC warnings */
  29:Generated_Source\PSoC6\pdl\cmsis/include/cmsis_gcc.h **** #pragma GCC diagnostic push
  30:Generated_Source\PSoC6\pdl\cmsis/include/cmsis_gcc.h **** #pragma GCC diagnostic ignored "-Wsign-conversion"
  31:Generated_Source\PSoC6\pdl\cmsis/include/cmsis_gcc.h **** #pragma GCC diagnostic ignored "-Wconversion"
  32:Generated_Source\PSoC6\pdl\cmsis/include/cmsis_gcc.h **** #pragma GCC diagnostic ignored "-Wunused-parameter"
  33:Generated_Source\PSoC6\pdl\cmsis/include/cmsis_gcc.h **** 
  34:Generated_Source\PSoC6\pdl\cmsis/include/cmsis_gcc.h **** /* Fallback for __has_builtin */
  35:Generated_Source\PSoC6\pdl\cmsis/include/cmsis_gcc.h **** #ifndef __has_builtin
  36:Generated_Source\PSoC6\pdl\cmsis/include/cmsis_gcc.h ****   #define __has_builtin(x) (0)
  37:Generated_Source\PSoC6\pdl\cmsis/include/cmsis_gcc.h **** #endif
  38:Generated_Source\PSoC6\pdl\cmsis/include/cmsis_gcc.h **** 
  39:Generated_Source\PSoC6\pdl\cmsis/include/cmsis_gcc.h **** /* CMSIS compiler specific defines */
  40:Generated_Source\PSoC6\pdl\cmsis/include/cmsis_gcc.h **** #ifndef   __ASM
  41:Generated_Source\PSoC6\pdl\cmsis/include/cmsis_gcc.h ****   #define __ASM                                  __asm
  42:Generated_Source\PSoC6\pdl\cmsis/include/cmsis_gcc.h **** #endif
  43:Generated_Source\PSoC6\pdl\cmsis/include/cmsis_gcc.h **** #ifndef   __INLINE
  44:Generated_Source\PSoC6\pdl\cmsis/include/cmsis_gcc.h ****   #define __INLINE                               inline
  45:Generated_Source\PSoC6\pdl\cmsis/include/cmsis_gcc.h **** #endif
  46:Generated_Source\PSoC6\pdl\cmsis/include/cmsis_gcc.h **** #ifndef   __STATIC_INLINE
  47:Generated_Source\PSoC6\pdl\cmsis/include/cmsis_gcc.h ****   #define __STATIC_INLINE                        static inline
  48:Generated_Source\PSoC6\pdl\cmsis/include/cmsis_gcc.h **** #endif
  49:Generated_Source\PSoC6\pdl\cmsis/include/cmsis_gcc.h **** #ifndef   __STATIC_FORCEINLINE                 
  50:Generated_Source\PSoC6\pdl\cmsis/include/cmsis_gcc.h ****   #define __STATIC_FORCEINLINE                   __attribute__((always_inline)) static inline
  51:Generated_Source\PSoC6\pdl\cmsis/include/cmsis_gcc.h **** #endif                                           
  52:Generated_Source\PSoC6\pdl\cmsis/include/cmsis_gcc.h **** #ifndef   __NO_RETURN
  53:Generated_Source\PSoC6\pdl\cmsis/include/cmsis_gcc.h ****   #define __NO_RETURN                            __attribute__((__noreturn__))
  54:Generated_Source\PSoC6\pdl\cmsis/include/cmsis_gcc.h **** #endif
  55:Generated_Source\PSoC6\pdl\cmsis/include/cmsis_gcc.h **** #ifndef   __USED
  56:Generated_Source\PSoC6\pdl\cmsis/include/cmsis_gcc.h ****   #define __USED                                 __attribute__((used))
  57:Generated_Source\PSoC6\pdl\cmsis/include/cmsis_gcc.h **** #endif
  58:Generated_Source\PSoC6\pdl\cmsis/include/cmsis_gcc.h **** #ifndef   __WEAK
  59:Generated_Source\PSoC6\pdl\cmsis/include/cmsis_gcc.h ****   #define __WEAK                                 __attribute__((weak))
  60:Generated_Source\PSoC6\pdl\cmsis/include/cmsis_gcc.h **** #endif
  61:Generated_Source\PSoC6\pdl\cmsis/include/cmsis_gcc.h **** #ifndef   __PACKED
  62:Generated_Source\PSoC6\pdl\cmsis/include/cmsis_gcc.h ****   #define __PACKED                               __attribute__((packed, aligned(1)))
  63:Generated_Source\PSoC6\pdl\cmsis/include/cmsis_gcc.h **** #endif
  64:Generated_Source\PSoC6\pdl\cmsis/include/cmsis_gcc.h **** #ifndef   __PACKED_STRUCT
  65:Generated_Source\PSoC6\pdl\cmsis/include/cmsis_gcc.h ****   #define __PACKED_STRUCT                        struct __attribute__((packed, aligned(1)))
  66:Generated_Source\PSoC6\pdl\cmsis/include/cmsis_gcc.h **** #endif
ARM GAS  C:\Users\yomat\AppData\Local\Temp\cc0omv11.s 			page 46


  67:Generated_Source\PSoC6\pdl\cmsis/include/cmsis_gcc.h **** #ifndef   __PACKED_UNION
  68:Generated_Source\PSoC6\pdl\cmsis/include/cmsis_gcc.h ****   #define __PACKED_UNION                         union __attribute__((packed, aligned(1)))
  69:Generated_Source\PSoC6\pdl\cmsis/include/cmsis_gcc.h **** #endif
  70:Generated_Source\PSoC6\pdl\cmsis/include/cmsis_gcc.h **** #ifndef   __UNALIGNED_UINT32        /* deprecated */
  71:Generated_Source\PSoC6\pdl\cmsis/include/cmsis_gcc.h ****   #pragma GCC diagnostic push
  72:Generated_Source\PSoC6\pdl\cmsis/include/cmsis_gcc.h ****   #pragma GCC diagnostic ignored "-Wpacked"
  73:Generated_Source\PSoC6\pdl\cmsis/include/cmsis_gcc.h ****   #pragma GCC diagnostic ignored "-Wattributes"
  74:Generated_Source\PSoC6\pdl\cmsis/include/cmsis_gcc.h ****   struct __attribute__((packed)) T_UINT32 { uint32_t v; };
  75:Generated_Source\PSoC6\pdl\cmsis/include/cmsis_gcc.h ****   #pragma GCC diagnostic pop
  76:Generated_Source\PSoC6\pdl\cmsis/include/cmsis_gcc.h ****   #define __UNALIGNED_UINT32(x)                  (((struct T_UINT32 *)(x))->v)
  77:Generated_Source\PSoC6\pdl\cmsis/include/cmsis_gcc.h **** #endif
  78:Generated_Source\PSoC6\pdl\cmsis/include/cmsis_gcc.h **** #ifndef   __UNALIGNED_UINT16_WRITE
  79:Generated_Source\PSoC6\pdl\cmsis/include/cmsis_gcc.h ****   #pragma GCC diagnostic push
  80:Generated_Source\PSoC6\pdl\cmsis/include/cmsis_gcc.h ****   #pragma GCC diagnostic ignored "-Wpacked"
  81:Generated_Source\PSoC6\pdl\cmsis/include/cmsis_gcc.h ****   #pragma GCC diagnostic ignored "-Wattributes"
  82:Generated_Source\PSoC6\pdl\cmsis/include/cmsis_gcc.h ****   __PACKED_STRUCT T_UINT16_WRITE { uint16_t v; };
  83:Generated_Source\PSoC6\pdl\cmsis/include/cmsis_gcc.h ****   #pragma GCC diagnostic pop
  84:Generated_Source\PSoC6\pdl\cmsis/include/cmsis_gcc.h ****   #define __UNALIGNED_UINT16_WRITE(addr, val)    (void)((((struct T_UINT16_WRITE *)(void *)(addr))-
  85:Generated_Source\PSoC6\pdl\cmsis/include/cmsis_gcc.h **** #endif
  86:Generated_Source\PSoC6\pdl\cmsis/include/cmsis_gcc.h **** #ifndef   __UNALIGNED_UINT16_READ
  87:Generated_Source\PSoC6\pdl\cmsis/include/cmsis_gcc.h ****   #pragma GCC diagnostic push
  88:Generated_Source\PSoC6\pdl\cmsis/include/cmsis_gcc.h ****   #pragma GCC diagnostic ignored "-Wpacked"
  89:Generated_Source\PSoC6\pdl\cmsis/include/cmsis_gcc.h ****   #pragma GCC diagnostic ignored "-Wattributes"
  90:Generated_Source\PSoC6\pdl\cmsis/include/cmsis_gcc.h ****   __PACKED_STRUCT T_UINT16_READ { uint16_t v; };
  91:Generated_Source\PSoC6\pdl\cmsis/include/cmsis_gcc.h ****   #pragma GCC diagnostic pop
  92:Generated_Source\PSoC6\pdl\cmsis/include/cmsis_gcc.h ****   #define __UNALIGNED_UINT16_READ(addr)          (((const struct T_UINT16_READ *)(const void *)(add
  93:Generated_Source\PSoC6\pdl\cmsis/include/cmsis_gcc.h **** #endif
  94:Generated_Source\PSoC6\pdl\cmsis/include/cmsis_gcc.h **** #ifndef   __UNALIGNED_UINT32_WRITE
  95:Generated_Source\PSoC6\pdl\cmsis/include/cmsis_gcc.h ****   #pragma GCC diagnostic push
  96:Generated_Source\PSoC6\pdl\cmsis/include/cmsis_gcc.h ****   #pragma GCC diagnostic ignored "-Wpacked"
  97:Generated_Source\PSoC6\pdl\cmsis/include/cmsis_gcc.h ****   #pragma GCC diagnostic ignored "-Wattributes"
  98:Generated_Source\PSoC6\pdl\cmsis/include/cmsis_gcc.h ****   __PACKED_STRUCT T_UINT32_WRITE { uint32_t v; };
  99:Generated_Source\PSoC6\pdl\cmsis/include/cmsis_gcc.h ****   #pragma GCC diagnostic pop
 100:Generated_Source\PSoC6\pdl\cmsis/include/cmsis_gcc.h ****   #define __UNALIGNED_UINT32_WRITE(addr, val)    (void)((((struct T_UINT32_WRITE *)(void *)(addr))-
 101:Generated_Source\PSoC6\pdl\cmsis/include/cmsis_gcc.h **** #endif
 102:Generated_Source\PSoC6\pdl\cmsis/include/cmsis_gcc.h **** #ifndef   __UNALIGNED_UINT32_READ
 103:Generated_Source\PSoC6\pdl\cmsis/include/cmsis_gcc.h ****   #pragma GCC diagnostic push
 104:Generated_Source\PSoC6\pdl\cmsis/include/cmsis_gcc.h ****   #pragma GCC diagnostic ignored "-Wpacked"
 105:Generated_Source\PSoC6\pdl\cmsis/include/cmsis_gcc.h ****   #pragma GCC diagnostic ignored "-Wattributes"
 106:Generated_Source\PSoC6\pdl\cmsis/include/cmsis_gcc.h ****   __PACKED_STRUCT T_UINT32_READ { uint32_t v; };
 107:Generated_Source\PSoC6\pdl\cmsis/include/cmsis_gcc.h ****   #pragma GCC diagnostic pop
 108:Generated_Source\PSoC6\pdl\cmsis/include/cmsis_gcc.h ****   #define __UNALIGNED_UINT32_READ(addr)          (((const struct T_UINT32_READ *)(const void *)(add
 109:Generated_Source\PSoC6\pdl\cmsis/include/cmsis_gcc.h **** #endif
 110:Generated_Source\PSoC6\pdl\cmsis/include/cmsis_gcc.h **** #ifndef   __ALIGNED
 111:Generated_Source\PSoC6\pdl\cmsis/include/cmsis_gcc.h ****   #define __ALIGNED(x)                           __attribute__((aligned(x)))
 112:Generated_Source\PSoC6\pdl\cmsis/include/cmsis_gcc.h **** #endif
 113:Generated_Source\PSoC6\pdl\cmsis/include/cmsis_gcc.h **** #ifndef   __RESTRICT
 114:Generated_Source\PSoC6\pdl\cmsis/include/cmsis_gcc.h ****   #define __RESTRICT                             __restrict
 115:Generated_Source\PSoC6\pdl\cmsis/include/cmsis_gcc.h **** #endif
 116:Generated_Source\PSoC6\pdl\cmsis/include/cmsis_gcc.h **** 
 117:Generated_Source\PSoC6\pdl\cmsis/include/cmsis_gcc.h **** 
 118:Generated_Source\PSoC6\pdl\cmsis/include/cmsis_gcc.h **** /* ###########################  Core Function Access  ########################### */
 119:Generated_Source\PSoC6\pdl\cmsis/include/cmsis_gcc.h **** /** \ingroup  CMSIS_Core_FunctionInterface
 120:Generated_Source\PSoC6\pdl\cmsis/include/cmsis_gcc.h ****     \defgroup CMSIS_Core_RegAccFunctions CMSIS Core Register Access Functions
 121:Generated_Source\PSoC6\pdl\cmsis/include/cmsis_gcc.h ****   @{
 122:Generated_Source\PSoC6\pdl\cmsis/include/cmsis_gcc.h ****  */
 123:Generated_Source\PSoC6\pdl\cmsis/include/cmsis_gcc.h **** 
ARM GAS  C:\Users\yomat\AppData\Local\Temp\cc0omv11.s 			page 47


 124:Generated_Source\PSoC6\pdl\cmsis/include/cmsis_gcc.h **** /**
 125:Generated_Source\PSoC6\pdl\cmsis/include/cmsis_gcc.h ****   \brief   Enable IRQ Interrupts
 126:Generated_Source\PSoC6\pdl\cmsis/include/cmsis_gcc.h ****   \details Enables IRQ interrupts by clearing the I-bit in the CPSR.
 127:Generated_Source\PSoC6\pdl\cmsis/include/cmsis_gcc.h ****            Can only be executed in Privileged modes.
 128:Generated_Source\PSoC6\pdl\cmsis/include/cmsis_gcc.h ****  */
 129:Generated_Source\PSoC6\pdl\cmsis/include/cmsis_gcc.h **** __STATIC_FORCEINLINE void __enable_irq(void)
 130:Generated_Source\PSoC6\pdl\cmsis/include/cmsis_gcc.h **** {
 131:Generated_Source\PSoC6\pdl\cmsis/include/cmsis_gcc.h ****   __ASM volatile ("cpsie i" : : : "memory");
 132:Generated_Source\PSoC6\pdl\cmsis/include/cmsis_gcc.h **** }
 133:Generated_Source\PSoC6\pdl\cmsis/include/cmsis_gcc.h **** 
 134:Generated_Source\PSoC6\pdl\cmsis/include/cmsis_gcc.h **** 
 135:Generated_Source\PSoC6\pdl\cmsis/include/cmsis_gcc.h **** /**
 136:Generated_Source\PSoC6\pdl\cmsis/include/cmsis_gcc.h ****   \brief   Disable IRQ Interrupts
 137:Generated_Source\PSoC6\pdl\cmsis/include/cmsis_gcc.h ****   \details Disables IRQ interrupts by setting the I-bit in the CPSR.
 138:Generated_Source\PSoC6\pdl\cmsis/include/cmsis_gcc.h ****            Can only be executed in Privileged modes.
 139:Generated_Source\PSoC6\pdl\cmsis/include/cmsis_gcc.h ****  */
 140:Generated_Source\PSoC6\pdl\cmsis/include/cmsis_gcc.h **** __STATIC_FORCEINLINE void __disable_irq(void)
 141:Generated_Source\PSoC6\pdl\cmsis/include/cmsis_gcc.h **** {
 142:Generated_Source\PSoC6\pdl\cmsis/include/cmsis_gcc.h ****   __ASM volatile ("cpsid i" : : : "memory");
 143:Generated_Source\PSoC6\pdl\cmsis/include/cmsis_gcc.h **** }
 144:Generated_Source\PSoC6\pdl\cmsis/include/cmsis_gcc.h **** 
 145:Generated_Source\PSoC6\pdl\cmsis/include/cmsis_gcc.h **** 
 146:Generated_Source\PSoC6\pdl\cmsis/include/cmsis_gcc.h **** /**
 147:Generated_Source\PSoC6\pdl\cmsis/include/cmsis_gcc.h ****   \brief   Get Control Register
 148:Generated_Source\PSoC6\pdl\cmsis/include/cmsis_gcc.h ****   \details Returns the content of the Control Register.
 149:Generated_Source\PSoC6\pdl\cmsis/include/cmsis_gcc.h ****   \return               Control Register value
 150:Generated_Source\PSoC6\pdl\cmsis/include/cmsis_gcc.h ****  */
 151:Generated_Source\PSoC6\pdl\cmsis/include/cmsis_gcc.h **** __STATIC_FORCEINLINE uint32_t __get_CONTROL(void)
 152:Generated_Source\PSoC6\pdl\cmsis/include/cmsis_gcc.h **** {
 153:Generated_Source\PSoC6\pdl\cmsis/include/cmsis_gcc.h ****   uint32_t result;
 154:Generated_Source\PSoC6\pdl\cmsis/include/cmsis_gcc.h **** 
 155:Generated_Source\PSoC6\pdl\cmsis/include/cmsis_gcc.h ****   __ASM volatile ("MRS %0, control" : "=r" (result) );
 156:Generated_Source\PSoC6\pdl\cmsis/include/cmsis_gcc.h ****   return(result);
 157:Generated_Source\PSoC6\pdl\cmsis/include/cmsis_gcc.h **** }
 158:Generated_Source\PSoC6\pdl\cmsis/include/cmsis_gcc.h **** 
 159:Generated_Source\PSoC6\pdl\cmsis/include/cmsis_gcc.h **** 
 160:Generated_Source\PSoC6\pdl\cmsis/include/cmsis_gcc.h **** #if (defined (__ARM_FEATURE_CMSE ) && (__ARM_FEATURE_CMSE == 3))
 161:Generated_Source\PSoC6\pdl\cmsis/include/cmsis_gcc.h **** /**
 162:Generated_Source\PSoC6\pdl\cmsis/include/cmsis_gcc.h ****   \brief   Get Control Register (non-secure)
 163:Generated_Source\PSoC6\pdl\cmsis/include/cmsis_gcc.h ****   \details Returns the content of the non-secure Control Register when in secure mode.
 164:Generated_Source\PSoC6\pdl\cmsis/include/cmsis_gcc.h ****   \return               non-secure Control Register value
 165:Generated_Source\PSoC6\pdl\cmsis/include/cmsis_gcc.h ****  */
 166:Generated_Source\PSoC6\pdl\cmsis/include/cmsis_gcc.h **** __STATIC_FORCEINLINE uint32_t __TZ_get_CONTROL_NS(void)
 167:Generated_Source\PSoC6\pdl\cmsis/include/cmsis_gcc.h **** {
 168:Generated_Source\PSoC6\pdl\cmsis/include/cmsis_gcc.h ****   uint32_t result;
 169:Generated_Source\PSoC6\pdl\cmsis/include/cmsis_gcc.h **** 
 170:Generated_Source\PSoC6\pdl\cmsis/include/cmsis_gcc.h ****   __ASM volatile ("MRS %0, control_ns" : "=r" (result) );
 171:Generated_Source\PSoC6\pdl\cmsis/include/cmsis_gcc.h ****   return(result);
 172:Generated_Source\PSoC6\pdl\cmsis/include/cmsis_gcc.h **** }
 173:Generated_Source\PSoC6\pdl\cmsis/include/cmsis_gcc.h **** #endif
 174:Generated_Source\PSoC6\pdl\cmsis/include/cmsis_gcc.h **** 
 175:Generated_Source\PSoC6\pdl\cmsis/include/cmsis_gcc.h **** 
 176:Generated_Source\PSoC6\pdl\cmsis/include/cmsis_gcc.h **** /**
 177:Generated_Source\PSoC6\pdl\cmsis/include/cmsis_gcc.h ****   \brief   Set Control Register
 178:Generated_Source\PSoC6\pdl\cmsis/include/cmsis_gcc.h ****   \details Writes the given value to the Control Register.
 179:Generated_Source\PSoC6\pdl\cmsis/include/cmsis_gcc.h ****   \param [in]    control  Control Register value to set
 180:Generated_Source\PSoC6\pdl\cmsis/include/cmsis_gcc.h ****  */
ARM GAS  C:\Users\yomat\AppData\Local\Temp\cc0omv11.s 			page 48


 181:Generated_Source\PSoC6\pdl\cmsis/include/cmsis_gcc.h **** __STATIC_FORCEINLINE void __set_CONTROL(uint32_t control)
 182:Generated_Source\PSoC6\pdl\cmsis/include/cmsis_gcc.h **** {
 183:Generated_Source\PSoC6\pdl\cmsis/include/cmsis_gcc.h ****   __ASM volatile ("MSR control, %0" : : "r" (control) : "memory");
 184:Generated_Source\PSoC6\pdl\cmsis/include/cmsis_gcc.h **** }
 185:Generated_Source\PSoC6\pdl\cmsis/include/cmsis_gcc.h **** 
 186:Generated_Source\PSoC6\pdl\cmsis/include/cmsis_gcc.h **** 
 187:Generated_Source\PSoC6\pdl\cmsis/include/cmsis_gcc.h **** #if (defined (__ARM_FEATURE_CMSE ) && (__ARM_FEATURE_CMSE == 3))
 188:Generated_Source\PSoC6\pdl\cmsis/include/cmsis_gcc.h **** /**
 189:Generated_Source\PSoC6\pdl\cmsis/include/cmsis_gcc.h ****   \brief   Set Control Register (non-secure)
 190:Generated_Source\PSoC6\pdl\cmsis/include/cmsis_gcc.h ****   \details Writes the given value to the non-secure Control Register when in secure state.
 191:Generated_Source\PSoC6\pdl\cmsis/include/cmsis_gcc.h ****   \param [in]    control  Control Register value to set
 192:Generated_Source\PSoC6\pdl\cmsis/include/cmsis_gcc.h ****  */
 193:Generated_Source\PSoC6\pdl\cmsis/include/cmsis_gcc.h **** __STATIC_FORCEINLINE void __TZ_set_CONTROL_NS(uint32_t control)
 194:Generated_Source\PSoC6\pdl\cmsis/include/cmsis_gcc.h **** {
 195:Generated_Source\PSoC6\pdl\cmsis/include/cmsis_gcc.h ****   __ASM volatile ("MSR control_ns, %0" : : "r" (control) : "memory");
 196:Generated_Source\PSoC6\pdl\cmsis/include/cmsis_gcc.h **** }
 197:Generated_Source\PSoC6\pdl\cmsis/include/cmsis_gcc.h **** #endif
 198:Generated_Source\PSoC6\pdl\cmsis/include/cmsis_gcc.h **** 
 199:Generated_Source\PSoC6\pdl\cmsis/include/cmsis_gcc.h **** 
 200:Generated_Source\PSoC6\pdl\cmsis/include/cmsis_gcc.h **** /**
 201:Generated_Source\PSoC6\pdl\cmsis/include/cmsis_gcc.h ****   \brief   Get IPSR Register
 202:Generated_Source\PSoC6\pdl\cmsis/include/cmsis_gcc.h ****   \details Returns the content of the IPSR Register.
 203:Generated_Source\PSoC6\pdl\cmsis/include/cmsis_gcc.h ****   \return               IPSR Register value
 204:Generated_Source\PSoC6\pdl\cmsis/include/cmsis_gcc.h ****  */
 205:Generated_Source\PSoC6\pdl\cmsis/include/cmsis_gcc.h **** __STATIC_FORCEINLINE uint32_t __get_IPSR(void)
 206:Generated_Source\PSoC6\pdl\cmsis/include/cmsis_gcc.h **** {
 207:Generated_Source\PSoC6\pdl\cmsis/include/cmsis_gcc.h ****   uint32_t result;
 208:Generated_Source\PSoC6\pdl\cmsis/include/cmsis_gcc.h **** 
 209:Generated_Source\PSoC6\pdl\cmsis/include/cmsis_gcc.h ****   __ASM volatile ("MRS %0, ipsr" : "=r" (result) );
 210:Generated_Source\PSoC6\pdl\cmsis/include/cmsis_gcc.h ****   return(result);
 211:Generated_Source\PSoC6\pdl\cmsis/include/cmsis_gcc.h **** }
 212:Generated_Source\PSoC6\pdl\cmsis/include/cmsis_gcc.h **** 
 213:Generated_Source\PSoC6\pdl\cmsis/include/cmsis_gcc.h **** 
 214:Generated_Source\PSoC6\pdl\cmsis/include/cmsis_gcc.h **** /**
 215:Generated_Source\PSoC6\pdl\cmsis/include/cmsis_gcc.h ****   \brief   Get APSR Register
 216:Generated_Source\PSoC6\pdl\cmsis/include/cmsis_gcc.h ****   \details Returns the content of the APSR Register.
 217:Generated_Source\PSoC6\pdl\cmsis/include/cmsis_gcc.h ****   \return               APSR Register value
 218:Generated_Source\PSoC6\pdl\cmsis/include/cmsis_gcc.h ****  */
 219:Generated_Source\PSoC6\pdl\cmsis/include/cmsis_gcc.h **** __STATIC_FORCEINLINE uint32_t __get_APSR(void)
 220:Generated_Source\PSoC6\pdl\cmsis/include/cmsis_gcc.h **** {
 221:Generated_Source\PSoC6\pdl\cmsis/include/cmsis_gcc.h ****   uint32_t result;
 222:Generated_Source\PSoC6\pdl\cmsis/include/cmsis_gcc.h **** 
 223:Generated_Source\PSoC6\pdl\cmsis/include/cmsis_gcc.h ****   __ASM volatile ("MRS %0, apsr" : "=r" (result) );
 224:Generated_Source\PSoC6\pdl\cmsis/include/cmsis_gcc.h ****   return(result);
 225:Generated_Source\PSoC6\pdl\cmsis/include/cmsis_gcc.h **** }
 226:Generated_Source\PSoC6\pdl\cmsis/include/cmsis_gcc.h **** 
 227:Generated_Source\PSoC6\pdl\cmsis/include/cmsis_gcc.h **** 
 228:Generated_Source\PSoC6\pdl\cmsis/include/cmsis_gcc.h **** /**
 229:Generated_Source\PSoC6\pdl\cmsis/include/cmsis_gcc.h ****   \brief   Get xPSR Register
 230:Generated_Source\PSoC6\pdl\cmsis/include/cmsis_gcc.h ****   \details Returns the content of the xPSR Register.
 231:Generated_Source\PSoC6\pdl\cmsis/include/cmsis_gcc.h ****   \return               xPSR Register value
 232:Generated_Source\PSoC6\pdl\cmsis/include/cmsis_gcc.h ****  */
 233:Generated_Source\PSoC6\pdl\cmsis/include/cmsis_gcc.h **** __STATIC_FORCEINLINE uint32_t __get_xPSR(void)
 234:Generated_Source\PSoC6\pdl\cmsis/include/cmsis_gcc.h **** {
 235:Generated_Source\PSoC6\pdl\cmsis/include/cmsis_gcc.h ****   uint32_t result;
 236:Generated_Source\PSoC6\pdl\cmsis/include/cmsis_gcc.h **** 
 237:Generated_Source\PSoC6\pdl\cmsis/include/cmsis_gcc.h ****   __ASM volatile ("MRS %0, xpsr" : "=r" (result) );
ARM GAS  C:\Users\yomat\AppData\Local\Temp\cc0omv11.s 			page 49


 238:Generated_Source\PSoC6\pdl\cmsis/include/cmsis_gcc.h ****   return(result);
 239:Generated_Source\PSoC6\pdl\cmsis/include/cmsis_gcc.h **** }
 240:Generated_Source\PSoC6\pdl\cmsis/include/cmsis_gcc.h **** 
 241:Generated_Source\PSoC6\pdl\cmsis/include/cmsis_gcc.h **** 
 242:Generated_Source\PSoC6\pdl\cmsis/include/cmsis_gcc.h **** /**
 243:Generated_Source\PSoC6\pdl\cmsis/include/cmsis_gcc.h ****   \brief   Get Process Stack Pointer
 244:Generated_Source\PSoC6\pdl\cmsis/include/cmsis_gcc.h ****   \details Returns the current value of the Process Stack Pointer (PSP).
 245:Generated_Source\PSoC6\pdl\cmsis/include/cmsis_gcc.h ****   \return               PSP Register value
 246:Generated_Source\PSoC6\pdl\cmsis/include/cmsis_gcc.h ****  */
 247:Generated_Source\PSoC6\pdl\cmsis/include/cmsis_gcc.h **** __STATIC_FORCEINLINE uint32_t __get_PSP(void)
 248:Generated_Source\PSoC6\pdl\cmsis/include/cmsis_gcc.h **** {
 249:Generated_Source\PSoC6\pdl\cmsis/include/cmsis_gcc.h ****   register uint32_t result;
 250:Generated_Source\PSoC6\pdl\cmsis/include/cmsis_gcc.h **** 
 251:Generated_Source\PSoC6\pdl\cmsis/include/cmsis_gcc.h ****   __ASM volatile ("MRS %0, psp"  : "=r" (result) );
 252:Generated_Source\PSoC6\pdl\cmsis/include/cmsis_gcc.h ****   return(result);
 253:Generated_Source\PSoC6\pdl\cmsis/include/cmsis_gcc.h **** }
 254:Generated_Source\PSoC6\pdl\cmsis/include/cmsis_gcc.h **** 
 255:Generated_Source\PSoC6\pdl\cmsis/include/cmsis_gcc.h **** 
 256:Generated_Source\PSoC6\pdl\cmsis/include/cmsis_gcc.h **** #if (defined (__ARM_FEATURE_CMSE ) && (__ARM_FEATURE_CMSE == 3))
 257:Generated_Source\PSoC6\pdl\cmsis/include/cmsis_gcc.h **** /**
 258:Generated_Source\PSoC6\pdl\cmsis/include/cmsis_gcc.h ****   \brief   Get Process Stack Pointer (non-secure)
 259:Generated_Source\PSoC6\pdl\cmsis/include/cmsis_gcc.h ****   \details Returns the current value of the non-secure Process Stack Pointer (PSP) when in secure s
 260:Generated_Source\PSoC6\pdl\cmsis/include/cmsis_gcc.h ****   \return               PSP Register value
 261:Generated_Source\PSoC6\pdl\cmsis/include/cmsis_gcc.h ****  */
 262:Generated_Source\PSoC6\pdl\cmsis/include/cmsis_gcc.h **** __STATIC_FORCEINLINE uint32_t __TZ_get_PSP_NS(void)
 263:Generated_Source\PSoC6\pdl\cmsis/include/cmsis_gcc.h **** {
 264:Generated_Source\PSoC6\pdl\cmsis/include/cmsis_gcc.h ****   register uint32_t result;
 265:Generated_Source\PSoC6\pdl\cmsis/include/cmsis_gcc.h **** 
 266:Generated_Source\PSoC6\pdl\cmsis/include/cmsis_gcc.h ****   __ASM volatile ("MRS %0, psp_ns"  : "=r" (result) );
 267:Generated_Source\PSoC6\pdl\cmsis/include/cmsis_gcc.h ****   return(result);
 268:Generated_Source\PSoC6\pdl\cmsis/include/cmsis_gcc.h **** }
 269:Generated_Source\PSoC6\pdl\cmsis/include/cmsis_gcc.h **** #endif
 270:Generated_Source\PSoC6\pdl\cmsis/include/cmsis_gcc.h **** 
 271:Generated_Source\PSoC6\pdl\cmsis/include/cmsis_gcc.h **** 
 272:Generated_Source\PSoC6\pdl\cmsis/include/cmsis_gcc.h **** /**
 273:Generated_Source\PSoC6\pdl\cmsis/include/cmsis_gcc.h ****   \brief   Set Process Stack Pointer
 274:Generated_Source\PSoC6\pdl\cmsis/include/cmsis_gcc.h ****   \details Assigns the given value to the Process Stack Pointer (PSP).
 275:Generated_Source\PSoC6\pdl\cmsis/include/cmsis_gcc.h ****   \param [in]    topOfProcStack  Process Stack Pointer value to set
 276:Generated_Source\PSoC6\pdl\cmsis/include/cmsis_gcc.h ****  */
 277:Generated_Source\PSoC6\pdl\cmsis/include/cmsis_gcc.h **** __STATIC_FORCEINLINE void __set_PSP(uint32_t topOfProcStack)
 278:Generated_Source\PSoC6\pdl\cmsis/include/cmsis_gcc.h **** {
 279:Generated_Source\PSoC6\pdl\cmsis/include/cmsis_gcc.h ****   __ASM volatile ("MSR psp, %0" : : "r" (topOfProcStack) : );
 280:Generated_Source\PSoC6\pdl\cmsis/include/cmsis_gcc.h **** }
 281:Generated_Source\PSoC6\pdl\cmsis/include/cmsis_gcc.h **** 
 282:Generated_Source\PSoC6\pdl\cmsis/include/cmsis_gcc.h **** 
 283:Generated_Source\PSoC6\pdl\cmsis/include/cmsis_gcc.h **** #if (defined (__ARM_FEATURE_CMSE ) && (__ARM_FEATURE_CMSE == 3))
 284:Generated_Source\PSoC6\pdl\cmsis/include/cmsis_gcc.h **** /**
 285:Generated_Source\PSoC6\pdl\cmsis/include/cmsis_gcc.h ****   \brief   Set Process Stack Pointer (non-secure)
 286:Generated_Source\PSoC6\pdl\cmsis/include/cmsis_gcc.h ****   \details Assigns the given value to the non-secure Process Stack Pointer (PSP) when in secure sta
 287:Generated_Source\PSoC6\pdl\cmsis/include/cmsis_gcc.h ****   \param [in]    topOfProcStack  Process Stack Pointer value to set
 288:Generated_Source\PSoC6\pdl\cmsis/include/cmsis_gcc.h ****  */
 289:Generated_Source\PSoC6\pdl\cmsis/include/cmsis_gcc.h **** __STATIC_FORCEINLINE void __TZ_set_PSP_NS(uint32_t topOfProcStack)
 290:Generated_Source\PSoC6\pdl\cmsis/include/cmsis_gcc.h **** {
 291:Generated_Source\PSoC6\pdl\cmsis/include/cmsis_gcc.h ****   __ASM volatile ("MSR psp_ns, %0" : : "r" (topOfProcStack) : );
 292:Generated_Source\PSoC6\pdl\cmsis/include/cmsis_gcc.h **** }
 293:Generated_Source\PSoC6\pdl\cmsis/include/cmsis_gcc.h **** #endif
 294:Generated_Source\PSoC6\pdl\cmsis/include/cmsis_gcc.h **** 
ARM GAS  C:\Users\yomat\AppData\Local\Temp\cc0omv11.s 			page 50


 295:Generated_Source\PSoC6\pdl\cmsis/include/cmsis_gcc.h **** 
 296:Generated_Source\PSoC6\pdl\cmsis/include/cmsis_gcc.h **** /**
 297:Generated_Source\PSoC6\pdl\cmsis/include/cmsis_gcc.h ****   \brief   Get Main Stack Pointer
 298:Generated_Source\PSoC6\pdl\cmsis/include/cmsis_gcc.h ****   \details Returns the current value of the Main Stack Pointer (MSP).
 299:Generated_Source\PSoC6\pdl\cmsis/include/cmsis_gcc.h ****   \return               MSP Register value
 300:Generated_Source\PSoC6\pdl\cmsis/include/cmsis_gcc.h ****  */
 301:Generated_Source\PSoC6\pdl\cmsis/include/cmsis_gcc.h **** __STATIC_FORCEINLINE uint32_t __get_MSP(void)
 302:Generated_Source\PSoC6\pdl\cmsis/include/cmsis_gcc.h **** {
 303:Generated_Source\PSoC6\pdl\cmsis/include/cmsis_gcc.h ****   register uint32_t result;
 304:Generated_Source\PSoC6\pdl\cmsis/include/cmsis_gcc.h **** 
 305:Generated_Source\PSoC6\pdl\cmsis/include/cmsis_gcc.h ****   __ASM volatile ("MRS %0, msp" : "=r" (result) );
 306:Generated_Source\PSoC6\pdl\cmsis/include/cmsis_gcc.h ****   return(result);
 307:Generated_Source\PSoC6\pdl\cmsis/include/cmsis_gcc.h **** }
 308:Generated_Source\PSoC6\pdl\cmsis/include/cmsis_gcc.h **** 
 309:Generated_Source\PSoC6\pdl\cmsis/include/cmsis_gcc.h **** 
 310:Generated_Source\PSoC6\pdl\cmsis/include/cmsis_gcc.h **** #if (defined (__ARM_FEATURE_CMSE ) && (__ARM_FEATURE_CMSE == 3))
 311:Generated_Source\PSoC6\pdl\cmsis/include/cmsis_gcc.h **** /**
 312:Generated_Source\PSoC6\pdl\cmsis/include/cmsis_gcc.h ****   \brief   Get Main Stack Pointer (non-secure)
 313:Generated_Source\PSoC6\pdl\cmsis/include/cmsis_gcc.h ****   \details Returns the current value of the non-secure Main Stack Pointer (MSP) when in secure stat
 314:Generated_Source\PSoC6\pdl\cmsis/include/cmsis_gcc.h ****   \return               MSP Register value
 315:Generated_Source\PSoC6\pdl\cmsis/include/cmsis_gcc.h ****  */
 316:Generated_Source\PSoC6\pdl\cmsis/include/cmsis_gcc.h **** __STATIC_FORCEINLINE uint32_t __TZ_get_MSP_NS(void)
 317:Generated_Source\PSoC6\pdl\cmsis/include/cmsis_gcc.h **** {
 318:Generated_Source\PSoC6\pdl\cmsis/include/cmsis_gcc.h ****   register uint32_t result;
 319:Generated_Source\PSoC6\pdl\cmsis/include/cmsis_gcc.h **** 
 320:Generated_Source\PSoC6\pdl\cmsis/include/cmsis_gcc.h ****   __ASM volatile ("MRS %0, msp_ns" : "=r" (result) );
 321:Generated_Source\PSoC6\pdl\cmsis/include/cmsis_gcc.h ****   return(result);
 322:Generated_Source\PSoC6\pdl\cmsis/include/cmsis_gcc.h **** }
 323:Generated_Source\PSoC6\pdl\cmsis/include/cmsis_gcc.h **** #endif
 324:Generated_Source\PSoC6\pdl\cmsis/include/cmsis_gcc.h **** 
 325:Generated_Source\PSoC6\pdl\cmsis/include/cmsis_gcc.h **** 
 326:Generated_Source\PSoC6\pdl\cmsis/include/cmsis_gcc.h **** /**
 327:Generated_Source\PSoC6\pdl\cmsis/include/cmsis_gcc.h ****   \brief   Set Main Stack Pointer
 328:Generated_Source\PSoC6\pdl\cmsis/include/cmsis_gcc.h ****   \details Assigns the given value to the Main Stack Pointer (MSP).
 329:Generated_Source\PSoC6\pdl\cmsis/include/cmsis_gcc.h ****   \param [in]    topOfMainStack  Main Stack Pointer value to set
 330:Generated_Source\PSoC6\pdl\cmsis/include/cmsis_gcc.h ****  */
 331:Generated_Source\PSoC6\pdl\cmsis/include/cmsis_gcc.h **** __STATIC_FORCEINLINE void __set_MSP(uint32_t topOfMainStack)
 332:Generated_Source\PSoC6\pdl\cmsis/include/cmsis_gcc.h **** {
 333:Generated_Source\PSoC6\pdl\cmsis/include/cmsis_gcc.h ****   __ASM volatile ("MSR msp, %0" : : "r" (topOfMainStack) : );
 334:Generated_Source\PSoC6\pdl\cmsis/include/cmsis_gcc.h **** }
 335:Generated_Source\PSoC6\pdl\cmsis/include/cmsis_gcc.h **** 
 336:Generated_Source\PSoC6\pdl\cmsis/include/cmsis_gcc.h **** 
 337:Generated_Source\PSoC6\pdl\cmsis/include/cmsis_gcc.h **** #if (defined (__ARM_FEATURE_CMSE ) && (__ARM_FEATURE_CMSE == 3))
 338:Generated_Source\PSoC6\pdl\cmsis/include/cmsis_gcc.h **** /**
 339:Generated_Source\PSoC6\pdl\cmsis/include/cmsis_gcc.h ****   \brief   Set Main Stack Pointer (non-secure)
 340:Generated_Source\PSoC6\pdl\cmsis/include/cmsis_gcc.h ****   \details Assigns the given value to the non-secure Main Stack Pointer (MSP) when in secure state.
 341:Generated_Source\PSoC6\pdl\cmsis/include/cmsis_gcc.h ****   \param [in]    topOfMainStack  Main Stack Pointer value to set
 342:Generated_Source\PSoC6\pdl\cmsis/include/cmsis_gcc.h ****  */
 343:Generated_Source\PSoC6\pdl\cmsis/include/cmsis_gcc.h **** __STATIC_FORCEINLINE void __TZ_set_MSP_NS(uint32_t topOfMainStack)
 344:Generated_Source\PSoC6\pdl\cmsis/include/cmsis_gcc.h **** {
 345:Generated_Source\PSoC6\pdl\cmsis/include/cmsis_gcc.h ****   __ASM volatile ("MSR msp_ns, %0" : : "r" (topOfMainStack) : );
 346:Generated_Source\PSoC6\pdl\cmsis/include/cmsis_gcc.h **** }
 347:Generated_Source\PSoC6\pdl\cmsis/include/cmsis_gcc.h **** #endif
 348:Generated_Source\PSoC6\pdl\cmsis/include/cmsis_gcc.h **** 
 349:Generated_Source\PSoC6\pdl\cmsis/include/cmsis_gcc.h **** 
 350:Generated_Source\PSoC6\pdl\cmsis/include/cmsis_gcc.h **** #if (defined (__ARM_FEATURE_CMSE ) && (__ARM_FEATURE_CMSE == 3))
 351:Generated_Source\PSoC6\pdl\cmsis/include/cmsis_gcc.h **** /**
ARM GAS  C:\Users\yomat\AppData\Local\Temp\cc0omv11.s 			page 51


 352:Generated_Source\PSoC6\pdl\cmsis/include/cmsis_gcc.h ****   \brief   Get Stack Pointer (non-secure)
 353:Generated_Source\PSoC6\pdl\cmsis/include/cmsis_gcc.h ****   \details Returns the current value of the non-secure Stack Pointer (SP) when in secure state.
 354:Generated_Source\PSoC6\pdl\cmsis/include/cmsis_gcc.h ****   \return               SP Register value
 355:Generated_Source\PSoC6\pdl\cmsis/include/cmsis_gcc.h ****  */
 356:Generated_Source\PSoC6\pdl\cmsis/include/cmsis_gcc.h **** __STATIC_FORCEINLINE uint32_t __TZ_get_SP_NS(void)
 357:Generated_Source\PSoC6\pdl\cmsis/include/cmsis_gcc.h **** {
 358:Generated_Source\PSoC6\pdl\cmsis/include/cmsis_gcc.h ****   register uint32_t result;
 359:Generated_Source\PSoC6\pdl\cmsis/include/cmsis_gcc.h **** 
 360:Generated_Source\PSoC6\pdl\cmsis/include/cmsis_gcc.h ****   __ASM volatile ("MRS %0, sp_ns" : "=r" (result) );
 361:Generated_Source\PSoC6\pdl\cmsis/include/cmsis_gcc.h ****   return(result);
 362:Generated_Source\PSoC6\pdl\cmsis/include/cmsis_gcc.h **** }
 363:Generated_Source\PSoC6\pdl\cmsis/include/cmsis_gcc.h **** 
 364:Generated_Source\PSoC6\pdl\cmsis/include/cmsis_gcc.h **** 
 365:Generated_Source\PSoC6\pdl\cmsis/include/cmsis_gcc.h **** /**
 366:Generated_Source\PSoC6\pdl\cmsis/include/cmsis_gcc.h ****   \brief   Set Stack Pointer (non-secure)
 367:Generated_Source\PSoC6\pdl\cmsis/include/cmsis_gcc.h ****   \details Assigns the given value to the non-secure Stack Pointer (SP) when in secure state.
 368:Generated_Source\PSoC6\pdl\cmsis/include/cmsis_gcc.h ****   \param [in]    topOfStack  Stack Pointer value to set
 369:Generated_Source\PSoC6\pdl\cmsis/include/cmsis_gcc.h ****  */
 370:Generated_Source\PSoC6\pdl\cmsis/include/cmsis_gcc.h **** __STATIC_FORCEINLINE void __TZ_set_SP_NS(uint32_t topOfStack)
 371:Generated_Source\PSoC6\pdl\cmsis/include/cmsis_gcc.h **** {
 372:Generated_Source\PSoC6\pdl\cmsis/include/cmsis_gcc.h ****   __ASM volatile ("MSR sp_ns, %0" : : "r" (topOfStack) : );
 373:Generated_Source\PSoC6\pdl\cmsis/include/cmsis_gcc.h **** }
 374:Generated_Source\PSoC6\pdl\cmsis/include/cmsis_gcc.h **** #endif
 375:Generated_Source\PSoC6\pdl\cmsis/include/cmsis_gcc.h **** 
 376:Generated_Source\PSoC6\pdl\cmsis/include/cmsis_gcc.h **** 
 377:Generated_Source\PSoC6\pdl\cmsis/include/cmsis_gcc.h **** /**
 378:Generated_Source\PSoC6\pdl\cmsis/include/cmsis_gcc.h ****   \brief   Get Priority Mask
 379:Generated_Source\PSoC6\pdl\cmsis/include/cmsis_gcc.h ****   \details Returns the current state of the priority mask bit from the Priority Mask Register.
 380:Generated_Source\PSoC6\pdl\cmsis/include/cmsis_gcc.h ****   \return               Priority Mask value
 381:Generated_Source\PSoC6\pdl\cmsis/include/cmsis_gcc.h ****  */
 382:Generated_Source\PSoC6\pdl\cmsis/include/cmsis_gcc.h **** __STATIC_FORCEINLINE uint32_t __get_PRIMASK(void)
 383:Generated_Source\PSoC6\pdl\cmsis/include/cmsis_gcc.h **** {
 384:Generated_Source\PSoC6\pdl\cmsis/include/cmsis_gcc.h ****   uint32_t result;
 385:Generated_Source\PSoC6\pdl\cmsis/include/cmsis_gcc.h **** 
 386:Generated_Source\PSoC6\pdl\cmsis/include/cmsis_gcc.h ****   __ASM volatile ("MRS %0, primask" : "=r" (result) :: "memory");
 387:Generated_Source\PSoC6\pdl\cmsis/include/cmsis_gcc.h ****   return(result);
 388:Generated_Source\PSoC6\pdl\cmsis/include/cmsis_gcc.h **** }
 389:Generated_Source\PSoC6\pdl\cmsis/include/cmsis_gcc.h **** 
 390:Generated_Source\PSoC6\pdl\cmsis/include/cmsis_gcc.h **** 
 391:Generated_Source\PSoC6\pdl\cmsis/include/cmsis_gcc.h **** #if (defined (__ARM_FEATURE_CMSE ) && (__ARM_FEATURE_CMSE == 3))
 392:Generated_Source\PSoC6\pdl\cmsis/include/cmsis_gcc.h **** /**
 393:Generated_Source\PSoC6\pdl\cmsis/include/cmsis_gcc.h ****   \brief   Get Priority Mask (non-secure)
 394:Generated_Source\PSoC6\pdl\cmsis/include/cmsis_gcc.h ****   \details Returns the current state of the non-secure priority mask bit from the Priority Mask Reg
 395:Generated_Source\PSoC6\pdl\cmsis/include/cmsis_gcc.h ****   \return               Priority Mask value
 396:Generated_Source\PSoC6\pdl\cmsis/include/cmsis_gcc.h ****  */
 397:Generated_Source\PSoC6\pdl\cmsis/include/cmsis_gcc.h **** __STATIC_FORCEINLINE uint32_t __TZ_get_PRIMASK_NS(void)
 398:Generated_Source\PSoC6\pdl\cmsis/include/cmsis_gcc.h **** {
 399:Generated_Source\PSoC6\pdl\cmsis/include/cmsis_gcc.h ****   uint32_t result;
 400:Generated_Source\PSoC6\pdl\cmsis/include/cmsis_gcc.h **** 
 401:Generated_Source\PSoC6\pdl\cmsis/include/cmsis_gcc.h ****   __ASM volatile ("MRS %0, primask_ns" : "=r" (result) :: "memory");
 402:Generated_Source\PSoC6\pdl\cmsis/include/cmsis_gcc.h ****   return(result);
 403:Generated_Source\PSoC6\pdl\cmsis/include/cmsis_gcc.h **** }
 404:Generated_Source\PSoC6\pdl\cmsis/include/cmsis_gcc.h **** #endif
 405:Generated_Source\PSoC6\pdl\cmsis/include/cmsis_gcc.h **** 
 406:Generated_Source\PSoC6\pdl\cmsis/include/cmsis_gcc.h **** 
 407:Generated_Source\PSoC6\pdl\cmsis/include/cmsis_gcc.h **** /**
 408:Generated_Source\PSoC6\pdl\cmsis/include/cmsis_gcc.h ****   \brief   Set Priority Mask
ARM GAS  C:\Users\yomat\AppData\Local\Temp\cc0omv11.s 			page 52


 409:Generated_Source\PSoC6\pdl\cmsis/include/cmsis_gcc.h ****   \details Assigns the given value to the Priority Mask Register.
 410:Generated_Source\PSoC6\pdl\cmsis/include/cmsis_gcc.h ****   \param [in]    priMask  Priority Mask
 411:Generated_Source\PSoC6\pdl\cmsis/include/cmsis_gcc.h ****  */
 412:Generated_Source\PSoC6\pdl\cmsis/include/cmsis_gcc.h **** __STATIC_FORCEINLINE void __set_PRIMASK(uint32_t priMask)
 413:Generated_Source\PSoC6\pdl\cmsis/include/cmsis_gcc.h **** {
 414:Generated_Source\PSoC6\pdl\cmsis/include/cmsis_gcc.h ****   __ASM volatile ("MSR primask, %0" : : "r" (priMask) : "memory");
 415:Generated_Source\PSoC6\pdl\cmsis/include/cmsis_gcc.h **** }
 416:Generated_Source\PSoC6\pdl\cmsis/include/cmsis_gcc.h **** 
 417:Generated_Source\PSoC6\pdl\cmsis/include/cmsis_gcc.h **** 
 418:Generated_Source\PSoC6\pdl\cmsis/include/cmsis_gcc.h **** #if (defined (__ARM_FEATURE_CMSE ) && (__ARM_FEATURE_CMSE == 3))
 419:Generated_Source\PSoC6\pdl\cmsis/include/cmsis_gcc.h **** /**
 420:Generated_Source\PSoC6\pdl\cmsis/include/cmsis_gcc.h ****   \brief   Set Priority Mask (non-secure)
 421:Generated_Source\PSoC6\pdl\cmsis/include/cmsis_gcc.h ****   \details Assigns the given value to the non-secure Priority Mask Register when in secure state.
 422:Generated_Source\PSoC6\pdl\cmsis/include/cmsis_gcc.h ****   \param [in]    priMask  Priority Mask
 423:Generated_Source\PSoC6\pdl\cmsis/include/cmsis_gcc.h ****  */
 424:Generated_Source\PSoC6\pdl\cmsis/include/cmsis_gcc.h **** __STATIC_FORCEINLINE void __TZ_set_PRIMASK_NS(uint32_t priMask)
 425:Generated_Source\PSoC6\pdl\cmsis/include/cmsis_gcc.h **** {
 426:Generated_Source\PSoC6\pdl\cmsis/include/cmsis_gcc.h ****   __ASM volatile ("MSR primask_ns, %0" : : "r" (priMask) : "memory");
 427:Generated_Source\PSoC6\pdl\cmsis/include/cmsis_gcc.h **** }
 428:Generated_Source\PSoC6\pdl\cmsis/include/cmsis_gcc.h **** #endif
 429:Generated_Source\PSoC6\pdl\cmsis/include/cmsis_gcc.h **** 
 430:Generated_Source\PSoC6\pdl\cmsis/include/cmsis_gcc.h **** 
 431:Generated_Source\PSoC6\pdl\cmsis/include/cmsis_gcc.h **** #if ((defined (__ARM_ARCH_7M__      ) && (__ARM_ARCH_7M__      == 1)) || \
 432:Generated_Source\PSoC6\pdl\cmsis/include/cmsis_gcc.h ****      (defined (__ARM_ARCH_7EM__     ) && (__ARM_ARCH_7EM__     == 1)) || \
 433:Generated_Source\PSoC6\pdl\cmsis/include/cmsis_gcc.h ****      (defined (__ARM_ARCH_8M_MAIN__ ) && (__ARM_ARCH_8M_MAIN__ == 1))    )
 434:Generated_Source\PSoC6\pdl\cmsis/include/cmsis_gcc.h **** /**
 435:Generated_Source\PSoC6\pdl\cmsis/include/cmsis_gcc.h ****   \brief   Enable FIQ
 436:Generated_Source\PSoC6\pdl\cmsis/include/cmsis_gcc.h ****   \details Enables FIQ interrupts by clearing the F-bit in the CPSR.
 437:Generated_Source\PSoC6\pdl\cmsis/include/cmsis_gcc.h ****            Can only be executed in Privileged modes.
 438:Generated_Source\PSoC6\pdl\cmsis/include/cmsis_gcc.h ****  */
 439:Generated_Source\PSoC6\pdl\cmsis/include/cmsis_gcc.h **** __STATIC_FORCEINLINE void __enable_fault_irq(void)
 440:Generated_Source\PSoC6\pdl\cmsis/include/cmsis_gcc.h **** {
 441:Generated_Source\PSoC6\pdl\cmsis/include/cmsis_gcc.h ****   __ASM volatile ("cpsie f" : : : "memory");
 442:Generated_Source\PSoC6\pdl\cmsis/include/cmsis_gcc.h **** }
 443:Generated_Source\PSoC6\pdl\cmsis/include/cmsis_gcc.h **** 
 444:Generated_Source\PSoC6\pdl\cmsis/include/cmsis_gcc.h **** 
 445:Generated_Source\PSoC6\pdl\cmsis/include/cmsis_gcc.h **** /**
 446:Generated_Source\PSoC6\pdl\cmsis/include/cmsis_gcc.h ****   \brief   Disable FIQ
 447:Generated_Source\PSoC6\pdl\cmsis/include/cmsis_gcc.h ****   \details Disables FIQ interrupts by setting the F-bit in the CPSR.
 448:Generated_Source\PSoC6\pdl\cmsis/include/cmsis_gcc.h ****            Can only be executed in Privileged modes.
 449:Generated_Source\PSoC6\pdl\cmsis/include/cmsis_gcc.h ****  */
 450:Generated_Source\PSoC6\pdl\cmsis/include/cmsis_gcc.h **** __STATIC_FORCEINLINE void __disable_fault_irq(void)
 451:Generated_Source\PSoC6\pdl\cmsis/include/cmsis_gcc.h **** {
 452:Generated_Source\PSoC6\pdl\cmsis/include/cmsis_gcc.h ****   __ASM volatile ("cpsid f" : : : "memory");
 453:Generated_Source\PSoC6\pdl\cmsis/include/cmsis_gcc.h **** }
 454:Generated_Source\PSoC6\pdl\cmsis/include/cmsis_gcc.h **** 
 455:Generated_Source\PSoC6\pdl\cmsis/include/cmsis_gcc.h **** 
 456:Generated_Source\PSoC6\pdl\cmsis/include/cmsis_gcc.h **** /**
 457:Generated_Source\PSoC6\pdl\cmsis/include/cmsis_gcc.h ****   \brief   Get Base Priority
 458:Generated_Source\PSoC6\pdl\cmsis/include/cmsis_gcc.h ****   \details Returns the current value of the Base Priority register.
 459:Generated_Source\PSoC6\pdl\cmsis/include/cmsis_gcc.h ****   \return               Base Priority register value
 460:Generated_Source\PSoC6\pdl\cmsis/include/cmsis_gcc.h ****  */
 461:Generated_Source\PSoC6\pdl\cmsis/include/cmsis_gcc.h **** __STATIC_FORCEINLINE uint32_t __get_BASEPRI(void)
 462:Generated_Source\PSoC6\pdl\cmsis/include/cmsis_gcc.h **** {
 463:Generated_Source\PSoC6\pdl\cmsis/include/cmsis_gcc.h ****   uint32_t result;
 464:Generated_Source\PSoC6\pdl\cmsis/include/cmsis_gcc.h **** 
 465:Generated_Source\PSoC6\pdl\cmsis/include/cmsis_gcc.h ****   __ASM volatile ("MRS %0, basepri" : "=r" (result) );
ARM GAS  C:\Users\yomat\AppData\Local\Temp\cc0omv11.s 			page 53


 466:Generated_Source\PSoC6\pdl\cmsis/include/cmsis_gcc.h ****   return(result);
 467:Generated_Source\PSoC6\pdl\cmsis/include/cmsis_gcc.h **** }
 468:Generated_Source\PSoC6\pdl\cmsis/include/cmsis_gcc.h **** 
 469:Generated_Source\PSoC6\pdl\cmsis/include/cmsis_gcc.h **** 
 470:Generated_Source\PSoC6\pdl\cmsis/include/cmsis_gcc.h **** #if (defined (__ARM_FEATURE_CMSE ) && (__ARM_FEATURE_CMSE == 3))
 471:Generated_Source\PSoC6\pdl\cmsis/include/cmsis_gcc.h **** /**
 472:Generated_Source\PSoC6\pdl\cmsis/include/cmsis_gcc.h ****   \brief   Get Base Priority (non-secure)
 473:Generated_Source\PSoC6\pdl\cmsis/include/cmsis_gcc.h ****   \details Returns the current value of the non-secure Base Priority register when in secure state.
 474:Generated_Source\PSoC6\pdl\cmsis/include/cmsis_gcc.h ****   \return               Base Priority register value
 475:Generated_Source\PSoC6\pdl\cmsis/include/cmsis_gcc.h ****  */
 476:Generated_Source\PSoC6\pdl\cmsis/include/cmsis_gcc.h **** __STATIC_FORCEINLINE uint32_t __TZ_get_BASEPRI_NS(void)
 477:Generated_Source\PSoC6\pdl\cmsis/include/cmsis_gcc.h **** {
 478:Generated_Source\PSoC6\pdl\cmsis/include/cmsis_gcc.h ****   uint32_t result;
 479:Generated_Source\PSoC6\pdl\cmsis/include/cmsis_gcc.h **** 
 480:Generated_Source\PSoC6\pdl\cmsis/include/cmsis_gcc.h ****   __ASM volatile ("MRS %0, basepri_ns" : "=r" (result) );
 481:Generated_Source\PSoC6\pdl\cmsis/include/cmsis_gcc.h ****   return(result);
 482:Generated_Source\PSoC6\pdl\cmsis/include/cmsis_gcc.h **** }
 483:Generated_Source\PSoC6\pdl\cmsis/include/cmsis_gcc.h **** #endif
 484:Generated_Source\PSoC6\pdl\cmsis/include/cmsis_gcc.h **** 
 485:Generated_Source\PSoC6\pdl\cmsis/include/cmsis_gcc.h **** 
 486:Generated_Source\PSoC6\pdl\cmsis/include/cmsis_gcc.h **** /**
 487:Generated_Source\PSoC6\pdl\cmsis/include/cmsis_gcc.h ****   \brief   Set Base Priority
 488:Generated_Source\PSoC6\pdl\cmsis/include/cmsis_gcc.h ****   \details Assigns the given value to the Base Priority register.
 489:Generated_Source\PSoC6\pdl\cmsis/include/cmsis_gcc.h ****   \param [in]    basePri  Base Priority value to set
 490:Generated_Source\PSoC6\pdl\cmsis/include/cmsis_gcc.h ****  */
 491:Generated_Source\PSoC6\pdl\cmsis/include/cmsis_gcc.h **** __STATIC_FORCEINLINE void __set_BASEPRI(uint32_t basePri)
 492:Generated_Source\PSoC6\pdl\cmsis/include/cmsis_gcc.h **** {
 493:Generated_Source\PSoC6\pdl\cmsis/include/cmsis_gcc.h ****   __ASM volatile ("MSR basepri, %0" : : "r" (basePri) : "memory");
 494:Generated_Source\PSoC6\pdl\cmsis/include/cmsis_gcc.h **** }
 495:Generated_Source\PSoC6\pdl\cmsis/include/cmsis_gcc.h **** 
 496:Generated_Source\PSoC6\pdl\cmsis/include/cmsis_gcc.h **** 
 497:Generated_Source\PSoC6\pdl\cmsis/include/cmsis_gcc.h **** #if (defined (__ARM_FEATURE_CMSE ) && (__ARM_FEATURE_CMSE == 3))
 498:Generated_Source\PSoC6\pdl\cmsis/include/cmsis_gcc.h **** /**
 499:Generated_Source\PSoC6\pdl\cmsis/include/cmsis_gcc.h ****   \brief   Set Base Priority (non-secure)
 500:Generated_Source\PSoC6\pdl\cmsis/include/cmsis_gcc.h ****   \details Assigns the given value to the non-secure Base Priority register when in secure state.
 501:Generated_Source\PSoC6\pdl\cmsis/include/cmsis_gcc.h ****   \param [in]    basePri  Base Priority value to set
 502:Generated_Source\PSoC6\pdl\cmsis/include/cmsis_gcc.h ****  */
 503:Generated_Source\PSoC6\pdl\cmsis/include/cmsis_gcc.h **** __STATIC_FORCEINLINE void __TZ_set_BASEPRI_NS(uint32_t basePri)
 504:Generated_Source\PSoC6\pdl\cmsis/include/cmsis_gcc.h **** {
 505:Generated_Source\PSoC6\pdl\cmsis/include/cmsis_gcc.h ****   __ASM volatile ("MSR basepri_ns, %0" : : "r" (basePri) : "memory");
 506:Generated_Source\PSoC6\pdl\cmsis/include/cmsis_gcc.h **** }
 507:Generated_Source\PSoC6\pdl\cmsis/include/cmsis_gcc.h **** #endif
 508:Generated_Source\PSoC6\pdl\cmsis/include/cmsis_gcc.h **** 
 509:Generated_Source\PSoC6\pdl\cmsis/include/cmsis_gcc.h **** 
 510:Generated_Source\PSoC6\pdl\cmsis/include/cmsis_gcc.h **** /**
 511:Generated_Source\PSoC6\pdl\cmsis/include/cmsis_gcc.h ****   \brief   Set Base Priority with condition
 512:Generated_Source\PSoC6\pdl\cmsis/include/cmsis_gcc.h ****   \details Assigns the given value to the Base Priority register only if BASEPRI masking is disable
 513:Generated_Source\PSoC6\pdl\cmsis/include/cmsis_gcc.h ****            or the new value increases the BASEPRI priority level.
 514:Generated_Source\PSoC6\pdl\cmsis/include/cmsis_gcc.h ****   \param [in]    basePri  Base Priority value to set
 515:Generated_Source\PSoC6\pdl\cmsis/include/cmsis_gcc.h ****  */
 516:Generated_Source\PSoC6\pdl\cmsis/include/cmsis_gcc.h **** __STATIC_FORCEINLINE void __set_BASEPRI_MAX(uint32_t basePri)
 517:Generated_Source\PSoC6\pdl\cmsis/include/cmsis_gcc.h **** {
 518:Generated_Source\PSoC6\pdl\cmsis/include/cmsis_gcc.h ****   __ASM volatile ("MSR basepri_max, %0" : : "r" (basePri) : "memory");
 519:Generated_Source\PSoC6\pdl\cmsis/include/cmsis_gcc.h **** }
 520:Generated_Source\PSoC6\pdl\cmsis/include/cmsis_gcc.h **** 
 521:Generated_Source\PSoC6\pdl\cmsis/include/cmsis_gcc.h **** 
 522:Generated_Source\PSoC6\pdl\cmsis/include/cmsis_gcc.h **** /**
ARM GAS  C:\Users\yomat\AppData\Local\Temp\cc0omv11.s 			page 54


 523:Generated_Source\PSoC6\pdl\cmsis/include/cmsis_gcc.h ****   \brief   Get Fault Mask
 524:Generated_Source\PSoC6\pdl\cmsis/include/cmsis_gcc.h ****   \details Returns the current value of the Fault Mask register.
 525:Generated_Source\PSoC6\pdl\cmsis/include/cmsis_gcc.h ****   \return               Fault Mask register value
 526:Generated_Source\PSoC6\pdl\cmsis/include/cmsis_gcc.h ****  */
 527:Generated_Source\PSoC6\pdl\cmsis/include/cmsis_gcc.h **** __STATIC_FORCEINLINE uint32_t __get_FAULTMASK(void)
 528:Generated_Source\PSoC6\pdl\cmsis/include/cmsis_gcc.h **** {
 529:Generated_Source\PSoC6\pdl\cmsis/include/cmsis_gcc.h ****   uint32_t result;
 530:Generated_Source\PSoC6\pdl\cmsis/include/cmsis_gcc.h **** 
 531:Generated_Source\PSoC6\pdl\cmsis/include/cmsis_gcc.h ****   __ASM volatile ("MRS %0, faultmask" : "=r" (result) );
 532:Generated_Source\PSoC6\pdl\cmsis/include/cmsis_gcc.h ****   return(result);
 533:Generated_Source\PSoC6\pdl\cmsis/include/cmsis_gcc.h **** }
 534:Generated_Source\PSoC6\pdl\cmsis/include/cmsis_gcc.h **** 
 535:Generated_Source\PSoC6\pdl\cmsis/include/cmsis_gcc.h **** 
 536:Generated_Source\PSoC6\pdl\cmsis/include/cmsis_gcc.h **** #if (defined (__ARM_FEATURE_CMSE ) && (__ARM_FEATURE_CMSE == 3))
 537:Generated_Source\PSoC6\pdl\cmsis/include/cmsis_gcc.h **** /**
 538:Generated_Source\PSoC6\pdl\cmsis/include/cmsis_gcc.h ****   \brief   Get Fault Mask (non-secure)
 539:Generated_Source\PSoC6\pdl\cmsis/include/cmsis_gcc.h ****   \details Returns the current value of the non-secure Fault Mask register when in secure state.
 540:Generated_Source\PSoC6\pdl\cmsis/include/cmsis_gcc.h ****   \return               Fault Mask register value
 541:Generated_Source\PSoC6\pdl\cmsis/include/cmsis_gcc.h ****  */
 542:Generated_Source\PSoC6\pdl\cmsis/include/cmsis_gcc.h **** __STATIC_FORCEINLINE uint32_t __TZ_get_FAULTMASK_NS(void)
 543:Generated_Source\PSoC6\pdl\cmsis/include/cmsis_gcc.h **** {
 544:Generated_Source\PSoC6\pdl\cmsis/include/cmsis_gcc.h ****   uint32_t result;
 545:Generated_Source\PSoC6\pdl\cmsis/include/cmsis_gcc.h **** 
 546:Generated_Source\PSoC6\pdl\cmsis/include/cmsis_gcc.h ****   __ASM volatile ("MRS %0, faultmask_ns" : "=r" (result) );
 547:Generated_Source\PSoC6\pdl\cmsis/include/cmsis_gcc.h ****   return(result);
 548:Generated_Source\PSoC6\pdl\cmsis/include/cmsis_gcc.h **** }
 549:Generated_Source\PSoC6\pdl\cmsis/include/cmsis_gcc.h **** #endif
 550:Generated_Source\PSoC6\pdl\cmsis/include/cmsis_gcc.h **** 
 551:Generated_Source\PSoC6\pdl\cmsis/include/cmsis_gcc.h **** 
 552:Generated_Source\PSoC6\pdl\cmsis/include/cmsis_gcc.h **** /**
 553:Generated_Source\PSoC6\pdl\cmsis/include/cmsis_gcc.h ****   \brief   Set Fault Mask
 554:Generated_Source\PSoC6\pdl\cmsis/include/cmsis_gcc.h ****   \details Assigns the given value to the Fault Mask register.
 555:Generated_Source\PSoC6\pdl\cmsis/include/cmsis_gcc.h ****   \param [in]    faultMask  Fault Mask value to set
 556:Generated_Source\PSoC6\pdl\cmsis/include/cmsis_gcc.h ****  */
 557:Generated_Source\PSoC6\pdl\cmsis/include/cmsis_gcc.h **** __STATIC_FORCEINLINE void __set_FAULTMASK(uint32_t faultMask)
 558:Generated_Source\PSoC6\pdl\cmsis/include/cmsis_gcc.h **** {
 559:Generated_Source\PSoC6\pdl\cmsis/include/cmsis_gcc.h ****   __ASM volatile ("MSR faultmask, %0" : : "r" (faultMask) : "memory");
 560:Generated_Source\PSoC6\pdl\cmsis/include/cmsis_gcc.h **** }
 561:Generated_Source\PSoC6\pdl\cmsis/include/cmsis_gcc.h **** 
 562:Generated_Source\PSoC6\pdl\cmsis/include/cmsis_gcc.h **** 
 563:Generated_Source\PSoC6\pdl\cmsis/include/cmsis_gcc.h **** #if (defined (__ARM_FEATURE_CMSE ) && (__ARM_FEATURE_CMSE == 3))
 564:Generated_Source\PSoC6\pdl\cmsis/include/cmsis_gcc.h **** /**
 565:Generated_Source\PSoC6\pdl\cmsis/include/cmsis_gcc.h ****   \brief   Set Fault Mask (non-secure)
 566:Generated_Source\PSoC6\pdl\cmsis/include/cmsis_gcc.h ****   \details Assigns the given value to the non-secure Fault Mask register when in secure state.
 567:Generated_Source\PSoC6\pdl\cmsis/include/cmsis_gcc.h ****   \param [in]    faultMask  Fault Mask value to set
 568:Generated_Source\PSoC6\pdl\cmsis/include/cmsis_gcc.h ****  */
 569:Generated_Source\PSoC6\pdl\cmsis/include/cmsis_gcc.h **** __STATIC_FORCEINLINE void __TZ_set_FAULTMASK_NS(uint32_t faultMask)
 570:Generated_Source\PSoC6\pdl\cmsis/include/cmsis_gcc.h **** {
 571:Generated_Source\PSoC6\pdl\cmsis/include/cmsis_gcc.h ****   __ASM volatile ("MSR faultmask_ns, %0" : : "r" (faultMask) : "memory");
 572:Generated_Source\PSoC6\pdl\cmsis/include/cmsis_gcc.h **** }
 573:Generated_Source\PSoC6\pdl\cmsis/include/cmsis_gcc.h **** #endif
 574:Generated_Source\PSoC6\pdl\cmsis/include/cmsis_gcc.h **** 
 575:Generated_Source\PSoC6\pdl\cmsis/include/cmsis_gcc.h **** #endif /* ((defined (__ARM_ARCH_7M__      ) && (__ARM_ARCH_7M__      == 1)) || \
 576:Generated_Source\PSoC6\pdl\cmsis/include/cmsis_gcc.h ****            (defined (__ARM_ARCH_7EM__     ) && (__ARM_ARCH_7EM__     == 1)) || \
 577:Generated_Source\PSoC6\pdl\cmsis/include/cmsis_gcc.h ****            (defined (__ARM_ARCH_8M_MAIN__ ) && (__ARM_ARCH_8M_MAIN__ == 1))    ) */
 578:Generated_Source\PSoC6\pdl\cmsis/include/cmsis_gcc.h **** 
 579:Generated_Source\PSoC6\pdl\cmsis/include/cmsis_gcc.h **** 
ARM GAS  C:\Users\yomat\AppData\Local\Temp\cc0omv11.s 			page 55


 580:Generated_Source\PSoC6\pdl\cmsis/include/cmsis_gcc.h **** #if ((defined (__ARM_ARCH_8M_MAIN__ ) && (__ARM_ARCH_8M_MAIN__ == 1)) || \
 581:Generated_Source\PSoC6\pdl\cmsis/include/cmsis_gcc.h ****      (defined (__ARM_ARCH_8M_BASE__ ) && (__ARM_ARCH_8M_BASE__ == 1))    )
 582:Generated_Source\PSoC6\pdl\cmsis/include/cmsis_gcc.h **** 
 583:Generated_Source\PSoC6\pdl\cmsis/include/cmsis_gcc.h **** /**
 584:Generated_Source\PSoC6\pdl\cmsis/include/cmsis_gcc.h ****   \brief   Get Process Stack Pointer Limit
 585:Generated_Source\PSoC6\pdl\cmsis/include/cmsis_gcc.h ****   Devices without ARMv8-M Main Extensions (i.e. Cortex-M23) lack the non-secure
 586:Generated_Source\PSoC6\pdl\cmsis/include/cmsis_gcc.h ****   Stack Pointer Limit register hence zero is returned always in non-secure
 587:Generated_Source\PSoC6\pdl\cmsis/include/cmsis_gcc.h ****   mode.
 588:Generated_Source\PSoC6\pdl\cmsis/include/cmsis_gcc.h ****   
 589:Generated_Source\PSoC6\pdl\cmsis/include/cmsis_gcc.h ****   \details Returns the current value of the Process Stack Pointer Limit (PSPLIM).
 590:Generated_Source\PSoC6\pdl\cmsis/include/cmsis_gcc.h ****   \return               PSPLIM Register value
 591:Generated_Source\PSoC6\pdl\cmsis/include/cmsis_gcc.h ****  */
 592:Generated_Source\PSoC6\pdl\cmsis/include/cmsis_gcc.h **** __STATIC_FORCEINLINE uint32_t __get_PSPLIM(void)
 593:Generated_Source\PSoC6\pdl\cmsis/include/cmsis_gcc.h **** {
 594:Generated_Source\PSoC6\pdl\cmsis/include/cmsis_gcc.h **** #if (!(defined (__ARM_ARCH_8M_MAIN__ ) && (__ARM_ARCH_8M_MAIN__ == 1)) && \
 595:Generated_Source\PSoC6\pdl\cmsis/include/cmsis_gcc.h ****     (!defined (__ARM_FEATURE_CMSE) || (__ARM_FEATURE_CMSE < 3)))
 596:Generated_Source\PSoC6\pdl\cmsis/include/cmsis_gcc.h ****     // without main extensions, the non-secure PSPLIM is RAZ/WI
 597:Generated_Source\PSoC6\pdl\cmsis/include/cmsis_gcc.h ****   return 0U;
 598:Generated_Source\PSoC6\pdl\cmsis/include/cmsis_gcc.h **** #else
 599:Generated_Source\PSoC6\pdl\cmsis/include/cmsis_gcc.h ****   register uint32_t result;
 600:Generated_Source\PSoC6\pdl\cmsis/include/cmsis_gcc.h ****   __ASM volatile ("MRS %0, psplim"  : "=r" (result) );
 601:Generated_Source\PSoC6\pdl\cmsis/include/cmsis_gcc.h ****   return result;
 602:Generated_Source\PSoC6\pdl\cmsis/include/cmsis_gcc.h **** #endif
 603:Generated_Source\PSoC6\pdl\cmsis/include/cmsis_gcc.h **** }
 604:Generated_Source\PSoC6\pdl\cmsis/include/cmsis_gcc.h **** 
 605:Generated_Source\PSoC6\pdl\cmsis/include/cmsis_gcc.h **** #if (defined (__ARM_FEATURE_CMSE) && (__ARM_FEATURE_CMSE == 3))
 606:Generated_Source\PSoC6\pdl\cmsis/include/cmsis_gcc.h **** /**
 607:Generated_Source\PSoC6\pdl\cmsis/include/cmsis_gcc.h ****   \brief   Get Process Stack Pointer Limit (non-secure)
 608:Generated_Source\PSoC6\pdl\cmsis/include/cmsis_gcc.h ****   Devices without ARMv8-M Main Extensions (i.e. Cortex-M23) lack the non-secure
 609:Generated_Source\PSoC6\pdl\cmsis/include/cmsis_gcc.h ****   Stack Pointer Limit register hence zero is returned always.
 610:Generated_Source\PSoC6\pdl\cmsis/include/cmsis_gcc.h **** 
 611:Generated_Source\PSoC6\pdl\cmsis/include/cmsis_gcc.h ****   \details Returns the current value of the non-secure Process Stack Pointer Limit (PSPLIM) when in
 612:Generated_Source\PSoC6\pdl\cmsis/include/cmsis_gcc.h ****   \return               PSPLIM Register value
 613:Generated_Source\PSoC6\pdl\cmsis/include/cmsis_gcc.h ****  */
 614:Generated_Source\PSoC6\pdl\cmsis/include/cmsis_gcc.h **** __STATIC_FORCEINLINE uint32_t __TZ_get_PSPLIM_NS(void)
 615:Generated_Source\PSoC6\pdl\cmsis/include/cmsis_gcc.h **** {
 616:Generated_Source\PSoC6\pdl\cmsis/include/cmsis_gcc.h **** #if (!(defined (__ARM_ARCH_8M_MAIN__ ) && (__ARM_ARCH_8M_MAIN__ == 1)))
 617:Generated_Source\PSoC6\pdl\cmsis/include/cmsis_gcc.h ****   // without main extensions, the non-secure PSPLIM is RAZ/WI
 618:Generated_Source\PSoC6\pdl\cmsis/include/cmsis_gcc.h ****   return 0U;
 619:Generated_Source\PSoC6\pdl\cmsis/include/cmsis_gcc.h **** #else
 620:Generated_Source\PSoC6\pdl\cmsis/include/cmsis_gcc.h ****   register uint32_t result;
 621:Generated_Source\PSoC6\pdl\cmsis/include/cmsis_gcc.h ****   __ASM volatile ("MRS %0, psplim_ns"  : "=r" (result) );
 622:Generated_Source\PSoC6\pdl\cmsis/include/cmsis_gcc.h ****   return result;
 623:Generated_Source\PSoC6\pdl\cmsis/include/cmsis_gcc.h **** #endif
 624:Generated_Source\PSoC6\pdl\cmsis/include/cmsis_gcc.h **** }
 625:Generated_Source\PSoC6\pdl\cmsis/include/cmsis_gcc.h **** #endif
 626:Generated_Source\PSoC6\pdl\cmsis/include/cmsis_gcc.h **** 
 627:Generated_Source\PSoC6\pdl\cmsis/include/cmsis_gcc.h **** 
 628:Generated_Source\PSoC6\pdl\cmsis/include/cmsis_gcc.h **** /**
 629:Generated_Source\PSoC6\pdl\cmsis/include/cmsis_gcc.h ****   \brief   Set Process Stack Pointer Limit
 630:Generated_Source\PSoC6\pdl\cmsis/include/cmsis_gcc.h ****   Devices without ARMv8-M Main Extensions (i.e. Cortex-M23) lack the non-secure
 631:Generated_Source\PSoC6\pdl\cmsis/include/cmsis_gcc.h ****   Stack Pointer Limit register hence the write is silently ignored in non-secure
 632:Generated_Source\PSoC6\pdl\cmsis/include/cmsis_gcc.h ****   mode.
 633:Generated_Source\PSoC6\pdl\cmsis/include/cmsis_gcc.h ****   
 634:Generated_Source\PSoC6\pdl\cmsis/include/cmsis_gcc.h ****   \details Assigns the given value to the Process Stack Pointer Limit (PSPLIM).
 635:Generated_Source\PSoC6\pdl\cmsis/include/cmsis_gcc.h ****   \param [in]    ProcStackPtrLimit  Process Stack Pointer Limit value to set
 636:Generated_Source\PSoC6\pdl\cmsis/include/cmsis_gcc.h ****  */
ARM GAS  C:\Users\yomat\AppData\Local\Temp\cc0omv11.s 			page 56


 637:Generated_Source\PSoC6\pdl\cmsis/include/cmsis_gcc.h **** __STATIC_FORCEINLINE void __set_PSPLIM(uint32_t ProcStackPtrLimit)
 638:Generated_Source\PSoC6\pdl\cmsis/include/cmsis_gcc.h **** {
 639:Generated_Source\PSoC6\pdl\cmsis/include/cmsis_gcc.h **** #if (!(defined (__ARM_ARCH_8M_MAIN__ ) && (__ARM_ARCH_8M_MAIN__ == 1)) && \
 640:Generated_Source\PSoC6\pdl\cmsis/include/cmsis_gcc.h ****     (!defined (__ARM_FEATURE_CMSE) || (__ARM_FEATURE_CMSE < 3)))
 641:Generated_Source\PSoC6\pdl\cmsis/include/cmsis_gcc.h ****   // without main extensions, the non-secure PSPLIM is RAZ/WI
 642:Generated_Source\PSoC6\pdl\cmsis/include/cmsis_gcc.h ****   (void)ProcStackPtrLimit;
 643:Generated_Source\PSoC6\pdl\cmsis/include/cmsis_gcc.h **** #else
 644:Generated_Source\PSoC6\pdl\cmsis/include/cmsis_gcc.h ****   __ASM volatile ("MSR psplim, %0" : : "r" (ProcStackPtrLimit));
 645:Generated_Source\PSoC6\pdl\cmsis/include/cmsis_gcc.h **** #endif
 646:Generated_Source\PSoC6\pdl\cmsis/include/cmsis_gcc.h **** }
 647:Generated_Source\PSoC6\pdl\cmsis/include/cmsis_gcc.h **** 
 648:Generated_Source\PSoC6\pdl\cmsis/include/cmsis_gcc.h **** 
 649:Generated_Source\PSoC6\pdl\cmsis/include/cmsis_gcc.h **** #if (defined (__ARM_FEATURE_CMSE  ) && (__ARM_FEATURE_CMSE   == 3))
 650:Generated_Source\PSoC6\pdl\cmsis/include/cmsis_gcc.h **** /**
 651:Generated_Source\PSoC6\pdl\cmsis/include/cmsis_gcc.h ****   \brief   Set Process Stack Pointer (non-secure)
 652:Generated_Source\PSoC6\pdl\cmsis/include/cmsis_gcc.h ****   Devices without ARMv8-M Main Extensions (i.e. Cortex-M23) lack the non-secure
 653:Generated_Source\PSoC6\pdl\cmsis/include/cmsis_gcc.h ****   Stack Pointer Limit register hence the write is silently ignored.
 654:Generated_Source\PSoC6\pdl\cmsis/include/cmsis_gcc.h **** 
 655:Generated_Source\PSoC6\pdl\cmsis/include/cmsis_gcc.h ****   \details Assigns the given value to the non-secure Process Stack Pointer Limit (PSPLIM) when in s
 656:Generated_Source\PSoC6\pdl\cmsis/include/cmsis_gcc.h ****   \param [in]    ProcStackPtrLimit  Process Stack Pointer Limit value to set
 657:Generated_Source\PSoC6\pdl\cmsis/include/cmsis_gcc.h ****  */
 658:Generated_Source\PSoC6\pdl\cmsis/include/cmsis_gcc.h **** __STATIC_FORCEINLINE void __TZ_set_PSPLIM_NS(uint32_t ProcStackPtrLimit)
 659:Generated_Source\PSoC6\pdl\cmsis/include/cmsis_gcc.h **** {
 660:Generated_Source\PSoC6\pdl\cmsis/include/cmsis_gcc.h **** #if (!(defined (__ARM_ARCH_8M_MAIN__ ) && (__ARM_ARCH_8M_MAIN__ == 1)))
 661:Generated_Source\PSoC6\pdl\cmsis/include/cmsis_gcc.h ****   // without main extensions, the non-secure PSPLIM is RAZ/WI
 662:Generated_Source\PSoC6\pdl\cmsis/include/cmsis_gcc.h ****   (void)ProcStackPtrLimit;
 663:Generated_Source\PSoC6\pdl\cmsis/include/cmsis_gcc.h **** #else
 664:Generated_Source\PSoC6\pdl\cmsis/include/cmsis_gcc.h ****   __ASM volatile ("MSR psplim_ns, %0\n" : : "r" (ProcStackPtrLimit));
 665:Generated_Source\PSoC6\pdl\cmsis/include/cmsis_gcc.h **** #endif
 666:Generated_Source\PSoC6\pdl\cmsis/include/cmsis_gcc.h **** }
 667:Generated_Source\PSoC6\pdl\cmsis/include/cmsis_gcc.h **** #endif
 668:Generated_Source\PSoC6\pdl\cmsis/include/cmsis_gcc.h **** 
 669:Generated_Source\PSoC6\pdl\cmsis/include/cmsis_gcc.h **** 
 670:Generated_Source\PSoC6\pdl\cmsis/include/cmsis_gcc.h **** /**
 671:Generated_Source\PSoC6\pdl\cmsis/include/cmsis_gcc.h ****   \brief   Get Main Stack Pointer Limit
 672:Generated_Source\PSoC6\pdl\cmsis/include/cmsis_gcc.h ****   Devices without ARMv8-M Main Extensions (i.e. Cortex-M23) lack the non-secure
 673:Generated_Source\PSoC6\pdl\cmsis/include/cmsis_gcc.h ****   Stack Pointer Limit register hence zero is returned always in non-secure
 674:Generated_Source\PSoC6\pdl\cmsis/include/cmsis_gcc.h ****   mode.
 675:Generated_Source\PSoC6\pdl\cmsis/include/cmsis_gcc.h **** 
 676:Generated_Source\PSoC6\pdl\cmsis/include/cmsis_gcc.h ****   \details Returns the current value of the Main Stack Pointer Limit (MSPLIM).
 677:Generated_Source\PSoC6\pdl\cmsis/include/cmsis_gcc.h ****   \return               MSPLIM Register value
 678:Generated_Source\PSoC6\pdl\cmsis/include/cmsis_gcc.h ****  */
 679:Generated_Source\PSoC6\pdl\cmsis/include/cmsis_gcc.h **** __STATIC_FORCEINLINE uint32_t __get_MSPLIM(void)
 680:Generated_Source\PSoC6\pdl\cmsis/include/cmsis_gcc.h **** {
 681:Generated_Source\PSoC6\pdl\cmsis/include/cmsis_gcc.h **** #if (!(defined (__ARM_ARCH_8M_MAIN__ ) && (__ARM_ARCH_8M_MAIN__ == 1)) && \
 682:Generated_Source\PSoC6\pdl\cmsis/include/cmsis_gcc.h ****     (!defined (__ARM_FEATURE_CMSE) || (__ARM_FEATURE_CMSE < 3)))
 683:Generated_Source\PSoC6\pdl\cmsis/include/cmsis_gcc.h ****   // without main extensions, the non-secure MSPLIM is RAZ/WI
 684:Generated_Source\PSoC6\pdl\cmsis/include/cmsis_gcc.h ****   return 0U;
 685:Generated_Source\PSoC6\pdl\cmsis/include/cmsis_gcc.h **** #else
 686:Generated_Source\PSoC6\pdl\cmsis/include/cmsis_gcc.h ****   register uint32_t result;
 687:Generated_Source\PSoC6\pdl\cmsis/include/cmsis_gcc.h ****   __ASM volatile ("MRS %0, msplim" : "=r" (result) );
 688:Generated_Source\PSoC6\pdl\cmsis/include/cmsis_gcc.h ****   return result;
 689:Generated_Source\PSoC6\pdl\cmsis/include/cmsis_gcc.h **** #endif
 690:Generated_Source\PSoC6\pdl\cmsis/include/cmsis_gcc.h **** }
 691:Generated_Source\PSoC6\pdl\cmsis/include/cmsis_gcc.h **** 
 692:Generated_Source\PSoC6\pdl\cmsis/include/cmsis_gcc.h **** 
 693:Generated_Source\PSoC6\pdl\cmsis/include/cmsis_gcc.h **** #if (defined (__ARM_FEATURE_CMSE  ) && (__ARM_FEATURE_CMSE   == 3))
ARM GAS  C:\Users\yomat\AppData\Local\Temp\cc0omv11.s 			page 57


 694:Generated_Source\PSoC6\pdl\cmsis/include/cmsis_gcc.h **** /**
 695:Generated_Source\PSoC6\pdl\cmsis/include/cmsis_gcc.h ****   \brief   Get Main Stack Pointer Limit (non-secure)
 696:Generated_Source\PSoC6\pdl\cmsis/include/cmsis_gcc.h ****   Devices without ARMv8-M Main Extensions (i.e. Cortex-M23) lack the non-secure
 697:Generated_Source\PSoC6\pdl\cmsis/include/cmsis_gcc.h ****   Stack Pointer Limit register hence zero is returned always.
 698:Generated_Source\PSoC6\pdl\cmsis/include/cmsis_gcc.h **** 
 699:Generated_Source\PSoC6\pdl\cmsis/include/cmsis_gcc.h ****   \details Returns the current value of the non-secure Main Stack Pointer Limit(MSPLIM) when in sec
 700:Generated_Source\PSoC6\pdl\cmsis/include/cmsis_gcc.h ****   \return               MSPLIM Register value
 701:Generated_Source\PSoC6\pdl\cmsis/include/cmsis_gcc.h ****  */
 702:Generated_Source\PSoC6\pdl\cmsis/include/cmsis_gcc.h **** __STATIC_FORCEINLINE uint32_t __TZ_get_MSPLIM_NS(void)
 703:Generated_Source\PSoC6\pdl\cmsis/include/cmsis_gcc.h **** {
 704:Generated_Source\PSoC6\pdl\cmsis/include/cmsis_gcc.h **** #if (!(defined (__ARM_ARCH_8M_MAIN__ ) && (__ARM_ARCH_8M_MAIN__ == 1)))
 705:Generated_Source\PSoC6\pdl\cmsis/include/cmsis_gcc.h ****   // without main extensions, the non-secure MSPLIM is RAZ/WI
 706:Generated_Source\PSoC6\pdl\cmsis/include/cmsis_gcc.h ****   return 0U;
 707:Generated_Source\PSoC6\pdl\cmsis/include/cmsis_gcc.h **** #else
 708:Generated_Source\PSoC6\pdl\cmsis/include/cmsis_gcc.h ****   register uint32_t result;
 709:Generated_Source\PSoC6\pdl\cmsis/include/cmsis_gcc.h ****   __ASM volatile ("MRS %0, msplim_ns" : "=r" (result) );
 710:Generated_Source\PSoC6\pdl\cmsis/include/cmsis_gcc.h ****   return result;
 711:Generated_Source\PSoC6\pdl\cmsis/include/cmsis_gcc.h **** #endif
 712:Generated_Source\PSoC6\pdl\cmsis/include/cmsis_gcc.h **** }
 713:Generated_Source\PSoC6\pdl\cmsis/include/cmsis_gcc.h **** #endif
 714:Generated_Source\PSoC6\pdl\cmsis/include/cmsis_gcc.h **** 
 715:Generated_Source\PSoC6\pdl\cmsis/include/cmsis_gcc.h **** 
 716:Generated_Source\PSoC6\pdl\cmsis/include/cmsis_gcc.h **** /**
 717:Generated_Source\PSoC6\pdl\cmsis/include/cmsis_gcc.h ****   \brief   Set Main Stack Pointer Limit
 718:Generated_Source\PSoC6\pdl\cmsis/include/cmsis_gcc.h ****   Devices without ARMv8-M Main Extensions (i.e. Cortex-M23) lack the non-secure
 719:Generated_Source\PSoC6\pdl\cmsis/include/cmsis_gcc.h ****   Stack Pointer Limit register hence the write is silently ignored in non-secure
 720:Generated_Source\PSoC6\pdl\cmsis/include/cmsis_gcc.h ****   mode.
 721:Generated_Source\PSoC6\pdl\cmsis/include/cmsis_gcc.h **** 
 722:Generated_Source\PSoC6\pdl\cmsis/include/cmsis_gcc.h ****   \details Assigns the given value to the Main Stack Pointer Limit (MSPLIM).
 723:Generated_Source\PSoC6\pdl\cmsis/include/cmsis_gcc.h ****   \param [in]    MainStackPtrLimit  Main Stack Pointer Limit value to set
 724:Generated_Source\PSoC6\pdl\cmsis/include/cmsis_gcc.h ****  */
 725:Generated_Source\PSoC6\pdl\cmsis/include/cmsis_gcc.h **** __STATIC_FORCEINLINE void __set_MSPLIM(uint32_t MainStackPtrLimit)
 726:Generated_Source\PSoC6\pdl\cmsis/include/cmsis_gcc.h **** {
 727:Generated_Source\PSoC6\pdl\cmsis/include/cmsis_gcc.h **** #if (!(defined (__ARM_ARCH_8M_MAIN__ ) && (__ARM_ARCH_8M_MAIN__ == 1)) && \
 728:Generated_Source\PSoC6\pdl\cmsis/include/cmsis_gcc.h ****     (!defined (__ARM_FEATURE_CMSE) || (__ARM_FEATURE_CMSE < 3)))
 729:Generated_Source\PSoC6\pdl\cmsis/include/cmsis_gcc.h ****   // without main extensions, the non-secure MSPLIM is RAZ/WI
 730:Generated_Source\PSoC6\pdl\cmsis/include/cmsis_gcc.h ****   (void)MainStackPtrLimit;
 731:Generated_Source\PSoC6\pdl\cmsis/include/cmsis_gcc.h **** #else
 732:Generated_Source\PSoC6\pdl\cmsis/include/cmsis_gcc.h ****   __ASM volatile ("MSR msplim, %0" : : "r" (MainStackPtrLimit));
 733:Generated_Source\PSoC6\pdl\cmsis/include/cmsis_gcc.h **** #endif
 734:Generated_Source\PSoC6\pdl\cmsis/include/cmsis_gcc.h **** }
 735:Generated_Source\PSoC6\pdl\cmsis/include/cmsis_gcc.h **** 
 736:Generated_Source\PSoC6\pdl\cmsis/include/cmsis_gcc.h **** 
 737:Generated_Source\PSoC6\pdl\cmsis/include/cmsis_gcc.h **** #if (defined (__ARM_FEATURE_CMSE  ) && (__ARM_FEATURE_CMSE   == 3))
 738:Generated_Source\PSoC6\pdl\cmsis/include/cmsis_gcc.h **** /**
 739:Generated_Source\PSoC6\pdl\cmsis/include/cmsis_gcc.h ****   \brief   Set Main Stack Pointer Limit (non-secure)
 740:Generated_Source\PSoC6\pdl\cmsis/include/cmsis_gcc.h ****   Devices without ARMv8-M Main Extensions (i.e. Cortex-M23) lack the non-secure
 741:Generated_Source\PSoC6\pdl\cmsis/include/cmsis_gcc.h ****   Stack Pointer Limit register hence the write is silently ignored.
 742:Generated_Source\PSoC6\pdl\cmsis/include/cmsis_gcc.h **** 
 743:Generated_Source\PSoC6\pdl\cmsis/include/cmsis_gcc.h ****   \details Assigns the given value to the non-secure Main Stack Pointer Limit (MSPLIM) when in secu
 744:Generated_Source\PSoC6\pdl\cmsis/include/cmsis_gcc.h ****   \param [in]    MainStackPtrLimit  Main Stack Pointer value to set
 745:Generated_Source\PSoC6\pdl\cmsis/include/cmsis_gcc.h ****  */
 746:Generated_Source\PSoC6\pdl\cmsis/include/cmsis_gcc.h **** __STATIC_FORCEINLINE void __TZ_set_MSPLIM_NS(uint32_t MainStackPtrLimit)
 747:Generated_Source\PSoC6\pdl\cmsis/include/cmsis_gcc.h **** {
 748:Generated_Source\PSoC6\pdl\cmsis/include/cmsis_gcc.h **** #if (!(defined (__ARM_ARCH_8M_MAIN__ ) && (__ARM_ARCH_8M_MAIN__ == 1)))
 749:Generated_Source\PSoC6\pdl\cmsis/include/cmsis_gcc.h ****   // without main extensions, the non-secure MSPLIM is RAZ/WI
 750:Generated_Source\PSoC6\pdl\cmsis/include/cmsis_gcc.h ****   (void)MainStackPtrLimit;
ARM GAS  C:\Users\yomat\AppData\Local\Temp\cc0omv11.s 			page 58


 751:Generated_Source\PSoC6\pdl\cmsis/include/cmsis_gcc.h **** #else
 752:Generated_Source\PSoC6\pdl\cmsis/include/cmsis_gcc.h ****   __ASM volatile ("MSR msplim_ns, %0" : : "r" (MainStackPtrLimit));
 753:Generated_Source\PSoC6\pdl\cmsis/include/cmsis_gcc.h **** #endif
 754:Generated_Source\PSoC6\pdl\cmsis/include/cmsis_gcc.h **** }
 755:Generated_Source\PSoC6\pdl\cmsis/include/cmsis_gcc.h **** #endif
 756:Generated_Source\PSoC6\pdl\cmsis/include/cmsis_gcc.h **** 
 757:Generated_Source\PSoC6\pdl\cmsis/include/cmsis_gcc.h **** #endif /* ((defined (__ARM_ARCH_8M_MAIN__ ) && (__ARM_ARCH_8M_MAIN__ == 1)) || \
 758:Generated_Source\PSoC6\pdl\cmsis/include/cmsis_gcc.h ****            (defined (__ARM_ARCH_8M_BASE__ ) && (__ARM_ARCH_8M_BASE__ == 1))    ) */
 759:Generated_Source\PSoC6\pdl\cmsis/include/cmsis_gcc.h **** 
 760:Generated_Source\PSoC6\pdl\cmsis/include/cmsis_gcc.h **** 
 761:Generated_Source\PSoC6\pdl\cmsis/include/cmsis_gcc.h **** #if ((defined (__ARM_ARCH_7EM__     ) && (__ARM_ARCH_7EM__     == 1)) || \
 762:Generated_Source\PSoC6\pdl\cmsis/include/cmsis_gcc.h ****      (defined (__ARM_ARCH_8M_MAIN__ ) && (__ARM_ARCH_8M_MAIN__ == 1))    )
 763:Generated_Source\PSoC6\pdl\cmsis/include/cmsis_gcc.h **** 
 764:Generated_Source\PSoC6\pdl\cmsis/include/cmsis_gcc.h **** /**
 765:Generated_Source\PSoC6\pdl\cmsis/include/cmsis_gcc.h ****   \brief   Get FPSCR
 766:Generated_Source\PSoC6\pdl\cmsis/include/cmsis_gcc.h ****   \details Returns the current value of the Floating Point Status/Control register.
 767:Generated_Source\PSoC6\pdl\cmsis/include/cmsis_gcc.h ****   \return               Floating Point Status/Control register value
 768:Generated_Source\PSoC6\pdl\cmsis/include/cmsis_gcc.h ****  */
 769:Generated_Source\PSoC6\pdl\cmsis/include/cmsis_gcc.h **** __STATIC_FORCEINLINE uint32_t __get_FPSCR(void)
 770:Generated_Source\PSoC6\pdl\cmsis/include/cmsis_gcc.h **** {
 771:Generated_Source\PSoC6\pdl\cmsis/include/cmsis_gcc.h **** #if ((defined (__FPU_PRESENT) && (__FPU_PRESENT == 1U)) && \
 772:Generated_Source\PSoC6\pdl\cmsis/include/cmsis_gcc.h ****      (defined (__FPU_USED   ) && (__FPU_USED    == 1U))     )
 773:Generated_Source\PSoC6\pdl\cmsis/include/cmsis_gcc.h **** #if __has_builtin(__builtin_arm_get_fpscr) || (__GNUC__ > 7) || (__GNUC__ == 7 && __GNUC_MINOR__ >=
 774:Generated_Source\PSoC6\pdl\cmsis/include/cmsis_gcc.h ****   /* see https://gcc.gnu.org/ml/gcc-patches/2017-04/msg00443.html */
 775:Generated_Source\PSoC6\pdl\cmsis/include/cmsis_gcc.h ****   return __builtin_arm_get_fpscr();
 776:Generated_Source\PSoC6\pdl\cmsis/include/cmsis_gcc.h **** #else
 777:Generated_Source\PSoC6\pdl\cmsis/include/cmsis_gcc.h ****   uint32_t result;
 778:Generated_Source\PSoC6\pdl\cmsis/include/cmsis_gcc.h **** 
 779:Generated_Source\PSoC6\pdl\cmsis/include/cmsis_gcc.h ****   __ASM volatile ("VMRS %0, fpscr" : "=r" (result) );
 780:Generated_Source\PSoC6\pdl\cmsis/include/cmsis_gcc.h ****   return(result);
 781:Generated_Source\PSoC6\pdl\cmsis/include/cmsis_gcc.h **** #endif
 782:Generated_Source\PSoC6\pdl\cmsis/include/cmsis_gcc.h **** #else
 783:Generated_Source\PSoC6\pdl\cmsis/include/cmsis_gcc.h ****   return(0U);
 784:Generated_Source\PSoC6\pdl\cmsis/include/cmsis_gcc.h **** #endif
 785:Generated_Source\PSoC6\pdl\cmsis/include/cmsis_gcc.h **** }
 786:Generated_Source\PSoC6\pdl\cmsis/include/cmsis_gcc.h **** 
 787:Generated_Source\PSoC6\pdl\cmsis/include/cmsis_gcc.h **** 
 788:Generated_Source\PSoC6\pdl\cmsis/include/cmsis_gcc.h **** /**
 789:Generated_Source\PSoC6\pdl\cmsis/include/cmsis_gcc.h ****   \brief   Set FPSCR
 790:Generated_Source\PSoC6\pdl\cmsis/include/cmsis_gcc.h ****   \details Assigns the given value to the Floating Point Status/Control register.
 791:Generated_Source\PSoC6\pdl\cmsis/include/cmsis_gcc.h ****   \param [in]    fpscr  Floating Point Status/Control value to set
 792:Generated_Source\PSoC6\pdl\cmsis/include/cmsis_gcc.h ****  */
 793:Generated_Source\PSoC6\pdl\cmsis/include/cmsis_gcc.h **** __STATIC_FORCEINLINE void __set_FPSCR(uint32_t fpscr)
 794:Generated_Source\PSoC6\pdl\cmsis/include/cmsis_gcc.h **** {
 795:Generated_Source\PSoC6\pdl\cmsis/include/cmsis_gcc.h **** #if ((defined (__FPU_PRESENT) && (__FPU_PRESENT == 1U)) && \
 796:Generated_Source\PSoC6\pdl\cmsis/include/cmsis_gcc.h ****      (defined (__FPU_USED   ) && (__FPU_USED    == 1U))     )
 797:Generated_Source\PSoC6\pdl\cmsis/include/cmsis_gcc.h **** #if __has_builtin(__builtin_arm_set_fpscr) || (__GNUC__ > 7) || (__GNUC__ == 7 && __GNUC_MINOR__ >=
 798:Generated_Source\PSoC6\pdl\cmsis/include/cmsis_gcc.h ****   /* see https://gcc.gnu.org/ml/gcc-patches/2017-04/msg00443.html */
 799:Generated_Source\PSoC6\pdl\cmsis/include/cmsis_gcc.h ****   __builtin_arm_set_fpscr(fpscr);
 800:Generated_Source\PSoC6\pdl\cmsis/include/cmsis_gcc.h **** #else
 801:Generated_Source\PSoC6\pdl\cmsis/include/cmsis_gcc.h ****   __ASM volatile ("VMSR fpscr, %0" : : "r" (fpscr) : "vfpcc", "memory");
 802:Generated_Source\PSoC6\pdl\cmsis/include/cmsis_gcc.h **** #endif
 803:Generated_Source\PSoC6\pdl\cmsis/include/cmsis_gcc.h **** #else
 804:Generated_Source\PSoC6\pdl\cmsis/include/cmsis_gcc.h ****   (void)fpscr;
 805:Generated_Source\PSoC6\pdl\cmsis/include/cmsis_gcc.h **** #endif
 806:Generated_Source\PSoC6\pdl\cmsis/include/cmsis_gcc.h **** }
 807:Generated_Source\PSoC6\pdl\cmsis/include/cmsis_gcc.h **** 
ARM GAS  C:\Users\yomat\AppData\Local\Temp\cc0omv11.s 			page 59


 808:Generated_Source\PSoC6\pdl\cmsis/include/cmsis_gcc.h **** #endif /* ((defined (__ARM_ARCH_7EM__     ) && (__ARM_ARCH_7EM__     == 1)) || \
 809:Generated_Source\PSoC6\pdl\cmsis/include/cmsis_gcc.h ****            (defined (__ARM_ARCH_8M_MAIN__ ) && (__ARM_ARCH_8M_MAIN__ == 1))    ) */
 810:Generated_Source\PSoC6\pdl\cmsis/include/cmsis_gcc.h **** 
 811:Generated_Source\PSoC6\pdl\cmsis/include/cmsis_gcc.h **** 
 812:Generated_Source\PSoC6\pdl\cmsis/include/cmsis_gcc.h **** 
 813:Generated_Source\PSoC6\pdl\cmsis/include/cmsis_gcc.h **** /*@} end of CMSIS_Core_RegAccFunctions */
 814:Generated_Source\PSoC6\pdl\cmsis/include/cmsis_gcc.h **** 
 815:Generated_Source\PSoC6\pdl\cmsis/include/cmsis_gcc.h **** 
 816:Generated_Source\PSoC6\pdl\cmsis/include/cmsis_gcc.h **** /* ##########################  Core Instruction Access  ######################### */
 817:Generated_Source\PSoC6\pdl\cmsis/include/cmsis_gcc.h **** /** \defgroup CMSIS_Core_InstructionInterface CMSIS Core Instruction Interface
 818:Generated_Source\PSoC6\pdl\cmsis/include/cmsis_gcc.h ****   Access to dedicated instructions
 819:Generated_Source\PSoC6\pdl\cmsis/include/cmsis_gcc.h ****   @{
 820:Generated_Source\PSoC6\pdl\cmsis/include/cmsis_gcc.h **** */
 821:Generated_Source\PSoC6\pdl\cmsis/include/cmsis_gcc.h **** 
 822:Generated_Source\PSoC6\pdl\cmsis/include/cmsis_gcc.h **** /* Define macros for porting to both thumb1 and thumb2.
 823:Generated_Source\PSoC6\pdl\cmsis/include/cmsis_gcc.h ****  * For thumb1, use low register (r0-r7), specified by constraint "l"
 824:Generated_Source\PSoC6\pdl\cmsis/include/cmsis_gcc.h ****  * Otherwise, use general registers, specified by constraint "r" */
 825:Generated_Source\PSoC6\pdl\cmsis/include/cmsis_gcc.h **** #if defined (__thumb__) && !defined (__thumb2__)
 826:Generated_Source\PSoC6\pdl\cmsis/include/cmsis_gcc.h **** #define __CMSIS_GCC_OUT_REG(r) "=l" (r)
 827:Generated_Source\PSoC6\pdl\cmsis/include/cmsis_gcc.h **** #define __CMSIS_GCC_RW_REG(r) "+l" (r)
 828:Generated_Source\PSoC6\pdl\cmsis/include/cmsis_gcc.h **** #define __CMSIS_GCC_USE_REG(r) "l" (r)
 829:Generated_Source\PSoC6\pdl\cmsis/include/cmsis_gcc.h **** #else
 830:Generated_Source\PSoC6\pdl\cmsis/include/cmsis_gcc.h **** #define __CMSIS_GCC_OUT_REG(r) "=r" (r)
 831:Generated_Source\PSoC6\pdl\cmsis/include/cmsis_gcc.h **** #define __CMSIS_GCC_RW_REG(r) "+r" (r)
 832:Generated_Source\PSoC6\pdl\cmsis/include/cmsis_gcc.h **** #define __CMSIS_GCC_USE_REG(r) "r" (r)
 833:Generated_Source\PSoC6\pdl\cmsis/include/cmsis_gcc.h **** #endif
 834:Generated_Source\PSoC6\pdl\cmsis/include/cmsis_gcc.h **** 
 835:Generated_Source\PSoC6\pdl\cmsis/include/cmsis_gcc.h **** /**
 836:Generated_Source\PSoC6\pdl\cmsis/include/cmsis_gcc.h ****   \brief   No Operation
 837:Generated_Source\PSoC6\pdl\cmsis/include/cmsis_gcc.h ****   \details No Operation does nothing. This instruction can be used for code alignment purposes.
 838:Generated_Source\PSoC6\pdl\cmsis/include/cmsis_gcc.h ****  */
 839:Generated_Source\PSoC6\pdl\cmsis/include/cmsis_gcc.h **** #define __NOP()                             __ASM volatile ("nop")
 840:Generated_Source\PSoC6\pdl\cmsis/include/cmsis_gcc.h **** 
 841:Generated_Source\PSoC6\pdl\cmsis/include/cmsis_gcc.h **** /**
 842:Generated_Source\PSoC6\pdl\cmsis/include/cmsis_gcc.h ****   \brief   Wait For Interrupt
 843:Generated_Source\PSoC6\pdl\cmsis/include/cmsis_gcc.h ****   \details Wait For Interrupt is a hint instruction that suspends execution until one of a number o
 844:Generated_Source\PSoC6\pdl\cmsis/include/cmsis_gcc.h ****  */
 845:Generated_Source\PSoC6\pdl\cmsis/include/cmsis_gcc.h **** #define __WFI()                             __ASM volatile ("wfi")
 846:Generated_Source\PSoC6\pdl\cmsis/include/cmsis_gcc.h **** 
 847:Generated_Source\PSoC6\pdl\cmsis/include/cmsis_gcc.h **** 
 848:Generated_Source\PSoC6\pdl\cmsis/include/cmsis_gcc.h **** /**
 849:Generated_Source\PSoC6\pdl\cmsis/include/cmsis_gcc.h ****   \brief   Wait For Event
 850:Generated_Source\PSoC6\pdl\cmsis/include/cmsis_gcc.h ****   \details Wait For Event is a hint instruction that permits the processor to enter
 851:Generated_Source\PSoC6\pdl\cmsis/include/cmsis_gcc.h ****            a low-power state until one of a number of events occurs.
 852:Generated_Source\PSoC6\pdl\cmsis/include/cmsis_gcc.h ****  */
 853:Generated_Source\PSoC6\pdl\cmsis/include/cmsis_gcc.h **** #define __WFE()                             __ASM volatile ("wfe")
 854:Generated_Source\PSoC6\pdl\cmsis/include/cmsis_gcc.h **** 
 855:Generated_Source\PSoC6\pdl\cmsis/include/cmsis_gcc.h **** 
 856:Generated_Source\PSoC6\pdl\cmsis/include/cmsis_gcc.h **** /**
 857:Generated_Source\PSoC6\pdl\cmsis/include/cmsis_gcc.h ****   \brief   Send Event
 858:Generated_Source\PSoC6\pdl\cmsis/include/cmsis_gcc.h ****   \details Send Event is a hint instruction. It causes an event to be signaled to the CPU.
 859:Generated_Source\PSoC6\pdl\cmsis/include/cmsis_gcc.h ****  */
 860:Generated_Source\PSoC6\pdl\cmsis/include/cmsis_gcc.h **** #define __SEV()                             __ASM volatile ("sev")
 861:Generated_Source\PSoC6\pdl\cmsis/include/cmsis_gcc.h **** 
 862:Generated_Source\PSoC6\pdl\cmsis/include/cmsis_gcc.h **** 
 863:Generated_Source\PSoC6\pdl\cmsis/include/cmsis_gcc.h **** /**
 864:Generated_Source\PSoC6\pdl\cmsis/include/cmsis_gcc.h ****   \brief   Instruction Synchronization Barrier
ARM GAS  C:\Users\yomat\AppData\Local\Temp\cc0omv11.s 			page 60


 865:Generated_Source\PSoC6\pdl\cmsis/include/cmsis_gcc.h ****   \details Instruction Synchronization Barrier flushes the pipeline in the processor,
 866:Generated_Source\PSoC6\pdl\cmsis/include/cmsis_gcc.h ****            so that all instructions following the ISB are fetched from cache or memory,
 867:Generated_Source\PSoC6\pdl\cmsis/include/cmsis_gcc.h ****            after the instruction has been completed.
 868:Generated_Source\PSoC6\pdl\cmsis/include/cmsis_gcc.h ****  */
 869:Generated_Source\PSoC6\pdl\cmsis/include/cmsis_gcc.h **** __STATIC_FORCEINLINE void __ISB(void)
 870:Generated_Source\PSoC6\pdl\cmsis/include/cmsis_gcc.h **** {
 871:Generated_Source\PSoC6\pdl\cmsis/include/cmsis_gcc.h ****   __ASM volatile ("isb 0xF":::"memory");
 872:Generated_Source\PSoC6\pdl\cmsis/include/cmsis_gcc.h **** }
 873:Generated_Source\PSoC6\pdl\cmsis/include/cmsis_gcc.h **** 
 874:Generated_Source\PSoC6\pdl\cmsis/include/cmsis_gcc.h **** 
 875:Generated_Source\PSoC6\pdl\cmsis/include/cmsis_gcc.h **** /**
 876:Generated_Source\PSoC6\pdl\cmsis/include/cmsis_gcc.h ****   \brief   Data Synchronization Barrier
 877:Generated_Source\PSoC6\pdl\cmsis/include/cmsis_gcc.h ****   \details Acts as a special kind of Data Memory Barrier.
 878:Generated_Source\PSoC6\pdl\cmsis/include/cmsis_gcc.h ****            It completes when all explicit memory accesses before this instruction complete.
 879:Generated_Source\PSoC6\pdl\cmsis/include/cmsis_gcc.h ****  */
 880:Generated_Source\PSoC6\pdl\cmsis/include/cmsis_gcc.h **** __STATIC_FORCEINLINE void __DSB(void)
 881:Generated_Source\PSoC6\pdl\cmsis/include/cmsis_gcc.h **** {
 882:Generated_Source\PSoC6\pdl\cmsis/include/cmsis_gcc.h ****   __ASM volatile ("dsb 0xF":::"memory");
 527              		.loc 3 882 0
 528              		.syntax unified
 529              	@ 882 "Generated_Source\PSoC6\pdl\cmsis/include/cmsis_gcc.h" 1
 530 0032 BFF34F8F 		dsb 0xF
 531              	@ 0 "" 2
 532              		.thumb
 533              		.syntax unified
 534              	.LBE67:
 535              	.LBE66:
 536              	.LBB68:
 537              	.LBB69:
 871:Generated_Source\PSoC6\pdl\cmsis/include/cmsis_gcc.h **** }
 538              		.loc 3 871 0
 539              		.syntax unified
 540              	@ 871 "Generated_Source\PSoC6\pdl\cmsis/include/cmsis_gcc.h" 1
 541 0036 BFF36F8F 		isb 0xF
 542              	@ 0 "" 2
 543              		.thumb
 544              		.syntax unified
 545              	.L34:
 546              	.LVL47:
 547              	.LBE69:
 548              	.LBE68:
 549              	.LBE65:
 550              	.LBE64:
 115:led_task.c    ****         NVIC_EnableIRQ(ISR_AFE0_cfg.intrSrc);   // AFE0 許可
 551              		.loc 1 115 0
 552 003a 0323     		movs	r3, #3
 553 003c 6A46     		mov	r2, sp
 554 003e 2321     		movs	r1, #35
 555 0040 4148     		ldr	r0, .L43+8
 556              	.LVL48:
 557 0042 FFF7FEFF 		bl	afe4404Write
 558              	.LVL49:
 116:led_task.c    ****         afe4404Write(I2C_1_HW, AFE440X_CONTROL2, (uint8_t*)&pwrOn, REG_DATA_LEN);
 559              		.loc 1 116 0
 560 0046 414B     		ldr	r3, .L43+12
 561 0048 B3F90030 		ldrsh	r3, [r3]
 562              	.LVL50:
ARM GAS  C:\Users\yomat\AppData\Local\Temp\cc0omv11.s 			page 61


 563              	.LBB70:
 564              	.LBB71:
1679:Generated_Source\PSoC6\pdl\cmsis/include/core_cm4.h ****   {
 565              		.loc 2 1679 0
 566 004c 002B     		cmp	r3, #0
 567 004e 08DB     		blt	.L35
1681:Generated_Source\PSoC6\pdl\cmsis/include/core_cm4.h ****   }
 568              		.loc 2 1681 0
 569 0050 5909     		lsrs	r1, r3, #5
 570 0052 03F01F03 		and	r3, r3, #31
 571              	.LVL51:
 572 0056 0122     		movs	r2, #1
 573 0058 02FA03F3 		lsl	r3, r2, r3
 574 005c 394A     		ldr	r2, .L43+4
 575 005e 42F82130 		str	r3, [r2, r1, lsl #2]
 576              	.L35:
 577              	.LVL52:
 578              	.LBE71:
 579              	.LBE70:
 117:led_task.c    ****     }
 580              		.loc 1 117 0
 581 0062 0323     		movs	r3, #3
 582 0064 01AA     		add	r2, sp, #4
 583 0066 2321     		movs	r1, #35
 584 0068 3948     		ldr	r0, .L43+16
 585 006a FFF7FEFF 		bl	afe4404Write
 586              	.LVL53:
 587 006e 61E0     		b	.L36
 588              	.LVL54:
 589              	.L33:
 120:led_task.c    ****         NVIC_DisableIRQ(ISR_AFE0_cfg.intrSrc);  // AFE0 停止
 590              		.loc 1 120 0
 591 0070 0128     		cmp	r0, #1
 592 0072 2DD1     		bne	.L37
 121:led_task.c    ****         afe4404Write(I2C_1_HW, AFE440X_CONTROL2, (uint8_t*)&pwrDwn, REG_DATA_LEN);
 593              		.loc 1 121 0
 594 0074 354B     		ldr	r3, .L43+12
 595 0076 B3F90030 		ldrsh	r3, [r3]
 596              	.LVL55:
 597              	.LBB72:
 598              	.LBB73:
1715:Generated_Source\PSoC6\pdl\cmsis/include/core_cm4.h ****   {
 599              		.loc 2 1715 0
 600 007a 002B     		cmp	r3, #0
 601 007c 0DDB     		blt	.L38
 602              		.loc 2 1717 0
 603 007e 5A09     		lsrs	r2, r3, #5
 604 0080 03F01F03 		and	r3, r3, #31
 605              	.LVL56:
 606 0084 0121     		movs	r1, #1
 607 0086 01FA03F3 		lsl	r3, r1, r3
 608 008a 2032     		adds	r2, r2, #32
 609 008c 2D49     		ldr	r1, .L43+4
 610 008e 41F82230 		str	r3, [r1, r2, lsl #2]
 611              	.LBB74:
 612              	.LBB75:
 613              		.loc 3 882 0
ARM GAS  C:\Users\yomat\AppData\Local\Temp\cc0omv11.s 			page 62


 614              		.syntax unified
 615              	@ 882 "Generated_Source\PSoC6\pdl\cmsis/include/cmsis_gcc.h" 1
 616 0092 BFF34F8F 		dsb 0xF
 617              	@ 0 "" 2
 618              		.thumb
 619              		.syntax unified
 620              	.LBE75:
 621              	.LBE74:
 622              	.LBB76:
 623              	.LBB77:
 871:Generated_Source\PSoC6\pdl\cmsis/include/cmsis_gcc.h **** }
 624              		.loc 3 871 0
 625              		.syntax unified
 626              	@ 871 "Generated_Source\PSoC6\pdl\cmsis/include/cmsis_gcc.h" 1
 627 0096 BFF36F8F 		isb 0xF
 628              	@ 0 "" 2
 629              		.thumb
 630              		.syntax unified
 631              	.L38:
 632              	.LVL57:
 633              	.LBE77:
 634              	.LBE76:
 635              	.LBE73:
 636              	.LBE72:
 122:led_task.c    ****         NVIC_EnableIRQ(ISR_AFE1_cfg.intrSrc);   // AFE1 許可
 637              		.loc 1 122 0
 638 009a 0323     		movs	r3, #3
 639 009c 6A46     		mov	r2, sp
 640 009e 2321     		movs	r1, #35
 641 00a0 2B48     		ldr	r0, .L43+16
 642              	.LVL58:
 643 00a2 FFF7FEFF 		bl	afe4404Write
 644              	.LVL59:
 123:led_task.c    ****         afe4404Write(I2C_2_HW, AFE440X_CONTROL2, (uint8_t*)&pwrOn, REG_DATA_LEN);
 645              		.loc 1 123 0
 646 00a6 264B     		ldr	r3, .L43
 647 00a8 B3F90030 		ldrsh	r3, [r3]
 648              	.LVL60:
 649              	.LBB78:
 650              	.LBB79:
1679:Generated_Source\PSoC6\pdl\cmsis/include/core_cm4.h ****   {
 651              		.loc 2 1679 0
 652 00ac 002B     		cmp	r3, #0
 653 00ae 08DB     		blt	.L39
1681:Generated_Source\PSoC6\pdl\cmsis/include/core_cm4.h ****   }
 654              		.loc 2 1681 0
 655 00b0 5909     		lsrs	r1, r3, #5
 656 00b2 03F01F03 		and	r3, r3, #31
 657              	.LVL61:
 658 00b6 0122     		movs	r2, #1
 659 00b8 02FA03F3 		lsl	r3, r2, r3
 660 00bc 214A     		ldr	r2, .L43+4
 661 00be 42F82130 		str	r3, [r2, r1, lsl #2]
 662              	.L39:
 663              	.LVL62:
 664              	.LBE79:
 665              	.LBE78:
ARM GAS  C:\Users\yomat\AppData\Local\Temp\cc0omv11.s 			page 63


 124:led_task.c    ****     }
 666              		.loc 1 124 0
 667 00c2 0323     		movs	r3, #3
 668 00c4 01AA     		add	r2, sp, #4
 669 00c6 2321     		movs	r1, #35
 670 00c8 1F48     		ldr	r0, .L43+8
 671 00ca FFF7FEFF 		bl	afe4404Write
 672              	.LVL63:
 673 00ce 31E0     		b	.L36
 674              	.LVL64:
 675              	.L37:
 128:led_task.c    ****         afe4404Write(I2C_1_HW, AFE440X_CONTROL2, (uint8_t*)&pwrDwn, REG_DATA_LEN);
 676              		.loc 1 128 0
 677 00d0 1E4B     		ldr	r3, .L43+12
 678 00d2 B3F90030 		ldrsh	r3, [r3]
 679              	.LVL65:
 680              	.LBB80:
 681              	.LBB81:
1715:Generated_Source\PSoC6\pdl\cmsis/include/core_cm4.h ****   {
 682              		.loc 2 1715 0
 683 00d6 002B     		cmp	r3, #0
 684 00d8 0DDB     		blt	.L40
 685              		.loc 2 1717 0
 686 00da 5A09     		lsrs	r2, r3, #5
 687 00dc 03F01F03 		and	r3, r3, #31
 688              	.LVL66:
 689 00e0 0121     		movs	r1, #1
 690 00e2 01FA03F3 		lsl	r3, r1, r3
 691 00e6 2032     		adds	r2, r2, #32
 692 00e8 1649     		ldr	r1, .L43+4
 693 00ea 41F82230 		str	r3, [r1, r2, lsl #2]
 694              	.LBB82:
 695              	.LBB83:
 696              		.loc 3 882 0
 697              		.syntax unified
 698              	@ 882 "Generated_Source\PSoC6\pdl\cmsis/include/cmsis_gcc.h" 1
 699 00ee BFF34F8F 		dsb 0xF
 700              	@ 0 "" 2
 701              		.thumb
 702              		.syntax unified
 703              	.LBE83:
 704              	.LBE82:
 705              	.LBB84:
 706              	.LBB85:
 871:Generated_Source\PSoC6\pdl\cmsis/include/cmsis_gcc.h **** }
 707              		.loc 3 871 0
 708              		.syntax unified
 709              	@ 871 "Generated_Source\PSoC6\pdl\cmsis/include/cmsis_gcc.h" 1
 710 00f2 BFF36F8F 		isb 0xF
 711              	@ 0 "" 2
 712              		.thumb
 713              		.syntax unified
 714              	.L40:
 715              	.LVL67:
 716              	.LBE85:
 717              	.LBE84:
 718              	.LBE81:
ARM GAS  C:\Users\yomat\AppData\Local\Temp\cc0omv11.s 			page 64


 719              	.LBE80:
 129:led_task.c    ****         NVIC_DisableIRQ(ISR_AFE1_cfg.intrSrc);  // AFE1 停止
 720              		.loc 1 129 0
 721 00f6 0323     		movs	r3, #3
 722 00f8 6A46     		mov	r2, sp
 723 00fa 2321     		movs	r1, #35
 724 00fc 1448     		ldr	r0, .L43+16
 725              	.LVL68:
 726 00fe FFF7FEFF 		bl	afe4404Write
 727              	.LVL69:
 130:led_task.c    ****         afe4404Write(I2C_2_HW, AFE440X_CONTROL2, (uint8_t*)&pwrDwn, REG_DATA_LEN);
 728              		.loc 1 130 0
 729 0102 0F4B     		ldr	r3, .L43
 730 0104 B3F90030 		ldrsh	r3, [r3]
 731              	.LVL70:
 732              	.LBB86:
 733              	.LBB87:
1715:Generated_Source\PSoC6\pdl\cmsis/include/core_cm4.h ****   {
 734              		.loc 2 1715 0
 735 0108 002B     		cmp	r3, #0
 736 010a 0DDB     		blt	.L41
 737              		.loc 2 1717 0
 738 010c 5A09     		lsrs	r2, r3, #5
 739 010e 03F01F03 		and	r3, r3, #31
 740              	.LVL71:
 741 0112 0121     		movs	r1, #1
 742 0114 01FA03F3 		lsl	r3, r1, r3
 743 0118 2032     		adds	r2, r2, #32
 744 011a 0A49     		ldr	r1, .L43+4
 745 011c 41F82230 		str	r3, [r1, r2, lsl #2]
 746              	.LBB88:
 747              	.LBB89:
 748              		.loc 3 882 0
 749              		.syntax unified
 750              	@ 882 "Generated_Source\PSoC6\pdl\cmsis/include/cmsis_gcc.h" 1
 751 0120 BFF34F8F 		dsb 0xF
 752              	@ 0 "" 2
 753              		.thumb
 754              		.syntax unified
 755              	.LBE89:
 756              	.LBE88:
 757              	.LBB90:
 758              	.LBB91:
 871:Generated_Source\PSoC6\pdl\cmsis/include/cmsis_gcc.h **** }
 759              		.loc 3 871 0
 760              		.syntax unified
 761              	@ 871 "Generated_Source\PSoC6\pdl\cmsis/include/cmsis_gcc.h" 1
 762 0124 BFF36F8F 		isb 0xF
 763              	@ 0 "" 2
 764              		.thumb
 765              		.syntax unified
 766              	.L41:
 767              	.LVL72:
 768              	.LBE91:
 769              	.LBE90:
 770              	.LBE87:
 771              	.LBE86:
ARM GAS  C:\Users\yomat\AppData\Local\Temp\cc0omv11.s 			page 65


 131:led_task.c    ****     }
 772              		.loc 1 131 0
 773 0128 0323     		movs	r3, #3
 774 012a 6A46     		mov	r2, sp
 775 012c 2321     		movs	r1, #35
 776 012e 0648     		ldr	r0, .L43+8
 777 0130 FFF7FEFF 		bl	afe4404Write
 778              	.LVL73:
 779              	.L36:
 133:led_task.c    ****     
 780              		.loc 1 133 0
 781 0134 074B     		ldr	r3, .L43+20
 782 0136 83F88041 		strb	r4, [r3, #384]
 135:led_task.c    **** 
 783              		.loc 1 135 0
 784 013a 02B0     		add	sp, sp, #8
 785              		.cfi_def_cfa_offset 8
 786              		@ sp needed
 787 013c 10BD     		pop	{r4, pc}
 788              	.L44:
 789 013e 00BF     		.align	2
 790              	.L43:
 791 0140 00000000 		.word	ISR_AFE1_cfg
 792 0144 00E100E0 		.word	-536813312
 793 0148 00006340 		.word	1080229888
 794 014c 00000000 		.word	ISR_AFE0_cfg
 795 0150 00006240 		.word	1080164352
 796 0154 00000000 		.word	.LANCHOR1
 797              		.cfi_endproc
 798              	.LFE695:
 799              		.size	AFE_act, .-AFE_act
 800              		.section	.text.AFE_clr,"ax",%progbits
 801              		.align	2
 802              		.global	AFE_clr
 803              		.thumb
 804              		.thumb_func
 805              		.type	AFE_clr, %function
 806              	AFE_clr:
 807              	.LFB696:
 139:led_task.c    ****     memset(&afe_calval[afe_id], 0, sizeof(struct CalValue));
 808              		.loc 1 139 0
 809              		.cfi_startproc
 810              		@ args = 0, pretend = 0, frame = 0
 811              		@ frame_needed = 0, uses_anonymous_args = 0
 812              	.LVL74:
 813 0000 10B5     		push	{r4, lr}
 814              		.cfi_def_cfa_offset 8
 815              		.cfi_offset 4, -8
 816              		.cfi_offset 14, -4
 140:led_task.c    ****     afe_calval[afe_id].skip_cnt = SMP_SKIP;
 817              		.loc 1 140 0
 818 0002 064C     		ldr	r4, .L47
 819 0004 04EBC014 		add	r4, r4, r0, lsl #7
 820 0008 8022     		movs	r2, #128
 821 000a 0021     		movs	r1, #0
 822 000c 2046     		mov	r0, r4
 823              	.LVL75:
ARM GAS  C:\Users\yomat\AppData\Local\Temp\cc0omv11.s 			page 66


 824 000e FFF7FEFF 		bl	memset
 825              	.LVL76:
 141:led_task.c    **** }
 826              		.loc 1 141 0
 827 0012 0523     		movs	r3, #5
 828 0014 84F82230 		strb	r3, [r4, #34]
 829 0018 10BD     		pop	{r4, pc}
 830              	.L48:
 831 001a 00BF     		.align	2
 832              	.L47:
 833 001c 00000000 		.word	.LANCHOR1
 834              		.cfi_endproc
 835              	.LFE696:
 836              		.size	AFE_clr, .-AFE_clr
 837              		.section	.text.AFE_init,"ax",%progbits
 838              		.align	2
 839              		.global	AFE_init
 840              		.thumb
 841              		.thumb_func
 842              		.type	AFE_init, %function
 843              	AFE_init:
 844              	.LFB697:
 145:led_task.c    ****     uint32_t data = 0;
 845              		.loc 1 145 0
 846              		.cfi_startproc
 847              		@ args = 0, pretend = 0, frame = 8
 848              		@ frame_needed = 0, uses_anonymous_args = 0
 849              	.LVL77:
 850 0000 D0B5     		push	{r4, r6, r7, lr}
 851              		.cfi_def_cfa_offset 16
 852              		.cfi_offset 4, -16
 853              		.cfi_offset 6, -12
 854              		.cfi_offset 7, -8
 855              		.cfi_offset 14, -4
 856 0002 82B0     		sub	sp, sp, #8
 857              		.cfi_def_cfa_offset 24
 858 0004 0446     		mov	r4, r0
 146:led_task.c    ****     
 859              		.loc 1 146 0
 860 0006 0023     		movs	r3, #0
 861 0008 0193     		str	r3, [sp, #4]
 148:led_task.c    ****     printf("Operation cycle: %3.1f min.\r\n", (double)PWM_CYC_config.period0/60000u);
 862              		.loc 1 148 0
 863 000a 3948     		ldr	r0, .L55+16
 864              	.LVL78:
 865 000c FFF7FEFF 		bl	puts
 866              	.LVL79:
 149:led_task.c    ****     printf("Operating  time: %u sec.\r\n", (unsigned)PWM_TIM_config.period0/1000u);
 867              		.loc 1 149 0
 868 0010 384B     		ldr	r3, .L55+20
 869 0012 5869     		ldr	r0, [r3, #20]
 870 0014 FFF7FEFF 		bl	__aeabi_ui2d
 871              	.LVL80:
 872 0018 31A3     		adr	r3, .L55
 873 001a D3E90023 		ldrd	r2, [r3]
 874 001e FFF7FEFF 		bl	__aeabi_ddiv
 875              	.LVL81:
ARM GAS  C:\Users\yomat\AppData\Local\Temp\cc0omv11.s 			page 67


 876 0022 0246     		mov	r2, r0
 877 0024 0B46     		mov	r3, r1
 878 0026 3448     		ldr	r0, .L55+24
 879 0028 FFF7FEFF 		bl	printf
 880              	.LVL82:
 150:led_task.c    ****     printf("  Selection AFE: %s\r\n", afe_id==AFE0_ID ? "AFE0" : "AFE1");
 881              		.loc 1 150 0
 882 002c 334B     		ldr	r3, .L55+28
 883 002e 5B69     		ldr	r3, [r3, #20]
 884 0030 3349     		ldr	r1, .L55+32
 885 0032 A1FB0331 		umull	r3, r1, r1, r3
 886 0036 8909     		lsrs	r1, r1, #6
 887 0038 3248     		ldr	r0, .L55+36
 888 003a FFF7FEFF 		bl	printf
 889              	.LVL83:
 151:led_task.c    ****     printf("  LED1 TIG gain: %u korm\r\n", tia_reg[TIA2_ID]);
 890              		.loc 1 151 0
 891 003e 0CB9     		cbnz	r4, .L53
 892 0040 3149     		ldr	r1, .L55+40
 893 0042 00E0     		b	.L50
 894              	.L53:
 895 0044 3149     		ldr	r1, .L55+44
 896              	.L50:
 151:led_task.c    ****     printf("  LED1 TIG gain: %u korm\r\n", tia_reg[TIA2_ID]);
 897              		.loc 1 151 0 is_stmt 0 discriminator 4
 898 0046 3248     		ldr	r0, .L55+48
 899 0048 FFF7FEFF 		bl	printf
 900              	.LVL84:
 152:led_task.c    ****     printf("  LED1  current: %3.1f mA\r\n", I_LED2 * CURR_STEP);
 901              		.loc 1 152 0 is_stmt 1 discriminator 4
 902 004c 0A21     		movs	r1, #10
 903 004e 3148     		ldr	r0, .L55+52
 904 0050 FFF7FEFF 		bl	printf
 905              	.LVL85:
 153:led_task.c    ****     printf("  LED2 TIG gain: %u korm\r\n", tia_reg[TIA1_ID]);
 906              		.loc 1 153 0 discriminator 4
 907 0054 24A7     		adr	r7, .L55+8
 908 0056 D7E90067 		ldrd	r6, [r7]
 909 005a 3246     		mov	r2, r6
 910 005c 3B46     		mov	r3, r7
 911 005e 2E48     		ldr	r0, .L55+56
 912 0060 FFF7FEFF 		bl	printf
 913              	.LVL86:
 154:led_task.c    ****     printf("  LED2  current: %3.1f mA\r\n\r\n", I_LED1 * CURR_STEP);
 914              		.loc 1 154 0 discriminator 4
 915 0064 0A21     		movs	r1, #10
 916 0066 2D48     		ldr	r0, .L55+60
 917 0068 FFF7FEFF 		bl	printf
 918              	.LVL87:
 155:led_task.c    ****     printf("AFE,,LED2amb,LED1amb,,LED2,,,,,LED1,,,,,R\r\n");
 919              		.loc 1 155 0 discriminator 4
 920 006c 3246     		mov	r2, r6
 921 006e 3B46     		mov	r3, r7
 922 0070 2B48     		ldr	r0, .L55+64
 923 0072 FFF7FEFF 		bl	printf
 924              	.LVL88:
 156:led_task.c    ****     printf(",,,,,AC,MIN,MAX,DC,,AC,MIN,MAX,DC,,\r\n");
ARM GAS  C:\Users\yomat\AppData\Local\Temp\cc0omv11.s 			page 68


 925              		.loc 1 156 0 discriminator 4
 926 0076 2B48     		ldr	r0, .L55+68
 927 0078 FFF7FEFF 		bl	puts
 928              	.LVL89:
 157:led_task.c    ****     AFE_clr(afe_id);   // サンプリングカウンタをクリア
 929              		.loc 1 157 0 discriminator 4
 930 007c 2A48     		ldr	r0, .L55+72
 931 007e FFF7FEFF 		bl	puts
 932              	.LVL90:
 158:led_task.c    **** 
 933              		.loc 1 158 0 discriminator 4
 934 0082 2046     		mov	r0, r4
 935 0084 FFF7FEFF 		bl	AFE_clr
 936              	.LVL91:
 160:led_task.c    ****         afe4404Write(I2C_1_HW, AFE440X_CONTROL0, (uint8_t*)&data, REG_DATA_LEN);
 937              		.loc 1 160 0 discriminator 4
 938 0088 84B9     		cbnz	r4, .L51
 161:led_task.c    ****         afe4404ContiWrite(I2C_1_HW, (REG_SEQENCE_T *)&afe_init, sizeof(afe_init)/sizeof(REG_SEQENCE
 939              		.loc 1 161 0
 940 008a 284C     		ldr	r4, .L55+76
 941 008c 0323     		movs	r3, #3
 942 008e 01AA     		add	r2, sp, #4
 943 0090 0021     		movs	r1, #0
 944 0092 2046     		mov	r0, r4
 945 0094 FFF7FEFF 		bl	afe4404Write
 946              	.LVL92:
 162:led_task.c    ****         Cy_SysInt_Init(&ISR_AFE0_cfg, AFE0_hdr);
 947              		.loc 1 162 0
 948 0098 2D22     		movs	r2, #45
 949 009a 2549     		ldr	r1, .L55+80
 950 009c 2046     		mov	r0, r4
 951 009e FFF7FEFF 		bl	afe4404ContiWrite
 952              	.LVL93:
 163:led_task.c    ****     }
 953              		.loc 1 163 0
 954 00a2 2449     		ldr	r1, .L55+84
 955 00a4 2448     		ldr	r0, .L55+88
 956 00a6 FFF7FEFF 		bl	Cy_SysInt_Init
 957              	.LVL94:
 958 00aa 0FE0     		b	.L52
 959              	.L51:
 166:led_task.c    ****         afe4404ContiWrite(I2C_2_HW, (REG_SEQENCE_T *)&afe_init, sizeof(afe_init)/sizeof(REG_SEQENCE
 960              		.loc 1 166 0
 961 00ac 234C     		ldr	r4, .L55+92
 962 00ae 0323     		movs	r3, #3
 963 00b0 01AA     		add	r2, sp, #4
 964 00b2 0021     		movs	r1, #0
 965 00b4 2046     		mov	r0, r4
 966 00b6 FFF7FEFF 		bl	afe4404Write
 967              	.LVL95:
 167:led_task.c    ****         Cy_SysInt_Init(&ISR_AFE1_cfg, AFE1_hdr);
 968              		.loc 1 167 0
 969 00ba 2D22     		movs	r2, #45
 970 00bc 1C49     		ldr	r1, .L55+80
 971 00be 2046     		mov	r0, r4
 972 00c0 FFF7FEFF 		bl	afe4404ContiWrite
 973              	.LVL96:
ARM GAS  C:\Users\yomat\AppData\Local\Temp\cc0omv11.s 			page 69


 168:led_task.c    ****     }
 974              		.loc 1 168 0
 975 00c4 1E49     		ldr	r1, .L55+96
 976 00c6 1F48     		ldr	r0, .L55+100
 977 00c8 FFF7FEFF 		bl	Cy_SysInt_Init
 978              	.LVL97:
 979              	.L52:
 171:led_task.c    ****     // LED(RED)点灯
 980              		.loc 1 171 0
 981 00cc 1E4B     		ldr	r3, .L55+104
 982 00ce 93F88101 		ldrb	r0, [r3, #385]	@ zero_extendqisi2
 983 00d2 FFF7FEFF 		bl	AFE_act
 984              	.LVL98:
 985              	.LBB92:
 986              	.LBB93:
 987              		.file 4 "Generated_Source\\PSoC6\\pdl\\drivers/peripheral/gpio/cy_gpio.h"
   1:Generated_Source\PSoC6\pdl\drivers/peripheral/gpio/cy_gpio.h **** /***************************************************************************//**
   2:Generated_Source\PSoC6\pdl\drivers/peripheral/gpio/cy_gpio.h **** * \file cy_gpio.h
   3:Generated_Source\PSoC6\pdl\drivers/peripheral/gpio/cy_gpio.h **** * \version 1.20
   4:Generated_Source\PSoC6\pdl\drivers/peripheral/gpio/cy_gpio.h **** *
   5:Generated_Source\PSoC6\pdl\drivers/peripheral/gpio/cy_gpio.h **** * Provides an API declaration of the GPIO driver
   6:Generated_Source\PSoC6\pdl\drivers/peripheral/gpio/cy_gpio.h **** *
   7:Generated_Source\PSoC6\pdl\drivers/peripheral/gpio/cy_gpio.h **** ********************************************************************************
   8:Generated_Source\PSoC6\pdl\drivers/peripheral/gpio/cy_gpio.h **** * \copyright
   9:Generated_Source\PSoC6\pdl\drivers/peripheral/gpio/cy_gpio.h **** * Copyright 2016-2018, Cypress Semiconductor Corporation. All rights reserved.
  10:Generated_Source\PSoC6\pdl\drivers/peripheral/gpio/cy_gpio.h **** * You may use this file only in accordance with the license, terms, conditions,
  11:Generated_Source\PSoC6\pdl\drivers/peripheral/gpio/cy_gpio.h **** * disclaimers, and limitations in the end user license agreement accompanying
  12:Generated_Source\PSoC6\pdl\drivers/peripheral/gpio/cy_gpio.h **** * the software package with which this file was provided.
  13:Generated_Source\PSoC6\pdl\drivers/peripheral/gpio/cy_gpio.h **** *******************************************************************************/
  14:Generated_Source\PSoC6\pdl\drivers/peripheral/gpio/cy_gpio.h **** 
  15:Generated_Source\PSoC6\pdl\drivers/peripheral/gpio/cy_gpio.h **** /**
  16:Generated_Source\PSoC6\pdl\drivers/peripheral/gpio/cy_gpio.h **** * \addtogroup group_gpio
  17:Generated_Source\PSoC6\pdl\drivers/peripheral/gpio/cy_gpio.h **** * \{
  18:Generated_Source\PSoC6\pdl\drivers/peripheral/gpio/cy_gpio.h **** * The GPIO driver provides an API to configure and access device Input/Output pins.
  19:Generated_Source\PSoC6\pdl\drivers/peripheral/gpio/cy_gpio.h **** *
  20:Generated_Source\PSoC6\pdl\drivers/peripheral/gpio/cy_gpio.h **** * The functions and other declarations used in this driver are in cy_gpio.h. 
  21:Generated_Source\PSoC6\pdl\drivers/peripheral/gpio/cy_gpio.h **** * You can include cy_pdl.h (ModusToolbox only) to get access to all functions 
  22:Generated_Source\PSoC6\pdl\drivers/peripheral/gpio/cy_gpio.h **** * and declarations in the PDL.
  23:Generated_Source\PSoC6\pdl\drivers/peripheral/gpio/cy_gpio.h **** *
  24:Generated_Source\PSoC6\pdl\drivers/peripheral/gpio/cy_gpio.h **** * IO pins include all general purpose types such as GPIO, SIO, HSIO, AUXIO, and
  25:Generated_Source\PSoC6\pdl\drivers/peripheral/gpio/cy_gpio.h **** * their variants.
  26:Generated_Source\PSoC6\pdl\drivers/peripheral/gpio/cy_gpio.h **** *
  27:Generated_Source\PSoC6\pdl\drivers/peripheral/gpio/cy_gpio.h **** * Initialization can be performed either at the port level or by configuring the
  28:Generated_Source\PSoC6\pdl\drivers/peripheral/gpio/cy_gpio.h **** * individual pins. For efficient use of code space, port
  29:Generated_Source\PSoC6\pdl\drivers/peripheral/gpio/cy_gpio.h **** * configuration should be used in the field. Refer to the product device header files 
  30:Generated_Source\PSoC6\pdl\drivers/peripheral/gpio/cy_gpio.h **** * for the list of supported ports and pins.
  31:Generated_Source\PSoC6\pdl\drivers/peripheral/gpio/cy_gpio.h **** * 
  32:Generated_Source\PSoC6\pdl\drivers/peripheral/gpio/cy_gpio.h **** * - Single pin configuration is performed by using \ref Cy_GPIO_Pin_FastInit 
  33:Generated_Source\PSoC6\pdl\drivers/peripheral/gpio/cy_gpio.h **** *   (provide specific values) or \ref Cy_GPIO_Pin_Init (provide a filled
  34:Generated_Source\PSoC6\pdl\drivers/peripheral/gpio/cy_gpio.h **** *   cy_stc_gpio_pin_config_t structure).
  35:Generated_Source\PSoC6\pdl\drivers/peripheral/gpio/cy_gpio.h **** * - An entire port can be configured using \ref Cy_GPIO_Port_Init. Provide a filled 
  36:Generated_Source\PSoC6\pdl\drivers/peripheral/gpio/cy_gpio.h **** *   cy_stc_gpio_prt_config_t structure. The values in the structure are 
  37:Generated_Source\PSoC6\pdl\drivers/peripheral/gpio/cy_gpio.h **** *   bitfields representing the desired value for each pin in the port.
  38:Generated_Source\PSoC6\pdl\drivers/peripheral/gpio/cy_gpio.h **** * - Pin configuration and management is based on the port address and pin number.
  39:Generated_Source\PSoC6\pdl\drivers/peripheral/gpio/cy_gpio.h **** *   \ref Cy_GPIO_PortToAddr function can optionally be used to calculate the port
  40:Generated_Source\PSoC6\pdl\drivers/peripheral/gpio/cy_gpio.h **** *   address from the port number at run-time.
  41:Generated_Source\PSoC6\pdl\drivers/peripheral/gpio/cy_gpio.h **** *
ARM GAS  C:\Users\yomat\AppData\Local\Temp\cc0omv11.s 			page 70


  42:Generated_Source\PSoC6\pdl\drivers/peripheral/gpio/cy_gpio.h **** * Once the pin/port initialization is complete, each pin can be accessed by 
  43:Generated_Source\PSoC6\pdl\drivers/peripheral/gpio/cy_gpio.h **** * specifying the port (GPIO_PRT_Type) and the pin (0-7) in the provided API 
  44:Generated_Source\PSoC6\pdl\drivers/peripheral/gpio/cy_gpio.h **** * functions.
  45:Generated_Source\PSoC6\pdl\drivers/peripheral/gpio/cy_gpio.h **** *
  46:Generated_Source\PSoC6\pdl\drivers/peripheral/gpio/cy_gpio.h **** * \section group_gpio_configuration Configuration Considerations
  47:Generated_Source\PSoC6\pdl\drivers/peripheral/gpio/cy_gpio.h **** *
  48:Generated_Source\PSoC6\pdl\drivers/peripheral/gpio/cy_gpio.h **** * 1. Pin multiplexing is controlled through the High-Speed IO Matrix (HSIOM) selection.
  49:Generated_Source\PSoC6\pdl\drivers/peripheral/gpio/cy_gpio.h **** *    This allows the pin to connect to signal sources/sinks throughout the device,
  50:Generated_Source\PSoC6\pdl\drivers/peripheral/gpio/cy_gpio.h **** *    as defined by the pin HSIOM selection options (en_hsiom_sel_t).
  51:Generated_Source\PSoC6\pdl\drivers/peripheral/gpio/cy_gpio.h **** * 2. All pins are initialized to High-Z drive mode with HSIOM connected to CPU (SW
  52:Generated_Source\PSoC6\pdl\drivers/peripheral/gpio/cy_gpio.h **** *    control digital pin only) at Power-On-Reset(POR).
  53:Generated_Source\PSoC6\pdl\drivers/peripheral/gpio/cy_gpio.h **** * 3. Some API functions perform read-modify-write operations on shared port
  54:Generated_Source\PSoC6\pdl\drivers/peripheral/gpio/cy_gpio.h **** *    registers. These functions are not thread safe and care must be taken when
  55:Generated_Source\PSoC6\pdl\drivers/peripheral/gpio/cy_gpio.h **** *    called by the application.
  56:Generated_Source\PSoC6\pdl\drivers/peripheral/gpio/cy_gpio.h **** * 4. Digital input buffer provides a high-impedance buffer for the external 
  57:Generated_Source\PSoC6\pdl\drivers/peripheral/gpio/cy_gpio.h **** *    digital input. The input buffer is connected to the HSIOM for routing to 
  58:Generated_Source\PSoC6\pdl\drivers/peripheral/gpio/cy_gpio.h **** *    the CPU port registers and selected peripheral. Enabling the input 
  59:Generated_Source\PSoC6\pdl\drivers/peripheral/gpio/cy_gpio.h **** *    buffer provides possibility to read the pin state via the CPU.
  60:Generated_Source\PSoC6\pdl\drivers/peripheral/gpio/cy_gpio.h **** *    If pin is connected to an analog signal, the input buffer should be 
  61:Generated_Source\PSoC6\pdl\drivers/peripheral/gpio/cy_gpio.h **** *    disabled to avoid crowbar currents. For more information refer to device 
  62:Generated_Source\PSoC6\pdl\drivers/peripheral/gpio/cy_gpio.h **** *    TRM and the device datasheet.
  63:Generated_Source\PSoC6\pdl\drivers/peripheral/gpio/cy_gpio.h **** *
  64:Generated_Source\PSoC6\pdl\drivers/peripheral/gpio/cy_gpio.h **** * Multiple pins on a port can be updated using direct port register writes with an
  65:Generated_Source\PSoC6\pdl\drivers/peripheral/gpio/cy_gpio.h **** * appropriate port mask. An example is shown below, highlighting the different ways of 
  66:Generated_Source\PSoC6\pdl\drivers/peripheral/gpio/cy_gpio.h **** * configuring Port 1 pins using:
  67:Generated_Source\PSoC6\pdl\drivers/peripheral/gpio/cy_gpio.h **** * 
  68:Generated_Source\PSoC6\pdl\drivers/peripheral/gpio/cy_gpio.h **** * - Port output data register
  69:Generated_Source\PSoC6\pdl\drivers/peripheral/gpio/cy_gpio.h **** * - Port output data set register
  70:Generated_Source\PSoC6\pdl\drivers/peripheral/gpio/cy_gpio.h **** * - Port output data clear register
  71:Generated_Source\PSoC6\pdl\drivers/peripheral/gpio/cy_gpio.h **** *
  72:Generated_Source\PSoC6\pdl\drivers/peripheral/gpio/cy_gpio.h **** * \snippet gpio/gpio_v1_10_sut_01.cydsn/main_cm4.c Cy_GPIO_Snippet
  73:Generated_Source\PSoC6\pdl\drivers/peripheral/gpio/cy_gpio.h **** *
  74:Generated_Source\PSoC6\pdl\drivers/peripheral/gpio/cy_gpio.h **** * \section group_gpio_more_information More Information
  75:Generated_Source\PSoC6\pdl\drivers/peripheral/gpio/cy_gpio.h **** *
  76:Generated_Source\PSoC6\pdl\drivers/peripheral/gpio/cy_gpio.h **** * Refer to the technical reference manual (TRM) and the device datasheet.
  77:Generated_Source\PSoC6\pdl\drivers/peripheral/gpio/cy_gpio.h **** *
  78:Generated_Source\PSoC6\pdl\drivers/peripheral/gpio/cy_gpio.h **** * \section group_gpio_MISRA MISRA-C Compliance
  79:Generated_Source\PSoC6\pdl\drivers/peripheral/gpio/cy_gpio.h **** * The GPIO driver has the following specific deviations:
  80:Generated_Source\PSoC6\pdl\drivers/peripheral/gpio/cy_gpio.h **** *
  81:Generated_Source\PSoC6\pdl\drivers/peripheral/gpio/cy_gpio.h **** * <table class="doxtable">
  82:Generated_Source\PSoC6\pdl\drivers/peripheral/gpio/cy_gpio.h **** *   <tr>
  83:Generated_Source\PSoC6\pdl\drivers/peripheral/gpio/cy_gpio.h **** *     <th>MISRA Rule</th>
  84:Generated_Source\PSoC6\pdl\drivers/peripheral/gpio/cy_gpio.h **** *     <th>Rule Class (Required/Advisory)</th>
  85:Generated_Source\PSoC6\pdl\drivers/peripheral/gpio/cy_gpio.h **** *     <th>Rule Description</th>
  86:Generated_Source\PSoC6\pdl\drivers/peripheral/gpio/cy_gpio.h **** *     <th>Description of Deviation(s)</th>
  87:Generated_Source\PSoC6\pdl\drivers/peripheral/gpio/cy_gpio.h **** *   </tr>
  88:Generated_Source\PSoC6\pdl\drivers/peripheral/gpio/cy_gpio.h **** *   <tr>
  89:Generated_Source\PSoC6\pdl\drivers/peripheral/gpio/cy_gpio.h **** *     <td>11.4</td>
  90:Generated_Source\PSoC6\pdl\drivers/peripheral/gpio/cy_gpio.h **** *     <td>A</td>
  91:Generated_Source\PSoC6\pdl\drivers/peripheral/gpio/cy_gpio.h **** *     <td>A cast should not be performed between a pointer to object type and
  92:Generated_Source\PSoC6\pdl\drivers/peripheral/gpio/cy_gpio.h **** *         a different pointer to object type.</td>
  93:Generated_Source\PSoC6\pdl\drivers/peripheral/gpio/cy_gpio.h **** *     <td> This code is safe because the elements of both GPIO_PRT_V1_Type and GPIO_PRT_V2_Type 
  94:Generated_Source\PSoC6\pdl\drivers/peripheral/gpio/cy_gpio.h **** *          types have identical alignment.</td>
  95:Generated_Source\PSoC6\pdl\drivers/peripheral/gpio/cy_gpio.h **** *   </tr>
  96:Generated_Source\PSoC6\pdl\drivers/peripheral/gpio/cy_gpio.h **** *   <tr>
  97:Generated_Source\PSoC6\pdl\drivers/peripheral/gpio/cy_gpio.h **** *     <td>16.7</td>
  98:Generated_Source\PSoC6\pdl\drivers/peripheral/gpio/cy_gpio.h **** *     <td>A</td>
ARM GAS  C:\Users\yomat\AppData\Local\Temp\cc0omv11.s 			page 71


  99:Generated_Source\PSoC6\pdl\drivers/peripheral/gpio/cy_gpio.h **** *     <td>A pointer parameter in a function prototype should be declared as pointer 
 100:Generated_Source\PSoC6\pdl\drivers/peripheral/gpio/cy_gpio.h **** *         to const if the pointer is not used to modify the addressed object.</td>
 101:Generated_Source\PSoC6\pdl\drivers/peripheral/gpio/cy_gpio.h **** *     <td>The objects pointed to by the base addresses of the GPIO port are not always modified.
 102:Generated_Source\PSoC6\pdl\drivers/peripheral/gpio/cy_gpio.h **** *         While a const qualifier can be used in select scenarios, it brings little benefit
 103:Generated_Source\PSoC6\pdl\drivers/peripheral/gpio/cy_gpio.h **** *         in adding this to the affected functions. </td>
 104:Generated_Source\PSoC6\pdl\drivers/peripheral/gpio/cy_gpio.h **** *   </tr>
 105:Generated_Source\PSoC6\pdl\drivers/peripheral/gpio/cy_gpio.h **** * </table>
 106:Generated_Source\PSoC6\pdl\drivers/peripheral/gpio/cy_gpio.h **** *
 107:Generated_Source\PSoC6\pdl\drivers/peripheral/gpio/cy_gpio.h **** * \section group_gpio_changelog Changelog
 108:Generated_Source\PSoC6\pdl\drivers/peripheral/gpio/cy_gpio.h **** * <table class="doxtable">
 109:Generated_Source\PSoC6\pdl\drivers/peripheral/gpio/cy_gpio.h **** *   <tr><th>Version</th><th>Changes</th><th>Reason for Change</th></tr>
 110:Generated_Source\PSoC6\pdl\drivers/peripheral/gpio/cy_gpio.h **** *   <tr>
 111:Generated_Source\PSoC6\pdl\drivers/peripheral/gpio/cy_gpio.h **** *     <td rowspan="3">1.20</td>
 112:Generated_Source\PSoC6\pdl\drivers/peripheral/gpio/cy_gpio.h **** *     <td>Flattened the organization of the driver source code into the single source directory and
 113:Generated_Source\PSoC6\pdl\drivers/peripheral/gpio/cy_gpio.h **** *     <td>Driver library directory-structure simplification.</td>
 114:Generated_Source\PSoC6\pdl\drivers/peripheral/gpio/cy_gpio.h **** *   </tr>
 115:Generated_Source\PSoC6\pdl\drivers/peripheral/gpio/cy_gpio.h **** *   <tr>
 116:Generated_Source\PSoC6\pdl\drivers/peripheral/gpio/cy_gpio.h **** *     <td>Added the functions for configuring the AMux bus splitter switch cells:
 117:Generated_Source\PSoC6\pdl\drivers/peripheral/gpio/cy_gpio.h **** *     - \ref Cy_GPIO_SetAmuxSplit
 118:Generated_Source\PSoC6\pdl\drivers/peripheral/gpio/cy_gpio.h **** *     - \ref Cy_GPIO_GetAmuxSplit
 119:Generated_Source\PSoC6\pdl\drivers/peripheral/gpio/cy_gpio.h **** *     </td>
 120:Generated_Source\PSoC6\pdl\drivers/peripheral/gpio/cy_gpio.h **** *     <td>Added a new functionality related to AMux bus.</td>
 121:Generated_Source\PSoC6\pdl\drivers/peripheral/gpio/cy_gpio.h **** *   </tr>
 122:Generated_Source\PSoC6\pdl\drivers/peripheral/gpio/cy_gpio.h **** *   <tr>
 123:Generated_Source\PSoC6\pdl\drivers/peripheral/gpio/cy_gpio.h **** *     <td>Added register access layer. Use register access macros instead
 124:Generated_Source\PSoC6\pdl\drivers/peripheral/gpio/cy_gpio.h **** *         of direct register access using dereferenced pointers.</td>
 125:Generated_Source\PSoC6\pdl\drivers/peripheral/gpio/cy_gpio.h **** *     <td>Makes register access device-independent, so that the PDL does 
 126:Generated_Source\PSoC6\pdl\drivers/peripheral/gpio/cy_gpio.h **** *         not need to be recompiled for each supported part number.</td>
 127:Generated_Source\PSoC6\pdl\drivers/peripheral/gpio/cy_gpio.h **** *   </tr>
 128:Generated_Source\PSoC6\pdl\drivers/peripheral/gpio/cy_gpio.h **** *   <tr>
 129:Generated_Source\PSoC6\pdl\drivers/peripheral/gpio/cy_gpio.h **** *     <td>1.10.1</td>
 130:Generated_Source\PSoC6\pdl\drivers/peripheral/gpio/cy_gpio.h **** *     <td>Updated description for the functions: \ref Cy_GPIO_GetInterruptStatus, 
 131:Generated_Source\PSoC6\pdl\drivers/peripheral/gpio/cy_gpio.h **** *         \ref Cy_GPIO_GetInterruptMask, \ref Cy_GPIO_GetInterruptStatusMasked.
 132:Generated_Source\PSoC6\pdl\drivers/peripheral/gpio/cy_gpio.h **** *
 133:Generated_Source\PSoC6\pdl\drivers/peripheral/gpio/cy_gpio.h **** *         Minor documentation edits.
 134:Generated_Source\PSoC6\pdl\drivers/peripheral/gpio/cy_gpio.h **** *     </td>
 135:Generated_Source\PSoC6\pdl\drivers/peripheral/gpio/cy_gpio.h **** *     <td>Documentation update and clarification</td>
 136:Generated_Source\PSoC6\pdl\drivers/peripheral/gpio/cy_gpio.h **** *   </tr>
 137:Generated_Source\PSoC6\pdl\drivers/peripheral/gpio/cy_gpio.h **** *   <tr>
 138:Generated_Source\PSoC6\pdl\drivers/peripheral/gpio/cy_gpio.h **** *     <td>1.10</td>
 139:Generated_Source\PSoC6\pdl\drivers/peripheral/gpio/cy_gpio.h **** *     <td>Added input parameter validation to the API functions</td>
 140:Generated_Source\PSoC6\pdl\drivers/peripheral/gpio/cy_gpio.h **** *     <td></td>
 141:Generated_Source\PSoC6\pdl\drivers/peripheral/gpio/cy_gpio.h **** *   </tr>
 142:Generated_Source\PSoC6\pdl\drivers/peripheral/gpio/cy_gpio.h **** *   <tr>
 143:Generated_Source\PSoC6\pdl\drivers/peripheral/gpio/cy_gpio.h **** *     <td>1.0</td>
 144:Generated_Source\PSoC6\pdl\drivers/peripheral/gpio/cy_gpio.h **** *     <td>Initial version</td>
 145:Generated_Source\PSoC6\pdl\drivers/peripheral/gpio/cy_gpio.h **** *     <td></td>
 146:Generated_Source\PSoC6\pdl\drivers/peripheral/gpio/cy_gpio.h **** *   </tr>
 147:Generated_Source\PSoC6\pdl\drivers/peripheral/gpio/cy_gpio.h **** * </table>
 148:Generated_Source\PSoC6\pdl\drivers/peripheral/gpio/cy_gpio.h **** *
 149:Generated_Source\PSoC6\pdl\drivers/peripheral/gpio/cy_gpio.h **** * \defgroup group_gpio_macros Macros
 150:Generated_Source\PSoC6\pdl\drivers/peripheral/gpio/cy_gpio.h **** * \defgroup group_gpio_functions Functions
 151:Generated_Source\PSoC6\pdl\drivers/peripheral/gpio/cy_gpio.h **** * \{
 152:Generated_Source\PSoC6\pdl\drivers/peripheral/gpio/cy_gpio.h **** *   \defgroup group_gpio_functions_init       Initialization Functions
 153:Generated_Source\PSoC6\pdl\drivers/peripheral/gpio/cy_gpio.h **** *   \defgroup group_gpio_functions_gpio       GPIO Functions
 154:Generated_Source\PSoC6\pdl\drivers/peripheral/gpio/cy_gpio.h **** *   \defgroup group_gpio_functions_sio        SIO Functions
 155:Generated_Source\PSoC6\pdl\drivers/peripheral/gpio/cy_gpio.h **** *   \defgroup group_gpio_functions_interrupt  Port Interrupt Functions
ARM GAS  C:\Users\yomat\AppData\Local\Temp\cc0omv11.s 			page 72


 156:Generated_Source\PSoC6\pdl\drivers/peripheral/gpio/cy_gpio.h **** * \}
 157:Generated_Source\PSoC6\pdl\drivers/peripheral/gpio/cy_gpio.h **** * \defgroup group_gpio_data_structures Data Structures
 158:Generated_Source\PSoC6\pdl\drivers/peripheral/gpio/cy_gpio.h **** * \defgroup group_gpio_enums Enumerated Types
 159:Generated_Source\PSoC6\pdl\drivers/peripheral/gpio/cy_gpio.h **** */
 160:Generated_Source\PSoC6\pdl\drivers/peripheral/gpio/cy_gpio.h **** 
 161:Generated_Source\PSoC6\pdl\drivers/peripheral/gpio/cy_gpio.h **** #if !defined(CY_GPIO_H)
 162:Generated_Source\PSoC6\pdl\drivers/peripheral/gpio/cy_gpio.h **** #define CY_GPIO_H
 163:Generated_Source\PSoC6\pdl\drivers/peripheral/gpio/cy_gpio.h **** 
 164:Generated_Source\PSoC6\pdl\drivers/peripheral/gpio/cy_gpio.h **** #include <stddef.h>
 165:Generated_Source\PSoC6\pdl\drivers/peripheral/gpio/cy_gpio.h **** #include "cy_device.h"
 166:Generated_Source\PSoC6\pdl\drivers/peripheral/gpio/cy_gpio.h **** #include "cy_device_headers.h"
 167:Generated_Source\PSoC6\pdl\drivers/peripheral/gpio/cy_gpio.h **** #include "cy_syslib.h"
 168:Generated_Source\PSoC6\pdl\drivers/peripheral/gpio/cy_gpio.h **** 
 169:Generated_Source\PSoC6\pdl\drivers/peripheral/gpio/cy_gpio.h **** #if defined(__cplusplus)
 170:Generated_Source\PSoC6\pdl\drivers/peripheral/gpio/cy_gpio.h **** extern "C" {
 171:Generated_Source\PSoC6\pdl\drivers/peripheral/gpio/cy_gpio.h **** #endif
 172:Generated_Source\PSoC6\pdl\drivers/peripheral/gpio/cy_gpio.h **** 
 173:Generated_Source\PSoC6\pdl\drivers/peripheral/gpio/cy_gpio.h **** /** \addtogroup group_gpio_macros
 174:Generated_Source\PSoC6\pdl\drivers/peripheral/gpio/cy_gpio.h **** * \{
 175:Generated_Source\PSoC6\pdl\drivers/peripheral/gpio/cy_gpio.h **** */
 176:Generated_Source\PSoC6\pdl\drivers/peripheral/gpio/cy_gpio.h **** 
 177:Generated_Source\PSoC6\pdl\drivers/peripheral/gpio/cy_gpio.h **** /** Driver major version */
 178:Generated_Source\PSoC6\pdl\drivers/peripheral/gpio/cy_gpio.h **** #define CY_GPIO_DRV_VERSION_MAJOR       1
 179:Generated_Source\PSoC6\pdl\drivers/peripheral/gpio/cy_gpio.h **** 
 180:Generated_Source\PSoC6\pdl\drivers/peripheral/gpio/cy_gpio.h **** /** Driver minor version */
 181:Generated_Source\PSoC6\pdl\drivers/peripheral/gpio/cy_gpio.h **** #define CY_GPIO_DRV_VERSION_MINOR       20
 182:Generated_Source\PSoC6\pdl\drivers/peripheral/gpio/cy_gpio.h **** 
 183:Generated_Source\PSoC6\pdl\drivers/peripheral/gpio/cy_gpio.h **** /** GPIO driver ID */
 184:Generated_Source\PSoC6\pdl\drivers/peripheral/gpio/cy_gpio.h **** #define CY_GPIO_ID CY_PDL_DRV_ID(0x16U)
 185:Generated_Source\PSoC6\pdl\drivers/peripheral/gpio/cy_gpio.h **** 
 186:Generated_Source\PSoC6\pdl\drivers/peripheral/gpio/cy_gpio.h **** /** \} group_gpio_macros */
 187:Generated_Source\PSoC6\pdl\drivers/peripheral/gpio/cy_gpio.h **** 
 188:Generated_Source\PSoC6\pdl\drivers/peripheral/gpio/cy_gpio.h **** 
 189:Generated_Source\PSoC6\pdl\drivers/peripheral/gpio/cy_gpio.h **** /***************************************
 190:Generated_Source\PSoC6\pdl\drivers/peripheral/gpio/cy_gpio.h **** *       Enumerations
 191:Generated_Source\PSoC6\pdl\drivers/peripheral/gpio/cy_gpio.h **** ***************************************/
 192:Generated_Source\PSoC6\pdl\drivers/peripheral/gpio/cy_gpio.h **** /**
 193:Generated_Source\PSoC6\pdl\drivers/peripheral/gpio/cy_gpio.h **** * \addtogroup group_gpio_enums
 194:Generated_Source\PSoC6\pdl\drivers/peripheral/gpio/cy_gpio.h **** * \{
 195:Generated_Source\PSoC6\pdl\drivers/peripheral/gpio/cy_gpio.h **** */
 196:Generated_Source\PSoC6\pdl\drivers/peripheral/gpio/cy_gpio.h **** 
 197:Generated_Source\PSoC6\pdl\drivers/peripheral/gpio/cy_gpio.h **** /** GPIO Driver error codes */
 198:Generated_Source\PSoC6\pdl\drivers/peripheral/gpio/cy_gpio.h **** typedef enum 
 199:Generated_Source\PSoC6\pdl\drivers/peripheral/gpio/cy_gpio.h **** {
 200:Generated_Source\PSoC6\pdl\drivers/peripheral/gpio/cy_gpio.h ****     CY_GPIO_SUCCESS   = 0x00U,                                    /**< Returned successful */
 201:Generated_Source\PSoC6\pdl\drivers/peripheral/gpio/cy_gpio.h ****     CY_GPIO_BAD_PARAM = CY_GPIO_ID | CY_PDL_STATUS_ERROR | 0x01U, /**< Bad parameter was passed */
 202:Generated_Source\PSoC6\pdl\drivers/peripheral/gpio/cy_gpio.h **** } cy_en_gpio_status_t;
 203:Generated_Source\PSoC6\pdl\drivers/peripheral/gpio/cy_gpio.h **** 
 204:Generated_Source\PSoC6\pdl\drivers/peripheral/gpio/cy_gpio.h **** /** AMux switch open/close config */
 205:Generated_Source\PSoC6\pdl\drivers/peripheral/gpio/cy_gpio.h **** typedef enum
 206:Generated_Source\PSoC6\pdl\drivers/peripheral/gpio/cy_gpio.h **** {
 207:Generated_Source\PSoC6\pdl\drivers/peripheral/gpio/cy_gpio.h ****     CY_GPIO_AMUX_OPENALL,   /**< Open ground switch. Open right switch. Open left switch */
 208:Generated_Source\PSoC6\pdl\drivers/peripheral/gpio/cy_gpio.h ****     CY_GPIO_AMUX_L,         /**< Open ground switch. Open right switch. Close left switch */
 209:Generated_Source\PSoC6\pdl\drivers/peripheral/gpio/cy_gpio.h ****     CY_GPIO_AMUX_R,         /**< Open ground switch. Close right switch. Open left switch */
 210:Generated_Source\PSoC6\pdl\drivers/peripheral/gpio/cy_gpio.h ****     CY_GPIO_AMUX_LR,        /**< Open ground switch. Close right switch. Close left switch */
 211:Generated_Source\PSoC6\pdl\drivers/peripheral/gpio/cy_gpio.h ****     CY_GPIO_AMUX_G,         /**< Close ground switch. Open right switch. Open left switch */
 212:Generated_Source\PSoC6\pdl\drivers/peripheral/gpio/cy_gpio.h ****     CY_GPIO_AMUX_GL,        /**< Close ground switch. Open right switch. Close left switch */
ARM GAS  C:\Users\yomat\AppData\Local\Temp\cc0omv11.s 			page 73


 213:Generated_Source\PSoC6\pdl\drivers/peripheral/gpio/cy_gpio.h ****     CY_GPIO_AMUX_GR,        /**< Close ground switch. Close right switch. Open left switch */
 214:Generated_Source\PSoC6\pdl\drivers/peripheral/gpio/cy_gpio.h ****     CY_GPIO_AMUX_GLR,       /**< Close ground switch. Close right switch. Close left switch */
 215:Generated_Source\PSoC6\pdl\drivers/peripheral/gpio/cy_gpio.h **** }cy_en_gpio_amuxconnect_t;
 216:Generated_Source\PSoC6\pdl\drivers/peripheral/gpio/cy_gpio.h **** 
 217:Generated_Source\PSoC6\pdl\drivers/peripheral/gpio/cy_gpio.h **** /**
 218:Generated_Source\PSoC6\pdl\drivers/peripheral/gpio/cy_gpio.h **** * AMux Bus selection
 219:Generated_Source\PSoC6\pdl\drivers/peripheral/gpio/cy_gpio.h **** */
 220:Generated_Source\PSoC6\pdl\drivers/peripheral/gpio/cy_gpio.h **** typedef enum
 221:Generated_Source\PSoC6\pdl\drivers/peripheral/gpio/cy_gpio.h **** {
 222:Generated_Source\PSoC6\pdl\drivers/peripheral/gpio/cy_gpio.h ****     CY_GPIO_AMUXBUSA,       /**< AMuxBus A */
 223:Generated_Source\PSoC6\pdl\drivers/peripheral/gpio/cy_gpio.h ****     CY_GPIO_AMUXBUSB        /**< AMuxBus B */
 224:Generated_Source\PSoC6\pdl\drivers/peripheral/gpio/cy_gpio.h **** }cy_en_gpio_amuxselect_t;
 225:Generated_Source\PSoC6\pdl\drivers/peripheral/gpio/cy_gpio.h **** 
 226:Generated_Source\PSoC6\pdl\drivers/peripheral/gpio/cy_gpio.h **** /** \} group_gpio_enums */
 227:Generated_Source\PSoC6\pdl\drivers/peripheral/gpio/cy_gpio.h **** 
 228:Generated_Source\PSoC6\pdl\drivers/peripheral/gpio/cy_gpio.h **** 
 229:Generated_Source\PSoC6\pdl\drivers/peripheral/gpio/cy_gpio.h **** /***************************************
 230:Generated_Source\PSoC6\pdl\drivers/peripheral/gpio/cy_gpio.h **** *       Configuration Structures
 231:Generated_Source\PSoC6\pdl\drivers/peripheral/gpio/cy_gpio.h **** ***************************************/
 232:Generated_Source\PSoC6\pdl\drivers/peripheral/gpio/cy_gpio.h **** 
 233:Generated_Source\PSoC6\pdl\drivers/peripheral/gpio/cy_gpio.h **** /**
 234:Generated_Source\PSoC6\pdl\drivers/peripheral/gpio/cy_gpio.h **** * \addtogroup group_gpio_data_structures
 235:Generated_Source\PSoC6\pdl\drivers/peripheral/gpio/cy_gpio.h **** * \{
 236:Generated_Source\PSoC6\pdl\drivers/peripheral/gpio/cy_gpio.h **** */
 237:Generated_Source\PSoC6\pdl\drivers/peripheral/gpio/cy_gpio.h **** 
 238:Generated_Source\PSoC6\pdl\drivers/peripheral/gpio/cy_gpio.h **** /** This structure is used to initialize a port of GPIO pins */
 239:Generated_Source\PSoC6\pdl\drivers/peripheral/gpio/cy_gpio.h **** typedef struct 
 240:Generated_Source\PSoC6\pdl\drivers/peripheral/gpio/cy_gpio.h **** {
 241:Generated_Source\PSoC6\pdl\drivers/peripheral/gpio/cy_gpio.h ****     uint32_t out;           /**< Initial output data for the IO pins in the port */
 242:Generated_Source\PSoC6\pdl\drivers/peripheral/gpio/cy_gpio.h ****     uint32_t intrMask;      /**< Interrupt enable mask for the port interrupt */
 243:Generated_Source\PSoC6\pdl\drivers/peripheral/gpio/cy_gpio.h ****     uint32_t intrCfg;       /**< Port pin interrupt edge detection configuration */
 244:Generated_Source\PSoC6\pdl\drivers/peripheral/gpio/cy_gpio.h ****     uint32_t cfg;           /**< Port pin drive modes and input buffer enable configuration */
 245:Generated_Source\PSoC6\pdl\drivers/peripheral/gpio/cy_gpio.h ****     uint32_t cfgIn;         /**< Port pin input buffer configuration */
 246:Generated_Source\PSoC6\pdl\drivers/peripheral/gpio/cy_gpio.h ****     uint32_t cfgOut;        /**< Port pin output buffer configuration */
 247:Generated_Source\PSoC6\pdl\drivers/peripheral/gpio/cy_gpio.h ****     uint32_t cfgSIO;        /**< Port SIO pins configuration */
 248:Generated_Source\PSoC6\pdl\drivers/peripheral/gpio/cy_gpio.h ****     uint32_t sel0Active;    /**< HSIOM selection for port pins 0,1,2,3 */
 249:Generated_Source\PSoC6\pdl\drivers/peripheral/gpio/cy_gpio.h ****     uint32_t sel1Active;    /**< HSIOM selection for port pins 4,5,6,7 */
 250:Generated_Source\PSoC6\pdl\drivers/peripheral/gpio/cy_gpio.h **** } cy_stc_gpio_prt_config_t;
 251:Generated_Source\PSoC6\pdl\drivers/peripheral/gpio/cy_gpio.h **** 
 252:Generated_Source\PSoC6\pdl\drivers/peripheral/gpio/cy_gpio.h **** /** This structure is used to initialize a single GPIO pin */
 253:Generated_Source\PSoC6\pdl\drivers/peripheral/gpio/cy_gpio.h **** typedef struct
 254:Generated_Source\PSoC6\pdl\drivers/peripheral/gpio/cy_gpio.h **** {
 255:Generated_Source\PSoC6\pdl\drivers/peripheral/gpio/cy_gpio.h ****     uint32_t outVal;         /**< Pin output state */
 256:Generated_Source\PSoC6\pdl\drivers/peripheral/gpio/cy_gpio.h ****     uint32_t driveMode;      /**< Drive mode */
 257:Generated_Source\PSoC6\pdl\drivers/peripheral/gpio/cy_gpio.h ****     en_hsiom_sel_t hsiom;    /**< HSIOM selection */
 258:Generated_Source\PSoC6\pdl\drivers/peripheral/gpio/cy_gpio.h ****     uint32_t intEdge;        /**< Interrupt Edge type */
 259:Generated_Source\PSoC6\pdl\drivers/peripheral/gpio/cy_gpio.h ****     uint32_t intMask;        /**< Interrupt enable mask */
 260:Generated_Source\PSoC6\pdl\drivers/peripheral/gpio/cy_gpio.h ****     uint32_t vtrip;          /**< Input buffer voltage trip type */
 261:Generated_Source\PSoC6\pdl\drivers/peripheral/gpio/cy_gpio.h ****     uint32_t slewRate;       /**< Output buffer slew rate */
 262:Generated_Source\PSoC6\pdl\drivers/peripheral/gpio/cy_gpio.h ****     uint32_t driveSel;       /**< Drive strength */
 263:Generated_Source\PSoC6\pdl\drivers/peripheral/gpio/cy_gpio.h ****     uint32_t vregEn;         /**< SIO pair output buffer mode */
 264:Generated_Source\PSoC6\pdl\drivers/peripheral/gpio/cy_gpio.h ****     uint32_t ibufMode;       /**< SIO pair input buffer mode */
 265:Generated_Source\PSoC6\pdl\drivers/peripheral/gpio/cy_gpio.h ****     uint32_t vtripSel;       /**< SIO pair input buffer trip point */
 266:Generated_Source\PSoC6\pdl\drivers/peripheral/gpio/cy_gpio.h ****     uint32_t vrefSel;        /**< SIO pair reference voltage for input buffer trip point */
 267:Generated_Source\PSoC6\pdl\drivers/peripheral/gpio/cy_gpio.h ****     uint32_t vohSel;         /**< SIO pair regulated voltage output level */
 268:Generated_Source\PSoC6\pdl\drivers/peripheral/gpio/cy_gpio.h **** } cy_stc_gpio_pin_config_t;
 269:Generated_Source\PSoC6\pdl\drivers/peripheral/gpio/cy_gpio.h **** 
ARM GAS  C:\Users\yomat\AppData\Local\Temp\cc0omv11.s 			page 74


 270:Generated_Source\PSoC6\pdl\drivers/peripheral/gpio/cy_gpio.h **** /** \} group_gpio_data_structures */
 271:Generated_Source\PSoC6\pdl\drivers/peripheral/gpio/cy_gpio.h **** 
 272:Generated_Source\PSoC6\pdl\drivers/peripheral/gpio/cy_gpio.h **** /***************************************
 273:Generated_Source\PSoC6\pdl\drivers/peripheral/gpio/cy_gpio.h **** *        Constants
 274:Generated_Source\PSoC6\pdl\drivers/peripheral/gpio/cy_gpio.h **** ***************************************/
 275:Generated_Source\PSoC6\pdl\drivers/peripheral/gpio/cy_gpio.h **** 
 276:Generated_Source\PSoC6\pdl\drivers/peripheral/gpio/cy_gpio.h **** /** \cond INTERNAL */
 277:Generated_Source\PSoC6\pdl\drivers/peripheral/gpio/cy_gpio.h **** 
 278:Generated_Source\PSoC6\pdl\drivers/peripheral/gpio/cy_gpio.h **** /* General Constants */
 279:Generated_Source\PSoC6\pdl\drivers/peripheral/gpio/cy_gpio.h **** #define CY_GPIO_PRT_HALF                       (4UL)      /**< Half-way point of a GPIO port */
 280:Generated_Source\PSoC6\pdl\drivers/peripheral/gpio/cy_gpio.h **** #define CY_GPIO_PRT_DEINIT                     (0UL)      /**< De-init value for port registers */
 281:Generated_Source\PSoC6\pdl\drivers/peripheral/gpio/cy_gpio.h **** 
 282:Generated_Source\PSoC6\pdl\drivers/peripheral/gpio/cy_gpio.h **** /* GPIO Masks */
 283:Generated_Source\PSoC6\pdl\drivers/peripheral/gpio/cy_gpio.h **** #define CY_GPIO_HSIOM_MASK                     (0x1FUL)   /**< HSIOM selection mask */
 284:Generated_Source\PSoC6\pdl\drivers/peripheral/gpio/cy_gpio.h **** #define CY_GPIO_OUT_MASK                       (0x01UL)   /**< Single pin mask for OUT register */
 285:Generated_Source\PSoC6\pdl\drivers/peripheral/gpio/cy_gpio.h **** #define CY_GPIO_IN_MASK                        (0x01UL)   /**< Single pin mask for IN register */
 286:Generated_Source\PSoC6\pdl\drivers/peripheral/gpio/cy_gpio.h **** #define CY_GPIO_CFG_DM_MASK                    (0x0FUL)   /**< Single pin mask for drive mode in CF
 287:Generated_Source\PSoC6\pdl\drivers/peripheral/gpio/cy_gpio.h **** #define CY_GPIO_CFG_IN_VTRIP_SEL_MASK          (0x01UL)   /**< Single pin mask for VTRIP selection 
 288:Generated_Source\PSoC6\pdl\drivers/peripheral/gpio/cy_gpio.h **** #define CY_GPIO_CFG_OUT_SLOW_MASK              (0x01UL)   /**< Single pin mask for slew rate in CFG
 289:Generated_Source\PSoC6\pdl\drivers/peripheral/gpio/cy_gpio.h **** #define CY_GPIO_CFG_OUT_DRIVE_SEL_MASK         (0x03UL)   /**< Single pin mask for drive strength i
 290:Generated_Source\PSoC6\pdl\drivers/peripheral/gpio/cy_gpio.h **** #define CY_GPIO_INTR_STATUS_MASK               (0x01UL)   /**< Single pin mask for interrupt status
 291:Generated_Source\PSoC6\pdl\drivers/peripheral/gpio/cy_gpio.h **** #define CY_GPIO_INTR_EN_MASK                   (0x01UL)   /**< Single pin mask for interrupt status
 292:Generated_Source\PSoC6\pdl\drivers/peripheral/gpio/cy_gpio.h **** #define CY_GPIO_INTR_MASKED_MASK               (0x01UL)   /**< Single pin mask for masked interrupt
 293:Generated_Source\PSoC6\pdl\drivers/peripheral/gpio/cy_gpio.h **** #define CY_GPIO_INTR_SET_MASK                  (0x01UL)   /**< Single pin mask for setting the inte
 294:Generated_Source\PSoC6\pdl\drivers/peripheral/gpio/cy_gpio.h **** #define CY_GPIO_INTR_EDGE_MASK                 (0x03UL)   /**< Single pin mask for interrupt edge t
 295:Generated_Source\PSoC6\pdl\drivers/peripheral/gpio/cy_gpio.h **** #define CY_GPIO_INTR_FLT_EDGE_MASK             (0x07UL)   /**< Single pin mask for setting filtered
 296:Generated_Source\PSoC6\pdl\drivers/peripheral/gpio/cy_gpio.h **** 
 297:Generated_Source\PSoC6\pdl\drivers/peripheral/gpio/cy_gpio.h **** /* SIO Masks */
 298:Generated_Source\PSoC6\pdl\drivers/peripheral/gpio/cy_gpio.h **** #define CY_GPIO_VREG_EN_MASK                   (0x01UL)   /**< Single SIO pin mask for voltage regu
 299:Generated_Source\PSoC6\pdl\drivers/peripheral/gpio/cy_gpio.h **** #define CY_GPIO_IBUF_MASK                      (0x01UL)   /**< Single SIO pin mask for input buffer
 300:Generated_Source\PSoC6\pdl\drivers/peripheral/gpio/cy_gpio.h **** #define CY_GPIO_IBUF_SHIFT                     (0x01UL)   /**< Single SIO pin shift for input buffe
 301:Generated_Source\PSoC6\pdl\drivers/peripheral/gpio/cy_gpio.h **** #define CY_GPIO_VTRIP_SEL_MASK                 (0x01UL)   /**< Single SIO pin mask for the input bu
 302:Generated_Source\PSoC6\pdl\drivers/peripheral/gpio/cy_gpio.h **** #define CY_GPIO_VTRIP_SEL_SHIFT                (0x02UL)   /**< Single SIO pin shift for the input b
 303:Generated_Source\PSoC6\pdl\drivers/peripheral/gpio/cy_gpio.h **** #define CY_GPIO_VREF_SEL_MASK                  (0x03UL)   /**< Single SIO pin mask for voltage refe
 304:Generated_Source\PSoC6\pdl\drivers/peripheral/gpio/cy_gpio.h **** #define CY_GPIO_VREF_SEL_SHIFT                 (0x03UL)   /**< Single SIO pin shift for voltage ref
 305:Generated_Source\PSoC6\pdl\drivers/peripheral/gpio/cy_gpio.h **** #define CY_GPIO_VOH_SEL_MASK                   (0x07UL)   /**< Single SIO pin mask for VOH */
 306:Generated_Source\PSoC6\pdl\drivers/peripheral/gpio/cy_gpio.h **** #define CY_GPIO_VOH_SEL_SHIFT                  (0x05UL)   /**< Single SIO pin shift for VOH */
 307:Generated_Source\PSoC6\pdl\drivers/peripheral/gpio/cy_gpio.h **** 
 308:Generated_Source\PSoC6\pdl\drivers/peripheral/gpio/cy_gpio.h **** /* Special mask for SIO pin pair setting */
 309:Generated_Source\PSoC6\pdl\drivers/peripheral/gpio/cy_gpio.h **** #define CY_GPIO_SIO_ODD_PIN_MASK               (0x00FEUL) /**< SIO pin pair selection mask */
 310:Generated_Source\PSoC6\pdl\drivers/peripheral/gpio/cy_gpio.h **** #define CY_GPIO_SIO_PIN_MASK                   (0x00FFUL) /**< SIO pin pair mask */
 311:Generated_Source\PSoC6\pdl\drivers/peripheral/gpio/cy_gpio.h **** 
 312:Generated_Source\PSoC6\pdl\drivers/peripheral/gpio/cy_gpio.h **** /* Offsets */
 313:Generated_Source\PSoC6\pdl\drivers/peripheral/gpio/cy_gpio.h **** #define CY_GPIO_HSIOM_OFFSET                   (3UL)      /**< Offset for HSIOM */
 314:Generated_Source\PSoC6\pdl\drivers/peripheral/gpio/cy_gpio.h **** #define CY_GPIO_DRIVE_MODE_OFFSET              (2UL)      /**< Offset for Drive mode */
 315:Generated_Source\PSoC6\pdl\drivers/peripheral/gpio/cy_gpio.h **** #define CY_GPIO_INBUF_OFFSET                   (3UL)      /**< Offset for input buffer */
 316:Generated_Source\PSoC6\pdl\drivers/peripheral/gpio/cy_gpio.h **** #define CY_GPIO_CFG_OUT_DRIVE_OFFSET           (16UL)     /**< Offset for drive strength */
 317:Generated_Source\PSoC6\pdl\drivers/peripheral/gpio/cy_gpio.h **** #define CY_GPIO_INTR_CFG_OFFSET                (1UL)      /**< Offset for interrupt config */
 318:Generated_Source\PSoC6\pdl\drivers/peripheral/gpio/cy_gpio.h **** #define CY_GPIO_INTR_FILT_OFFSET               (18UL)     /**< Offset for filtered interrupt config
 319:Generated_Source\PSoC6\pdl\drivers/peripheral/gpio/cy_gpio.h **** #define CY_GPIO_CFG_SIO_OFFSET                 (2UL)      /**< Offset for SIO config */
 320:Generated_Source\PSoC6\pdl\drivers/peripheral/gpio/cy_gpio.h **** 
 321:Generated_Source\PSoC6\pdl\drivers/peripheral/gpio/cy_gpio.h **** /* Parameter validation constants */
 322:Generated_Source\PSoC6\pdl\drivers/peripheral/gpio/cy_gpio.h **** #define CY_GPIO_PINS_MAX                       (8UL)      /**< Number of pins in the port */
 323:Generated_Source\PSoC6\pdl\drivers/peripheral/gpio/cy_gpio.h **** #define CY_GPIO_PRT_PINS_MASK                  (0x0000000FFUL)
 324:Generated_Source\PSoC6\pdl\drivers/peripheral/gpio/cy_gpio.h **** #define CY_GPIO_PRT_INTR_CFG_EDGE_SEL_MASK     (GPIO_PRT_INTR_CFG_EDGE0_SEL_Msk | \
 325:Generated_Source\PSoC6\pdl\drivers/peripheral/gpio/cy_gpio.h ****                                                 GPIO_PRT_INTR_CFG_EDGE1_SEL_Msk | \
 326:Generated_Source\PSoC6\pdl\drivers/peripheral/gpio/cy_gpio.h ****                                                 GPIO_PRT_INTR_CFG_EDGE2_SEL_Msk | \
ARM GAS  C:\Users\yomat\AppData\Local\Temp\cc0omv11.s 			page 75


 327:Generated_Source\PSoC6\pdl\drivers/peripheral/gpio/cy_gpio.h ****                                                 GPIO_PRT_INTR_CFG_EDGE3_SEL_Msk | \
 328:Generated_Source\PSoC6\pdl\drivers/peripheral/gpio/cy_gpio.h ****                                                 GPIO_PRT_INTR_CFG_EDGE4_SEL_Msk | \
 329:Generated_Source\PSoC6\pdl\drivers/peripheral/gpio/cy_gpio.h ****                                                 GPIO_PRT_INTR_CFG_EDGE5_SEL_Msk | \
 330:Generated_Source\PSoC6\pdl\drivers/peripheral/gpio/cy_gpio.h ****                                                 GPIO_PRT_INTR_CFG_EDGE6_SEL_Msk | \
 331:Generated_Source\PSoC6\pdl\drivers/peripheral/gpio/cy_gpio.h ****                                                 GPIO_PRT_INTR_CFG_EDGE7_SEL_Msk)
 332:Generated_Source\PSoC6\pdl\drivers/peripheral/gpio/cy_gpio.h **** #define CY_GPIO_PRT_INTR_CFG_RANGE_MASK        (CY_GPIO_PRT_INTR_CFG_EDGE_SEL_MASK | \
 333:Generated_Source\PSoC6\pdl\drivers/peripheral/gpio/cy_gpio.h ****                                                 GPIO_PRT_INTR_CFG_FLT_EDGE_SEL_Msk | \
 334:Generated_Source\PSoC6\pdl\drivers/peripheral/gpio/cy_gpio.h ****                                                 GPIO_PRT_INTR_CFG_FLT_SEL_Msk)
 335:Generated_Source\PSoC6\pdl\drivers/peripheral/gpio/cy_gpio.h **** #define CY_GPIO_PRT_INT_MASK_MASK              (0x0000001FFUL)
 336:Generated_Source\PSoC6\pdl\drivers/peripheral/gpio/cy_gpio.h **** #define CY_GPIO_PRT_SEL_ACTIVE_MASK            (0x1FFFFFFFUL)
 337:Generated_Source\PSoC6\pdl\drivers/peripheral/gpio/cy_gpio.h **** 
 338:Generated_Source\PSoC6\pdl\drivers/peripheral/gpio/cy_gpio.h **** #define GPIO_MAX_SPLIT_CELL_SEGMENTS           (9U)
 339:Generated_Source\PSoC6\pdl\drivers/peripheral/gpio/cy_gpio.h **** 
 340:Generated_Source\PSoC6\pdl\drivers/peripheral/gpio/cy_gpio.h **** /* Parameter validation macros */
 341:Generated_Source\PSoC6\pdl\drivers/peripheral/gpio/cy_gpio.h **** #define CY_GPIO_IS_PIN_VALID(pinNum)           (CY_GPIO_PINS_MAX > (pinNum))
 342:Generated_Source\PSoC6\pdl\drivers/peripheral/gpio/cy_gpio.h **** #define CY_GPIO_IS_FILTER_PIN_VALID(pinNum)    (CY_GPIO_PINS_MAX >= (pinNum))
 343:Generated_Source\PSoC6\pdl\drivers/peripheral/gpio/cy_gpio.h **** #define CY_GPIO_IS_VALUE_VALID(outVal)         (1UL >= (outVal))
 344:Generated_Source\PSoC6\pdl\drivers/peripheral/gpio/cy_gpio.h **** #define CY_GPIO_IS_DM_VALID(driveMode)         (0U == ((driveMode) & (uint32_t)~CY_GPIO_CFG_DM_MASK
 345:Generated_Source\PSoC6\pdl\drivers/peripheral/gpio/cy_gpio.h **** 
 346:Generated_Source\PSoC6\pdl\drivers/peripheral/gpio/cy_gpio.h **** #define CY_GPIO_IS_HSIOM_VALID(hsiom)          (0U == ((hsiom) & (uint32_t)~CY_GPIO_HSIOM_MASK))
 347:Generated_Source\PSoC6\pdl\drivers/peripheral/gpio/cy_gpio.h **** 
 348:Generated_Source\PSoC6\pdl\drivers/peripheral/gpio/cy_gpio.h **** #define CY_GPIO_IS_INT_EDGE_VALID(intEdge)     ((CY_GPIO_INTR_DISABLE  == (intEdge)) || \
 349:Generated_Source\PSoC6\pdl\drivers/peripheral/gpio/cy_gpio.h ****                                                 (CY_GPIO_INTR_RISING   == (intEdge)) || \
 350:Generated_Source\PSoC6\pdl\drivers/peripheral/gpio/cy_gpio.h ****                                                 (CY_GPIO_INTR_FALLING  == (intEdge)) || \
 351:Generated_Source\PSoC6\pdl\drivers/peripheral/gpio/cy_gpio.h ****                                                 (CY_GPIO_INTR_BOTH     == (intEdge)))
 352:Generated_Source\PSoC6\pdl\drivers/peripheral/gpio/cy_gpio.h **** 
 353:Generated_Source\PSoC6\pdl\drivers/peripheral/gpio/cy_gpio.h **** #define CY_GPIO_IS_DRIVE_SEL_VALID(driveSel)   ((CY_GPIO_DRIVE_FULL    == (driveSel)) || \
 354:Generated_Source\PSoC6\pdl\drivers/peripheral/gpio/cy_gpio.h ****                                                 (CY_GPIO_DRIVE_1_2     == (driveSel)) || \
 355:Generated_Source\PSoC6\pdl\drivers/peripheral/gpio/cy_gpio.h ****                                                 (CY_GPIO_DRIVE_1_4     == (driveSel)) || \
 356:Generated_Source\PSoC6\pdl\drivers/peripheral/gpio/cy_gpio.h ****                                                 (CY_GPIO_DRIVE_1_8     == (driveSel)))
 357:Generated_Source\PSoC6\pdl\drivers/peripheral/gpio/cy_gpio.h **** 
 358:Generated_Source\PSoC6\pdl\drivers/peripheral/gpio/cy_gpio.h **** #define CY_GPIO_IS_VREF_SEL_VALID(vrefSel)     ((CY_SIO_VREF_PINREF    == (vrefSel)) || \
 359:Generated_Source\PSoC6\pdl\drivers/peripheral/gpio/cy_gpio.h ****                                                 (CY_SIO_VREF_1_2V      == (vrefSel)) || \
 360:Generated_Source\PSoC6\pdl\drivers/peripheral/gpio/cy_gpio.h ****                                                 (CY_SIO_VREF_AMUX_A    == (vrefSel)) || \
 361:Generated_Source\PSoC6\pdl\drivers/peripheral/gpio/cy_gpio.h ****                                                 (CY_SIO_VREF_AMUX_B    == (vrefSel)))
 362:Generated_Source\PSoC6\pdl\drivers/peripheral/gpio/cy_gpio.h **** 
 363:Generated_Source\PSoC6\pdl\drivers/peripheral/gpio/cy_gpio.h **** #define CY_GPIO_IS_VOH_SEL_VALID(vrefSel)      ((CY_SIO_VOH_1_00       == (vrefSel)) || \
 364:Generated_Source\PSoC6\pdl\drivers/peripheral/gpio/cy_gpio.h ****                                                 (CY_SIO_VOH_1_25       == (vrefSel)) || \
 365:Generated_Source\PSoC6\pdl\drivers/peripheral/gpio/cy_gpio.h ****                                                 (CY_SIO_VOH_1_49       == (vrefSel)) || \
 366:Generated_Source\PSoC6\pdl\drivers/peripheral/gpio/cy_gpio.h ****                                                 (CY_SIO_VOH_1_67       == (vrefSel)) || \
 367:Generated_Source\PSoC6\pdl\drivers/peripheral/gpio/cy_gpio.h ****                                                 (CY_SIO_VOH_2_08       == (vrefSel)) || \
 368:Generated_Source\PSoC6\pdl\drivers/peripheral/gpio/cy_gpio.h ****                                                 (CY_SIO_VOH_2_50       == (vrefSel)) || \
 369:Generated_Source\PSoC6\pdl\drivers/peripheral/gpio/cy_gpio.h ****                                                 (CY_SIO_VOH_2_78       == (vrefSel)) || \
 370:Generated_Source\PSoC6\pdl\drivers/peripheral/gpio/cy_gpio.h ****                                                 (CY_SIO_VOH_4_16       == (vrefSel)))
 371:Generated_Source\PSoC6\pdl\drivers/peripheral/gpio/cy_gpio.h ****                    
 372:Generated_Source\PSoC6\pdl\drivers/peripheral/gpio/cy_gpio.h **** #define CY_GPIO_IS_PIN_BIT_VALID(pinBit)       (0U == ((pinBit) & (uint32_t)~CY_GPIO_PRT_PINS_MASK)
 373:Generated_Source\PSoC6\pdl\drivers/peripheral/gpio/cy_gpio.h **** #define CY_GPIO_IS_INTR_CFG_VALID(intrCfg)     (0U == ((intrCfg) & (uint32_t)~CY_GPIO_PRT_INTR_CFG_
 374:Generated_Source\PSoC6\pdl\drivers/peripheral/gpio/cy_gpio.h **** #define CY_GPIO_IS_INTR_MASK_VALID(intrMask)   (0U == ((intrMask) & (uint32_t)~CY_GPIO_PRT_INT_MASK
 375:Generated_Source\PSoC6\pdl\drivers/peripheral/gpio/cy_gpio.h **** #define CY_GPIO_IS_SEL_ACT_VALID(selActive)    (0U == ((selActive) & (uint32_t)~CY_GPIO_PRT_SEL_ACT
 376:Generated_Source\PSoC6\pdl\drivers/peripheral/gpio/cy_gpio.h **** 
 377:Generated_Source\PSoC6\pdl\drivers/peripheral/gpio/cy_gpio.h **** #define CY_GPIO_IS_AMUX_SPLIT_VALID(switchCtrl)       (((uint32_t) (switchCtrl)) < GPIO_MAX_SPLIT_C
 378:Generated_Source\PSoC6\pdl\drivers/peripheral/gpio/cy_gpio.h **** 
 379:Generated_Source\PSoC6\pdl\drivers/peripheral/gpio/cy_gpio.h **** #define CY_GPIO_IS_AMUX_CONNECT_VALID(amuxConnect)    ((CY_GPIO_AMUX_OPENALL == (amuxConnect)) || \
 380:Generated_Source\PSoC6\pdl\drivers/peripheral/gpio/cy_gpio.h ****                                                        (CY_GPIO_AMUX_L       == (amuxConnect)) || \
 381:Generated_Source\PSoC6\pdl\drivers/peripheral/gpio/cy_gpio.h ****                                                        (CY_GPIO_AMUX_R       == (amuxConnect)) || \
 382:Generated_Source\PSoC6\pdl\drivers/peripheral/gpio/cy_gpio.h ****                                                        (CY_GPIO_AMUX_LR      == (amuxConnect)) || \
 383:Generated_Source\PSoC6\pdl\drivers/peripheral/gpio/cy_gpio.h ****                                                        (CY_GPIO_AMUX_G       == (amuxConnect)) || \
ARM GAS  C:\Users\yomat\AppData\Local\Temp\cc0omv11.s 			page 76


 384:Generated_Source\PSoC6\pdl\drivers/peripheral/gpio/cy_gpio.h ****                                                        (CY_GPIO_AMUX_GL      == (amuxConnect)) || \
 385:Generated_Source\PSoC6\pdl\drivers/peripheral/gpio/cy_gpio.h ****                                                        (CY_GPIO_AMUX_GR      == (amuxConnect)) || \
 386:Generated_Source\PSoC6\pdl\drivers/peripheral/gpio/cy_gpio.h ****                                                        (CY_GPIO_AMUX_GLR     == (amuxConnect)))
 387:Generated_Source\PSoC6\pdl\drivers/peripheral/gpio/cy_gpio.h **** 
 388:Generated_Source\PSoC6\pdl\drivers/peripheral/gpio/cy_gpio.h **** #define CY_GPIO_IS_AMUX_SELECT_VALID(amuxBus)       ((CY_GPIO_AMUXBUSA       == (amuxBus)) || \
 389:Generated_Source\PSoC6\pdl\drivers/peripheral/gpio/cy_gpio.h ****                                                      (CY_GPIO_AMUXBUSB       == (amuxBus)))
 390:Generated_Source\PSoC6\pdl\drivers/peripheral/gpio/cy_gpio.h **** /** \endcond */
 391:Generated_Source\PSoC6\pdl\drivers/peripheral/gpio/cy_gpio.h **** 
 392:Generated_Source\PSoC6\pdl\drivers/peripheral/gpio/cy_gpio.h **** 
 393:Generated_Source\PSoC6\pdl\drivers/peripheral/gpio/cy_gpio.h **** /***************************************
 394:Generated_Source\PSoC6\pdl\drivers/peripheral/gpio/cy_gpio.h **** *        Function Constants
 395:Generated_Source\PSoC6\pdl\drivers/peripheral/gpio/cy_gpio.h **** ***************************************/
 396:Generated_Source\PSoC6\pdl\drivers/peripheral/gpio/cy_gpio.h **** 
 397:Generated_Source\PSoC6\pdl\drivers/peripheral/gpio/cy_gpio.h **** /**
 398:Generated_Source\PSoC6\pdl\drivers/peripheral/gpio/cy_gpio.h **** * \addtogroup group_gpio_macros
 399:Generated_Source\PSoC6\pdl\drivers/peripheral/gpio/cy_gpio.h **** * \{
 400:Generated_Source\PSoC6\pdl\drivers/peripheral/gpio/cy_gpio.h **** */
 401:Generated_Source\PSoC6\pdl\drivers/peripheral/gpio/cy_gpio.h **** 
 402:Generated_Source\PSoC6\pdl\drivers/peripheral/gpio/cy_gpio.h **** /**
 403:Generated_Source\PSoC6\pdl\drivers/peripheral/gpio/cy_gpio.h **** * \defgroup group_gpio_driveModes Pin drive mode
 404:Generated_Source\PSoC6\pdl\drivers/peripheral/gpio/cy_gpio.h **** * \{
 405:Generated_Source\PSoC6\pdl\drivers/peripheral/gpio/cy_gpio.h **** * Constants to be used for setting the drive mode of the pin.
 406:Generated_Source\PSoC6\pdl\drivers/peripheral/gpio/cy_gpio.h **** */
 407:Generated_Source\PSoC6\pdl\drivers/peripheral/gpio/cy_gpio.h **** #define CY_GPIO_DM_ANALOG                      (0x00UL) /**< Analog High-Z. Input buffer off */
 408:Generated_Source\PSoC6\pdl\drivers/peripheral/gpio/cy_gpio.h **** #define CY_GPIO_DM_PULLUP_IN_OFF               (0x02UL) /**< Resistive Pull-Up. Input buffer off */
 409:Generated_Source\PSoC6\pdl\drivers/peripheral/gpio/cy_gpio.h **** #define CY_GPIO_DM_PULLDOWN_IN_OFF             (0x03UL) /**< Resistive Pull-Down. Input buffer off 
 410:Generated_Source\PSoC6\pdl\drivers/peripheral/gpio/cy_gpio.h **** #define CY_GPIO_DM_OD_DRIVESLOW_IN_OFF         (0x04UL) /**< Open Drain, Drives Low. Input buffer o
 411:Generated_Source\PSoC6\pdl\drivers/peripheral/gpio/cy_gpio.h **** #define CY_GPIO_DM_OD_DRIVESHIGH_IN_OFF        (0x05UL) /**< Open Drain, Drives High. Input buffer 
 412:Generated_Source\PSoC6\pdl\drivers/peripheral/gpio/cy_gpio.h **** #define CY_GPIO_DM_STRONG_IN_OFF               (0x06UL) /**< Strong Drive. Input buffer off */
 413:Generated_Source\PSoC6\pdl\drivers/peripheral/gpio/cy_gpio.h **** #define CY_GPIO_DM_PULLUP_DOWN_IN_OFF          (0x07UL) /**< Resistive Pull-Up/Down. Input buffer o
 414:Generated_Source\PSoC6\pdl\drivers/peripheral/gpio/cy_gpio.h **** #define CY_GPIO_DM_HIGHZ                       (0x08UL) /**< Digital High-Z. Input buffer on */
 415:Generated_Source\PSoC6\pdl\drivers/peripheral/gpio/cy_gpio.h **** #define CY_GPIO_DM_PULLUP                      (0x0AUL) /**< Resistive Pull-Up. Input buffer on */
 416:Generated_Source\PSoC6\pdl\drivers/peripheral/gpio/cy_gpio.h **** #define CY_GPIO_DM_PULLDOWN                    (0x0BUL) /**< Resistive Pull-Down. Input buffer on *
 417:Generated_Source\PSoC6\pdl\drivers/peripheral/gpio/cy_gpio.h **** #define CY_GPIO_DM_OD_DRIVESLOW                (0x0CUL) /**< Open Drain, Drives Low. Input buffer o
 418:Generated_Source\PSoC6\pdl\drivers/peripheral/gpio/cy_gpio.h **** #define CY_GPIO_DM_OD_DRIVESHIGH               (0x0DUL) /**< Open Drain, Drives High. Input buffer 
 419:Generated_Source\PSoC6\pdl\drivers/peripheral/gpio/cy_gpio.h **** #define CY_GPIO_DM_STRONG                      (0x0EUL) /**< Strong Drive. Input buffer on */
 420:Generated_Source\PSoC6\pdl\drivers/peripheral/gpio/cy_gpio.h **** #define CY_GPIO_DM_PULLUP_DOWN                 (0x0FUL) /**< Resistive Pull-Up/Down. Input buffer o
 421:Generated_Source\PSoC6\pdl\drivers/peripheral/gpio/cy_gpio.h **** /** \} */
 422:Generated_Source\PSoC6\pdl\drivers/peripheral/gpio/cy_gpio.h **** 
 423:Generated_Source\PSoC6\pdl\drivers/peripheral/gpio/cy_gpio.h **** /**
 424:Generated_Source\PSoC6\pdl\drivers/peripheral/gpio/cy_gpio.h **** * \defgroup group_gpio_vtrip Voltage trip mode
 425:Generated_Source\PSoC6\pdl\drivers/peripheral/gpio/cy_gpio.h **** * \{
 426:Generated_Source\PSoC6\pdl\drivers/peripheral/gpio/cy_gpio.h **** * Constants to be used for setting the voltage trip type on the pin.
 427:Generated_Source\PSoC6\pdl\drivers/peripheral/gpio/cy_gpio.h **** */
 428:Generated_Source\PSoC6\pdl\drivers/peripheral/gpio/cy_gpio.h **** #define CY_GPIO_VTRIP_CMOS                     (0x00UL) /**< Input buffer compatible with CMOS and 
 429:Generated_Source\PSoC6\pdl\drivers/peripheral/gpio/cy_gpio.h **** #define CY_GPIO_VTRIP_TTL                      (0x01UL) /**< Input buffer compatible with TTL and M
 430:Generated_Source\PSoC6\pdl\drivers/peripheral/gpio/cy_gpio.h **** /** \} */
 431:Generated_Source\PSoC6\pdl\drivers/peripheral/gpio/cy_gpio.h **** 
 432:Generated_Source\PSoC6\pdl\drivers/peripheral/gpio/cy_gpio.h **** /**
 433:Generated_Source\PSoC6\pdl\drivers/peripheral/gpio/cy_gpio.h **** * \defgroup group_gpio_slewRate Slew Rate Mode
 434:Generated_Source\PSoC6\pdl\drivers/peripheral/gpio/cy_gpio.h **** * \{
 435:Generated_Source\PSoC6\pdl\drivers/peripheral/gpio/cy_gpio.h **** * Constants to be used for setting the slew rate of the pin.
 436:Generated_Source\PSoC6\pdl\drivers/peripheral/gpio/cy_gpio.h **** */
 437:Generated_Source\PSoC6\pdl\drivers/peripheral/gpio/cy_gpio.h **** #define CY_GPIO_SLEW_FAST                      (0x00UL) /**< Fast slew rate */
 438:Generated_Source\PSoC6\pdl\drivers/peripheral/gpio/cy_gpio.h **** #define CY_GPIO_SLEW_SLOW                      (0x01UL) /**< Slow slew rate */
 439:Generated_Source\PSoC6\pdl\drivers/peripheral/gpio/cy_gpio.h **** /** \} */
 440:Generated_Source\PSoC6\pdl\drivers/peripheral/gpio/cy_gpio.h **** 
ARM GAS  C:\Users\yomat\AppData\Local\Temp\cc0omv11.s 			page 77


 441:Generated_Source\PSoC6\pdl\drivers/peripheral/gpio/cy_gpio.h **** /**
 442:Generated_Source\PSoC6\pdl\drivers/peripheral/gpio/cy_gpio.h **** * \defgroup group_gpio_driveStrength Pin drive strength
 443:Generated_Source\PSoC6\pdl\drivers/peripheral/gpio/cy_gpio.h **** * \{
 444:Generated_Source\PSoC6\pdl\drivers/peripheral/gpio/cy_gpio.h **** * Constants to be used for setting the drive strength of the pin.
 445:Generated_Source\PSoC6\pdl\drivers/peripheral/gpio/cy_gpio.h **** */
 446:Generated_Source\PSoC6\pdl\drivers/peripheral/gpio/cy_gpio.h **** #define CY_GPIO_DRIVE_FULL                     (0x00UL) /**< Full drive strength: Max drive current
 447:Generated_Source\PSoC6\pdl\drivers/peripheral/gpio/cy_gpio.h **** #define CY_GPIO_DRIVE_1_2                      (0x01UL) /**< 1/2 drive strength: 1/2 drive current 
 448:Generated_Source\PSoC6\pdl\drivers/peripheral/gpio/cy_gpio.h **** #define CY_GPIO_DRIVE_1_4                      (0x02UL) /**< 1/4 drive strength: 1/4 drive current 
 449:Generated_Source\PSoC6\pdl\drivers/peripheral/gpio/cy_gpio.h **** #define CY_GPIO_DRIVE_1_8                      (0x03UL) /**< 1/8 drive strength: 1/8 drive current 
 450:Generated_Source\PSoC6\pdl\drivers/peripheral/gpio/cy_gpio.h **** /** \} */
 451:Generated_Source\PSoC6\pdl\drivers/peripheral/gpio/cy_gpio.h **** 
 452:Generated_Source\PSoC6\pdl\drivers/peripheral/gpio/cy_gpio.h **** /**
 453:Generated_Source\PSoC6\pdl\drivers/peripheral/gpio/cy_gpio.h **** * \defgroup group_gpio_interruptTrigger Interrupt trigger type
 454:Generated_Source\PSoC6\pdl\drivers/peripheral/gpio/cy_gpio.h **** * \{
 455:Generated_Source\PSoC6\pdl\drivers/peripheral/gpio/cy_gpio.h **** * Constants to be used for setting the interrupt trigger type on the pin.
 456:Generated_Source\PSoC6\pdl\drivers/peripheral/gpio/cy_gpio.h **** */
 457:Generated_Source\PSoC6\pdl\drivers/peripheral/gpio/cy_gpio.h **** #define CY_GPIO_INTR_DISABLE                   (0x00UL) /**< Disable the pin interrupt generation *
 458:Generated_Source\PSoC6\pdl\drivers/peripheral/gpio/cy_gpio.h **** #define CY_GPIO_INTR_RISING                    (0x01UL) /**< Rising-Edge interrupt */
 459:Generated_Source\PSoC6\pdl\drivers/peripheral/gpio/cy_gpio.h **** #define CY_GPIO_INTR_FALLING                   (0x02UL) /**< Falling-Edge interrupt */
 460:Generated_Source\PSoC6\pdl\drivers/peripheral/gpio/cy_gpio.h **** #define CY_GPIO_INTR_BOTH                      (0x03UL) /**< Both-Edge interrupt */
 461:Generated_Source\PSoC6\pdl\drivers/peripheral/gpio/cy_gpio.h **** /** \} */
 462:Generated_Source\PSoC6\pdl\drivers/peripheral/gpio/cy_gpio.h **** 
 463:Generated_Source\PSoC6\pdl\drivers/peripheral/gpio/cy_gpio.h **** /**
 464:Generated_Source\PSoC6\pdl\drivers/peripheral/gpio/cy_gpio.h **** * \defgroup group_gpio_sioVreg SIO output buffer mode
 465:Generated_Source\PSoC6\pdl\drivers/peripheral/gpio/cy_gpio.h **** * \{
 466:Generated_Source\PSoC6\pdl\drivers/peripheral/gpio/cy_gpio.h **** * Constants to be used for setting the SIO output buffer mode on the pin.
 467:Generated_Source\PSoC6\pdl\drivers/peripheral/gpio/cy_gpio.h **** */
 468:Generated_Source\PSoC6\pdl\drivers/peripheral/gpio/cy_gpio.h **** #define CY_SIO_VREG_UNREGULATED                (0x00UL) /**< Unregulated output buffer */
 469:Generated_Source\PSoC6\pdl\drivers/peripheral/gpio/cy_gpio.h **** #define CY_SIO_VREG_REGULATED                  (0x01UL) /**< Regulated output buffer */
 470:Generated_Source\PSoC6\pdl\drivers/peripheral/gpio/cy_gpio.h **** /** \} */
 471:Generated_Source\PSoC6\pdl\drivers/peripheral/gpio/cy_gpio.h **** 
 472:Generated_Source\PSoC6\pdl\drivers/peripheral/gpio/cy_gpio.h **** /**
 473:Generated_Source\PSoC6\pdl\drivers/peripheral/gpio/cy_gpio.h **** * \defgroup group_gpio_sioIbuf SIO input buffer mode
 474:Generated_Source\PSoC6\pdl\drivers/peripheral/gpio/cy_gpio.h **** * \{
 475:Generated_Source\PSoC6\pdl\drivers/peripheral/gpio/cy_gpio.h **** * Constants to be used for setting the SIO input buffer mode on the pin.
 476:Generated_Source\PSoC6\pdl\drivers/peripheral/gpio/cy_gpio.h **** */
 477:Generated_Source\PSoC6\pdl\drivers/peripheral/gpio/cy_gpio.h **** #define CY_SIO_IBUF_SINGLEENDED                (0x00UL) /**< Single ended input buffer */
 478:Generated_Source\PSoC6\pdl\drivers/peripheral/gpio/cy_gpio.h **** #define CY_SIO_IBUF_DIFFERENTIAL               (0x01UL) /**< Differential input buffer */
 479:Generated_Source\PSoC6\pdl\drivers/peripheral/gpio/cy_gpio.h **** /** \} */
 480:Generated_Source\PSoC6\pdl\drivers/peripheral/gpio/cy_gpio.h **** 
 481:Generated_Source\PSoC6\pdl\drivers/peripheral/gpio/cy_gpio.h **** /**
 482:Generated_Source\PSoC6\pdl\drivers/peripheral/gpio/cy_gpio.h **** * \defgroup group_gpio_sioVtrip SIO input buffer trip-point
 483:Generated_Source\PSoC6\pdl\drivers/peripheral/gpio/cy_gpio.h **** * \{
 484:Generated_Source\PSoC6\pdl\drivers/peripheral/gpio/cy_gpio.h **** * Constants to be used for setting the SIO input buffer trip-point of the pin.
 485:Generated_Source\PSoC6\pdl\drivers/peripheral/gpio/cy_gpio.h **** */
 486:Generated_Source\PSoC6\pdl\drivers/peripheral/gpio/cy_gpio.h **** #define CY_SIO_VTRIP_CMOS                      (0x00UL) /**< CMOS input buffer (single-ended) */
 487:Generated_Source\PSoC6\pdl\drivers/peripheral/gpio/cy_gpio.h **** #define CY_SIO_VTRIP_TTL                       (0x01UL) /**< TTL input buffer (single-ended) */
 488:Generated_Source\PSoC6\pdl\drivers/peripheral/gpio/cy_gpio.h **** #define CY_SIO_VTRIP_0_5VDDIO_0_5VOH           (0x00UL) /**< 0.5xVddio or 0.5xVoh (differential) */
 489:Generated_Source\PSoC6\pdl\drivers/peripheral/gpio/cy_gpio.h **** #define CY_SIO_VTRIP_0_4VDDIO_1_0VREF          (0x01UL) /**< 0.4xVddio or 0.4xVoh (differential) */
 490:Generated_Source\PSoC6\pdl\drivers/peripheral/gpio/cy_gpio.h **** /** \} */
 491:Generated_Source\PSoC6\pdl\drivers/peripheral/gpio/cy_gpio.h **** 
 492:Generated_Source\PSoC6\pdl\drivers/peripheral/gpio/cy_gpio.h **** /**
 493:Generated_Source\PSoC6\pdl\drivers/peripheral/gpio/cy_gpio.h **** * \defgroup group_gpio_sioVref SIO reference voltage for input buffer trip-point
 494:Generated_Source\PSoC6\pdl\drivers/peripheral/gpio/cy_gpio.h **** * \{
 495:Generated_Source\PSoC6\pdl\drivers/peripheral/gpio/cy_gpio.h **** * Constants to be used for setting the reference voltage of SIO input buffer trip-point.
 496:Generated_Source\PSoC6\pdl\drivers/peripheral/gpio/cy_gpio.h **** */
 497:Generated_Source\PSoC6\pdl\drivers/peripheral/gpio/cy_gpio.h **** #define CY_SIO_VREF_PINREF                     (0x00UL) /**< Vref from analog pin */
ARM GAS  C:\Users\yomat\AppData\Local\Temp\cc0omv11.s 			page 78


 498:Generated_Source\PSoC6\pdl\drivers/peripheral/gpio/cy_gpio.h **** #define CY_SIO_VREF_1_2V                       (0x01UL) /**< Vref from internal 1.2V reference */
 499:Generated_Source\PSoC6\pdl\drivers/peripheral/gpio/cy_gpio.h **** #define CY_SIO_VREF_AMUX_A                     (0x02UL) /**< Vref from AMUXBUS_A */
 500:Generated_Source\PSoC6\pdl\drivers/peripheral/gpio/cy_gpio.h **** #define CY_SIO_VREF_AMUX_B                     (0x03UL) /**< Vref from AMUXBUS_B */
 501:Generated_Source\PSoC6\pdl\drivers/peripheral/gpio/cy_gpio.h **** /** \} */
 502:Generated_Source\PSoC6\pdl\drivers/peripheral/gpio/cy_gpio.h **** 
 503:Generated_Source\PSoC6\pdl\drivers/peripheral/gpio/cy_gpio.h **** /**
 504:Generated_Source\PSoC6\pdl\drivers/peripheral/gpio/cy_gpio.h **** * \defgroup group_gpio_sioVoh Regulated output voltage level (Voh) and input buffer trip-point of a
 505:Generated_Source\PSoC6\pdl\drivers/peripheral/gpio/cy_gpio.h **** * \{
 506:Generated_Source\PSoC6\pdl\drivers/peripheral/gpio/cy_gpio.h **** * Constants to be used for setting the Voh and input buffer trip-point of an SIO pair
 507:Generated_Source\PSoC6\pdl\drivers/peripheral/gpio/cy_gpio.h **** */
 508:Generated_Source\PSoC6\pdl\drivers/peripheral/gpio/cy_gpio.h **** #define CY_SIO_VOH_1_00                        (0x00UL) /**< Voh = 1 x Reference */
 509:Generated_Source\PSoC6\pdl\drivers/peripheral/gpio/cy_gpio.h **** #define CY_SIO_VOH_1_25                        (0x01UL) /**< Voh = 1.25 x Reference */
 510:Generated_Source\PSoC6\pdl\drivers/peripheral/gpio/cy_gpio.h **** #define CY_SIO_VOH_1_49                        (0x02UL) /**< Voh = 1.49 x Reference */
 511:Generated_Source\PSoC6\pdl\drivers/peripheral/gpio/cy_gpio.h **** #define CY_SIO_VOH_1_67                        (0x03UL) /**< Voh = 1.67 x Reference */
 512:Generated_Source\PSoC6\pdl\drivers/peripheral/gpio/cy_gpio.h **** #define CY_SIO_VOH_2_08                        (0x04UL) /**< Voh = 2.08 x Reference */
 513:Generated_Source\PSoC6\pdl\drivers/peripheral/gpio/cy_gpio.h **** #define CY_SIO_VOH_2_50                        (0x05UL) /**< Voh = 2.50 x Reference */
 514:Generated_Source\PSoC6\pdl\drivers/peripheral/gpio/cy_gpio.h **** #define CY_SIO_VOH_2_78                        (0x06UL) /**< Voh = 2.78 x Reference */
 515:Generated_Source\PSoC6\pdl\drivers/peripheral/gpio/cy_gpio.h **** #define CY_SIO_VOH_4_16                        (0x07UL) /**< Voh = 4.16 x Reference */
 516:Generated_Source\PSoC6\pdl\drivers/peripheral/gpio/cy_gpio.h **** /** \} */
 517:Generated_Source\PSoC6\pdl\drivers/peripheral/gpio/cy_gpio.h **** 
 518:Generated_Source\PSoC6\pdl\drivers/peripheral/gpio/cy_gpio.h **** /** \} group_gpio_macros */
 519:Generated_Source\PSoC6\pdl\drivers/peripheral/gpio/cy_gpio.h **** 
 520:Generated_Source\PSoC6\pdl\drivers/peripheral/gpio/cy_gpio.h **** /***************************************
 521:Generated_Source\PSoC6\pdl\drivers/peripheral/gpio/cy_gpio.h **** *        Function Prototypes
 522:Generated_Source\PSoC6\pdl\drivers/peripheral/gpio/cy_gpio.h **** ***************************************/
 523:Generated_Source\PSoC6\pdl\drivers/peripheral/gpio/cy_gpio.h **** 
 524:Generated_Source\PSoC6\pdl\drivers/peripheral/gpio/cy_gpio.h **** /**
 525:Generated_Source\PSoC6\pdl\drivers/peripheral/gpio/cy_gpio.h **** * \addtogroup group_gpio_functions
 526:Generated_Source\PSoC6\pdl\drivers/peripheral/gpio/cy_gpio.h **** * \{
 527:Generated_Source\PSoC6\pdl\drivers/peripheral/gpio/cy_gpio.h **** */
 528:Generated_Source\PSoC6\pdl\drivers/peripheral/gpio/cy_gpio.h **** 
 529:Generated_Source\PSoC6\pdl\drivers/peripheral/gpio/cy_gpio.h **** /**
 530:Generated_Source\PSoC6\pdl\drivers/peripheral/gpio/cy_gpio.h **** * \addtogroup group_gpio_functions_init
 531:Generated_Source\PSoC6\pdl\drivers/peripheral/gpio/cy_gpio.h **** * \{
 532:Generated_Source\PSoC6\pdl\drivers/peripheral/gpio/cy_gpio.h **** */
 533:Generated_Source\PSoC6\pdl\drivers/peripheral/gpio/cy_gpio.h **** 
 534:Generated_Source\PSoC6\pdl\drivers/peripheral/gpio/cy_gpio.h **** cy_en_gpio_status_t Cy_GPIO_Pin_Init(GPIO_PRT_Type* base, uint32_t pinNum, const cy_stc_gpio_pin_co
 535:Generated_Source\PSoC6\pdl\drivers/peripheral/gpio/cy_gpio.h **** cy_en_gpio_status_t Cy_GPIO_Port_Init(GPIO_PRT_Type* base, const cy_stc_gpio_prt_config_t *config);
 536:Generated_Source\PSoC6\pdl\drivers/peripheral/gpio/cy_gpio.h **** void Cy_GPIO_Pin_FastInit(GPIO_PRT_Type* base, uint32_t pinNum, uint32_t driveMode, uint32_t outVal
 537:Generated_Source\PSoC6\pdl\drivers/peripheral/gpio/cy_gpio.h **** void Cy_GPIO_Port_Deinit(GPIO_PRT_Type* base);
 538:Generated_Source\PSoC6\pdl\drivers/peripheral/gpio/cy_gpio.h **** __STATIC_INLINE void Cy_GPIO_SetHSIOM(GPIO_PRT_Type* base, uint32_t pinNum, en_hsiom_sel_t value);
 539:Generated_Source\PSoC6\pdl\drivers/peripheral/gpio/cy_gpio.h **** __STATIC_INLINE en_hsiom_sel_t Cy_GPIO_GetHSIOM(GPIO_PRT_Type* base, uint32_t pinNum);
 540:Generated_Source\PSoC6\pdl\drivers/peripheral/gpio/cy_gpio.h **** __STATIC_INLINE GPIO_PRT_Type* Cy_GPIO_PortToAddr(uint32_t portNum);
 541:Generated_Source\PSoC6\pdl\drivers/peripheral/gpio/cy_gpio.h **** 
 542:Generated_Source\PSoC6\pdl\drivers/peripheral/gpio/cy_gpio.h **** /** \} group_gpio_functions_init */
 543:Generated_Source\PSoC6\pdl\drivers/peripheral/gpio/cy_gpio.h **** 
 544:Generated_Source\PSoC6\pdl\drivers/peripheral/gpio/cy_gpio.h **** /**
 545:Generated_Source\PSoC6\pdl\drivers/peripheral/gpio/cy_gpio.h **** * \addtogroup group_gpio_functions_gpio
 546:Generated_Source\PSoC6\pdl\drivers/peripheral/gpio/cy_gpio.h **** * \{
 547:Generated_Source\PSoC6\pdl\drivers/peripheral/gpio/cy_gpio.h **** */
 548:Generated_Source\PSoC6\pdl\drivers/peripheral/gpio/cy_gpio.h **** 
 549:Generated_Source\PSoC6\pdl\drivers/peripheral/gpio/cy_gpio.h **** void Cy_GPIO_SetAmuxSplit(cy_en_amux_split_t switchCtrl, cy_en_gpio_amuxconnect_t amuxConnect, cy_e
 550:Generated_Source\PSoC6\pdl\drivers/peripheral/gpio/cy_gpio.h **** cy_en_gpio_amuxconnect_t Cy_GPIO_GetAmuxSplit(cy_en_amux_split_t switchCtrl, cy_en_gpio_amuxselect_
 551:Generated_Source\PSoC6\pdl\drivers/peripheral/gpio/cy_gpio.h **** 
 552:Generated_Source\PSoC6\pdl\drivers/peripheral/gpio/cy_gpio.h **** __STATIC_INLINE uint32_t Cy_GPIO_Read(GPIO_PRT_Type* base, uint32_t pinNum);
 553:Generated_Source\PSoC6\pdl\drivers/peripheral/gpio/cy_gpio.h **** __STATIC_INLINE void Cy_GPIO_Write(GPIO_PRT_Type* base, uint32_t pinNum, uint32_t value);
 554:Generated_Source\PSoC6\pdl\drivers/peripheral/gpio/cy_gpio.h **** __STATIC_INLINE uint32_t Cy_GPIO_ReadOut(GPIO_PRT_Type* base, uint32_t pinNum);
ARM GAS  C:\Users\yomat\AppData\Local\Temp\cc0omv11.s 			page 79


 555:Generated_Source\PSoC6\pdl\drivers/peripheral/gpio/cy_gpio.h **** __STATIC_INLINE void Cy_GPIO_Set(GPIO_PRT_Type* base, uint32_t pinNum);
 556:Generated_Source\PSoC6\pdl\drivers/peripheral/gpio/cy_gpio.h **** __STATIC_INLINE void Cy_GPIO_Clr(GPIO_PRT_Type* base, uint32_t pinNum);
 557:Generated_Source\PSoC6\pdl\drivers/peripheral/gpio/cy_gpio.h **** __STATIC_INLINE void Cy_GPIO_Inv(GPIO_PRT_Type* base, uint32_t pinNum);
 558:Generated_Source\PSoC6\pdl\drivers/peripheral/gpio/cy_gpio.h **** __STATIC_INLINE void Cy_GPIO_SetDrivemode(GPIO_PRT_Type* base, uint32_t pinNum, uint32_t value);
 559:Generated_Source\PSoC6\pdl\drivers/peripheral/gpio/cy_gpio.h **** __STATIC_INLINE uint32_t Cy_GPIO_GetDrivemode(GPIO_PRT_Type* base, uint32_t pinNum);
 560:Generated_Source\PSoC6\pdl\drivers/peripheral/gpio/cy_gpio.h **** __STATIC_INLINE void Cy_GPIO_SetVtrip(GPIO_PRT_Type* base, uint32_t pinNum, uint32_t value);
 561:Generated_Source\PSoC6\pdl\drivers/peripheral/gpio/cy_gpio.h **** __STATIC_INLINE uint32_t Cy_GPIO_GetVtrip(GPIO_PRT_Type* base, uint32_t pinNum);
 562:Generated_Source\PSoC6\pdl\drivers/peripheral/gpio/cy_gpio.h **** __STATIC_INLINE void Cy_GPIO_SetSlewRate(GPIO_PRT_Type* base, uint32_t pinNum, uint32_t value);
 563:Generated_Source\PSoC6\pdl\drivers/peripheral/gpio/cy_gpio.h **** __STATIC_INLINE uint32_t Cy_GPIO_GetSlewRate(GPIO_PRT_Type* base, uint32_t pinNum);
 564:Generated_Source\PSoC6\pdl\drivers/peripheral/gpio/cy_gpio.h **** __STATIC_INLINE void Cy_GPIO_SetDriveSel(GPIO_PRT_Type* base, uint32_t pinNum, uint32_t value);
 565:Generated_Source\PSoC6\pdl\drivers/peripheral/gpio/cy_gpio.h **** __STATIC_INLINE uint32_t Cy_GPIO_GetDriveSel(GPIO_PRT_Type* base, uint32_t pinNum);
 566:Generated_Source\PSoC6\pdl\drivers/peripheral/gpio/cy_gpio.h **** 
 567:Generated_Source\PSoC6\pdl\drivers/peripheral/gpio/cy_gpio.h **** /** \} group_gpio_functions_gpio */
 568:Generated_Source\PSoC6\pdl\drivers/peripheral/gpio/cy_gpio.h **** 
 569:Generated_Source\PSoC6\pdl\drivers/peripheral/gpio/cy_gpio.h **** /**
 570:Generated_Source\PSoC6\pdl\drivers/peripheral/gpio/cy_gpio.h **** * \addtogroup group_gpio_functions_sio
 571:Generated_Source\PSoC6\pdl\drivers/peripheral/gpio/cy_gpio.h **** * \{
 572:Generated_Source\PSoC6\pdl\drivers/peripheral/gpio/cy_gpio.h **** */
 573:Generated_Source\PSoC6\pdl\drivers/peripheral/gpio/cy_gpio.h **** 
 574:Generated_Source\PSoC6\pdl\drivers/peripheral/gpio/cy_gpio.h **** __STATIC_INLINE void Cy_GPIO_SetVregEn(GPIO_PRT_Type* base, uint32_t pinNum, uint32_t value);
 575:Generated_Source\PSoC6\pdl\drivers/peripheral/gpio/cy_gpio.h **** __STATIC_INLINE uint32_t Cy_GPIO_GetVregEn(GPIO_PRT_Type* base, uint32_t pinNum);
 576:Generated_Source\PSoC6\pdl\drivers/peripheral/gpio/cy_gpio.h **** __STATIC_INLINE void Cy_GPIO_SetIbufMode(GPIO_PRT_Type* base, uint32_t pinNum, uint32_t value);
 577:Generated_Source\PSoC6\pdl\drivers/peripheral/gpio/cy_gpio.h **** __STATIC_INLINE uint32_t Cy_GPIO_GetIbufMode(GPIO_PRT_Type* base, uint32_t pinNum);
 578:Generated_Source\PSoC6\pdl\drivers/peripheral/gpio/cy_gpio.h **** __STATIC_INLINE void Cy_GPIO_SetVtripSel(GPIO_PRT_Type* base, uint32_t pinNum, uint32_t value);
 579:Generated_Source\PSoC6\pdl\drivers/peripheral/gpio/cy_gpio.h **** __STATIC_INLINE uint32_t Cy_GPIO_GetVtripSel(GPIO_PRT_Type* base, uint32_t pinNum);
 580:Generated_Source\PSoC6\pdl\drivers/peripheral/gpio/cy_gpio.h **** __STATIC_INLINE void Cy_GPIO_SetVrefSel(GPIO_PRT_Type* base, uint32_t pinNum, uint32_t value);
 581:Generated_Source\PSoC6\pdl\drivers/peripheral/gpio/cy_gpio.h **** __STATIC_INLINE uint32_t Cy_GPIO_GetVrefSel(GPIO_PRT_Type* base, uint32_t pinNum);
 582:Generated_Source\PSoC6\pdl\drivers/peripheral/gpio/cy_gpio.h **** __STATIC_INLINE void Cy_GPIO_SetVohSel(GPIO_PRT_Type* base, uint32_t pinNum, uint32_t value);
 583:Generated_Source\PSoC6\pdl\drivers/peripheral/gpio/cy_gpio.h **** __STATIC_INLINE uint32_t Cy_GPIO_GetVohSel(GPIO_PRT_Type* base, uint32_t pinNum);
 584:Generated_Source\PSoC6\pdl\drivers/peripheral/gpio/cy_gpio.h **** 
 585:Generated_Source\PSoC6\pdl\drivers/peripheral/gpio/cy_gpio.h **** /** \} group_gpio_functions_sio */
 586:Generated_Source\PSoC6\pdl\drivers/peripheral/gpio/cy_gpio.h **** 
 587:Generated_Source\PSoC6\pdl\drivers/peripheral/gpio/cy_gpio.h **** /**
 588:Generated_Source\PSoC6\pdl\drivers/peripheral/gpio/cy_gpio.h **** * \addtogroup group_gpio_functions_interrupt
 589:Generated_Source\PSoC6\pdl\drivers/peripheral/gpio/cy_gpio.h **** * \{
 590:Generated_Source\PSoC6\pdl\drivers/peripheral/gpio/cy_gpio.h **** */
 591:Generated_Source\PSoC6\pdl\drivers/peripheral/gpio/cy_gpio.h **** 
 592:Generated_Source\PSoC6\pdl\drivers/peripheral/gpio/cy_gpio.h **** __STATIC_INLINE uint32_t Cy_GPIO_GetInterruptStatus(GPIO_PRT_Type* base, uint32_t pinNum);
 593:Generated_Source\PSoC6\pdl\drivers/peripheral/gpio/cy_gpio.h **** __STATIC_INLINE void Cy_GPIO_ClearInterrupt(GPIO_PRT_Type* base, uint32_t pinNum);
 594:Generated_Source\PSoC6\pdl\drivers/peripheral/gpio/cy_gpio.h **** __STATIC_INLINE void Cy_GPIO_SetInterruptMask(GPIO_PRT_Type* base, uint32_t pinNum, uint32_t value)
 595:Generated_Source\PSoC6\pdl\drivers/peripheral/gpio/cy_gpio.h **** __STATIC_INLINE uint32_t Cy_GPIO_GetInterruptMask(GPIO_PRT_Type* base, uint32_t pinNum);
 596:Generated_Source\PSoC6\pdl\drivers/peripheral/gpio/cy_gpio.h **** __STATIC_INLINE uint32_t Cy_GPIO_GetInterruptStatusMasked(GPIO_PRT_Type* base, uint32_t pinNum);
 597:Generated_Source\PSoC6\pdl\drivers/peripheral/gpio/cy_gpio.h **** __STATIC_INLINE void Cy_GPIO_SetSwInterrupt(GPIO_PRT_Type* base, uint32_t pinNum);
 598:Generated_Source\PSoC6\pdl\drivers/peripheral/gpio/cy_gpio.h **** __STATIC_INLINE void Cy_GPIO_SetInterruptEdge(GPIO_PRT_Type* base, uint32_t pinNum, uint32_t value)
 599:Generated_Source\PSoC6\pdl\drivers/peripheral/gpio/cy_gpio.h **** __STATIC_INLINE uint32_t Cy_GPIO_GetInterruptEdge(GPIO_PRT_Type* base, uint32_t pinNum);
 600:Generated_Source\PSoC6\pdl\drivers/peripheral/gpio/cy_gpio.h **** __STATIC_INLINE void Cy_GPIO_SetFilter(GPIO_PRT_Type* base, uint32_t value);
 601:Generated_Source\PSoC6\pdl\drivers/peripheral/gpio/cy_gpio.h **** __STATIC_INLINE uint32_t Cy_GPIO_GetFilter(GPIO_PRT_Type* base);
 602:Generated_Source\PSoC6\pdl\drivers/peripheral/gpio/cy_gpio.h **** 
 603:Generated_Source\PSoC6\pdl\drivers/peripheral/gpio/cy_gpio.h **** __STATIC_INLINE uint32_t Cy_GPIO_GetInterruptCause0(void);
 604:Generated_Source\PSoC6\pdl\drivers/peripheral/gpio/cy_gpio.h **** __STATIC_INLINE uint32_t Cy_GPIO_GetInterruptCause1(void);
 605:Generated_Source\PSoC6\pdl\drivers/peripheral/gpio/cy_gpio.h **** __STATIC_INLINE uint32_t Cy_GPIO_GetInterruptCause2(void);
 606:Generated_Source\PSoC6\pdl\drivers/peripheral/gpio/cy_gpio.h **** __STATIC_INLINE uint32_t Cy_GPIO_GetInterruptCause3(void);
 607:Generated_Source\PSoC6\pdl\drivers/peripheral/gpio/cy_gpio.h **** 
 608:Generated_Source\PSoC6\pdl\drivers/peripheral/gpio/cy_gpio.h **** /** \} group_gpio_functions_interrupt */
 609:Generated_Source\PSoC6\pdl\drivers/peripheral/gpio/cy_gpio.h **** 
 610:Generated_Source\PSoC6\pdl\drivers/peripheral/gpio/cy_gpio.h **** 
 611:Generated_Source\PSoC6\pdl\drivers/peripheral/gpio/cy_gpio.h **** /**
ARM GAS  C:\Users\yomat\AppData\Local\Temp\cc0omv11.s 			page 80


 612:Generated_Source\PSoC6\pdl\drivers/peripheral/gpio/cy_gpio.h **** * \addtogroup group_gpio_functions_init
 613:Generated_Source\PSoC6\pdl\drivers/peripheral/gpio/cy_gpio.h **** * \{
 614:Generated_Source\PSoC6\pdl\drivers/peripheral/gpio/cy_gpio.h **** */
 615:Generated_Source\PSoC6\pdl\drivers/peripheral/gpio/cy_gpio.h **** 
 616:Generated_Source\PSoC6\pdl\drivers/peripheral/gpio/cy_gpio.h **** /*******************************************************************************
 617:Generated_Source\PSoC6\pdl\drivers/peripheral/gpio/cy_gpio.h **** * Function Name: Cy_GPIO_SetHSIOM
 618:Generated_Source\PSoC6\pdl\drivers/peripheral/gpio/cy_gpio.h **** ****************************************************************************//**
 619:Generated_Source\PSoC6\pdl\drivers/peripheral/gpio/cy_gpio.h **** *
 620:Generated_Source\PSoC6\pdl\drivers/peripheral/gpio/cy_gpio.h **** * Configures the HSIOM connection to the pin.
 621:Generated_Source\PSoC6\pdl\drivers/peripheral/gpio/cy_gpio.h **** *
 622:Generated_Source\PSoC6\pdl\drivers/peripheral/gpio/cy_gpio.h **** * Connects the specified High-Speed Input Output Multiplexer (HSIOM) selection
 623:Generated_Source\PSoC6\pdl\drivers/peripheral/gpio/cy_gpio.h **** * to the pin.
 624:Generated_Source\PSoC6\pdl\drivers/peripheral/gpio/cy_gpio.h **** *
 625:Generated_Source\PSoC6\pdl\drivers/peripheral/gpio/cy_gpio.h **** * \param base
 626:Generated_Source\PSoC6\pdl\drivers/peripheral/gpio/cy_gpio.h **** * Pointer to the pin's port register base address
 627:Generated_Source\PSoC6\pdl\drivers/peripheral/gpio/cy_gpio.h **** *
 628:Generated_Source\PSoC6\pdl\drivers/peripheral/gpio/cy_gpio.h **** * \param pinNum
 629:Generated_Source\PSoC6\pdl\drivers/peripheral/gpio/cy_gpio.h **** * Position of the pin bit-field within the port register
 630:Generated_Source\PSoC6\pdl\drivers/peripheral/gpio/cy_gpio.h **** *
 631:Generated_Source\PSoC6\pdl\drivers/peripheral/gpio/cy_gpio.h **** * \param value
 632:Generated_Source\PSoC6\pdl\drivers/peripheral/gpio/cy_gpio.h **** * HSIOM input selection
 633:Generated_Source\PSoC6\pdl\drivers/peripheral/gpio/cy_gpio.h **** *
 634:Generated_Source\PSoC6\pdl\drivers/peripheral/gpio/cy_gpio.h **** * \note 
 635:Generated_Source\PSoC6\pdl\drivers/peripheral/gpio/cy_gpio.h **** * This function modifies a port register in a read-modify-write operation. It is
 636:Generated_Source\PSoC6\pdl\drivers/peripheral/gpio/cy_gpio.h **** * not thread safe as the resource is shared among multiple pins on a port.
 637:Generated_Source\PSoC6\pdl\drivers/peripheral/gpio/cy_gpio.h **** *
 638:Generated_Source\PSoC6\pdl\drivers/peripheral/gpio/cy_gpio.h **** * \funcusage
 639:Generated_Source\PSoC6\pdl\drivers/peripheral/gpio/cy_gpio.h **** * \snippet gpio/gpio_v1_10_sut_01.cydsn/main_cm4.c snippet_Cy_GPIO_SetHSIOM
 640:Generated_Source\PSoC6\pdl\drivers/peripheral/gpio/cy_gpio.h **** *
 641:Generated_Source\PSoC6\pdl\drivers/peripheral/gpio/cy_gpio.h **** *******************************************************************************/
 642:Generated_Source\PSoC6\pdl\drivers/peripheral/gpio/cy_gpio.h **** __STATIC_INLINE void Cy_GPIO_SetHSIOM(GPIO_PRT_Type* base, uint32_t pinNum, en_hsiom_sel_t value)
 643:Generated_Source\PSoC6\pdl\drivers/peripheral/gpio/cy_gpio.h **** {
 644:Generated_Source\PSoC6\pdl\drivers/peripheral/gpio/cy_gpio.h ****     uint32_t portNum;
 645:Generated_Source\PSoC6\pdl\drivers/peripheral/gpio/cy_gpio.h ****     uint32_t tempReg;
 646:Generated_Source\PSoC6\pdl\drivers/peripheral/gpio/cy_gpio.h ****     HSIOM_PRT_V1_Type* portAddrHSIOM;
 647:Generated_Source\PSoC6\pdl\drivers/peripheral/gpio/cy_gpio.h **** 
 648:Generated_Source\PSoC6\pdl\drivers/peripheral/gpio/cy_gpio.h ****     CY_ASSERT_L2(CY_GPIO_IS_PIN_VALID(pinNum));
 649:Generated_Source\PSoC6\pdl\drivers/peripheral/gpio/cy_gpio.h ****     CY_ASSERT_L2(CY_GPIO_IS_HSIOM_VALID(value));
 650:Generated_Source\PSoC6\pdl\drivers/peripheral/gpio/cy_gpio.h **** 
 651:Generated_Source\PSoC6\pdl\drivers/peripheral/gpio/cy_gpio.h ****     portNum = ((uint32_t)(base) - CY_GPIO_BASE) / GPIO_PRT_SECTION_SIZE;
 652:Generated_Source\PSoC6\pdl\drivers/peripheral/gpio/cy_gpio.h ****     portAddrHSIOM = (HSIOM_PRT_V1_Type*)(CY_HSIOM_BASE + (HSIOM_PRT_SECTION_SIZE * portNum));
 653:Generated_Source\PSoC6\pdl\drivers/peripheral/gpio/cy_gpio.h **** 
 654:Generated_Source\PSoC6\pdl\drivers/peripheral/gpio/cy_gpio.h ****     if(pinNum < CY_GPIO_PRT_HALF)
 655:Generated_Source\PSoC6\pdl\drivers/peripheral/gpio/cy_gpio.h ****     {
 656:Generated_Source\PSoC6\pdl\drivers/peripheral/gpio/cy_gpio.h ****         tempReg = HSIOM_PRT_PORT_SEL0(portAddrHSIOM) & ~(CY_GPIO_HSIOM_MASK << (pinNum << CY_GPIO_H
 657:Generated_Source\PSoC6\pdl\drivers/peripheral/gpio/cy_gpio.h ****         HSIOM_PRT_PORT_SEL0(portAddrHSIOM) = tempReg | ((value & CY_GPIO_HSIOM_MASK) << (pinNum << 
 658:Generated_Source\PSoC6\pdl\drivers/peripheral/gpio/cy_gpio.h ****     }
 659:Generated_Source\PSoC6\pdl\drivers/peripheral/gpio/cy_gpio.h ****     else
 660:Generated_Source\PSoC6\pdl\drivers/peripheral/gpio/cy_gpio.h ****     {
 661:Generated_Source\PSoC6\pdl\drivers/peripheral/gpio/cy_gpio.h ****         pinNum -= CY_GPIO_PRT_HALF;
 662:Generated_Source\PSoC6\pdl\drivers/peripheral/gpio/cy_gpio.h ****         tempReg = HSIOM_PRT_PORT_SEL1(portAddrHSIOM) & ~(CY_GPIO_HSIOM_MASK << (pinNum << CY_GPIO_H
 663:Generated_Source\PSoC6\pdl\drivers/peripheral/gpio/cy_gpio.h ****         HSIOM_PRT_PORT_SEL1(portAddrHSIOM) = tempReg | ((value & CY_GPIO_HSIOM_MASK) << (pinNum << 
 664:Generated_Source\PSoC6\pdl\drivers/peripheral/gpio/cy_gpio.h ****     }
 665:Generated_Source\PSoC6\pdl\drivers/peripheral/gpio/cy_gpio.h **** }
 666:Generated_Source\PSoC6\pdl\drivers/peripheral/gpio/cy_gpio.h **** 
 667:Generated_Source\PSoC6\pdl\drivers/peripheral/gpio/cy_gpio.h **** 
 668:Generated_Source\PSoC6\pdl\drivers/peripheral/gpio/cy_gpio.h **** /*******************************************************************************
ARM GAS  C:\Users\yomat\AppData\Local\Temp\cc0omv11.s 			page 81


 669:Generated_Source\PSoC6\pdl\drivers/peripheral/gpio/cy_gpio.h **** * Function Name: Cy_GPIO_GetHSIOM
 670:Generated_Source\PSoC6\pdl\drivers/peripheral/gpio/cy_gpio.h **** ****************************************************************************//**
 671:Generated_Source\PSoC6\pdl\drivers/peripheral/gpio/cy_gpio.h **** *
 672:Generated_Source\PSoC6\pdl\drivers/peripheral/gpio/cy_gpio.h **** * Returns the current HSIOM multiplexer connection to the pin.
 673:Generated_Source\PSoC6\pdl\drivers/peripheral/gpio/cy_gpio.h **** *
 674:Generated_Source\PSoC6\pdl\drivers/peripheral/gpio/cy_gpio.h **** * \param base
 675:Generated_Source\PSoC6\pdl\drivers/peripheral/gpio/cy_gpio.h **** * Pointer to the pin's port register base address
 676:Generated_Source\PSoC6\pdl\drivers/peripheral/gpio/cy_gpio.h **** *
 677:Generated_Source\PSoC6\pdl\drivers/peripheral/gpio/cy_gpio.h **** * \param pinNum
 678:Generated_Source\PSoC6\pdl\drivers/peripheral/gpio/cy_gpio.h **** * Position of the pin bit-field within the port register
 679:Generated_Source\PSoC6\pdl\drivers/peripheral/gpio/cy_gpio.h **** *
 680:Generated_Source\PSoC6\pdl\drivers/peripheral/gpio/cy_gpio.h **** * \return
 681:Generated_Source\PSoC6\pdl\drivers/peripheral/gpio/cy_gpio.h **** * HSIOM input selection
 682:Generated_Source\PSoC6\pdl\drivers/peripheral/gpio/cy_gpio.h **** *
 683:Generated_Source\PSoC6\pdl\drivers/peripheral/gpio/cy_gpio.h **** * \funcusage
 684:Generated_Source\PSoC6\pdl\drivers/peripheral/gpio/cy_gpio.h **** * \snippet gpio/gpio_v1_10_sut_01.cydsn/main_cm4.c snippet_Cy_GPIO_SetHSIOM
 685:Generated_Source\PSoC6\pdl\drivers/peripheral/gpio/cy_gpio.h **** *
 686:Generated_Source\PSoC6\pdl\drivers/peripheral/gpio/cy_gpio.h **** *******************************************************************************/
 687:Generated_Source\PSoC6\pdl\drivers/peripheral/gpio/cy_gpio.h **** __STATIC_INLINE en_hsiom_sel_t Cy_GPIO_GetHSIOM(GPIO_PRT_Type* base, uint32_t pinNum)
 688:Generated_Source\PSoC6\pdl\drivers/peripheral/gpio/cy_gpio.h **** {
 689:Generated_Source\PSoC6\pdl\drivers/peripheral/gpio/cy_gpio.h ****     uint32_t returnValue;
 690:Generated_Source\PSoC6\pdl\drivers/peripheral/gpio/cy_gpio.h ****     uint32_t portNum;
 691:Generated_Source\PSoC6\pdl\drivers/peripheral/gpio/cy_gpio.h ****     HSIOM_PRT_V1_Type* portAddrHSIOM;
 692:Generated_Source\PSoC6\pdl\drivers/peripheral/gpio/cy_gpio.h ****     
 693:Generated_Source\PSoC6\pdl\drivers/peripheral/gpio/cy_gpio.h ****     CY_ASSERT_L2(CY_GPIO_IS_PIN_VALID(pinNum));
 694:Generated_Source\PSoC6\pdl\drivers/peripheral/gpio/cy_gpio.h **** 
 695:Generated_Source\PSoC6\pdl\drivers/peripheral/gpio/cy_gpio.h ****     portNum = ((uint32_t)(base) - CY_GPIO_BASE) / GPIO_PRT_SECTION_SIZE;
 696:Generated_Source\PSoC6\pdl\drivers/peripheral/gpio/cy_gpio.h ****     portAddrHSIOM = (HSIOM_PRT_V1_Type*)(CY_HSIOM_BASE + (HSIOM_PRT_SECTION_SIZE * portNum));
 697:Generated_Source\PSoC6\pdl\drivers/peripheral/gpio/cy_gpio.h **** 
 698:Generated_Source\PSoC6\pdl\drivers/peripheral/gpio/cy_gpio.h ****     if(pinNum < CY_GPIO_PRT_HALF)
 699:Generated_Source\PSoC6\pdl\drivers/peripheral/gpio/cy_gpio.h ****     {
 700:Generated_Source\PSoC6\pdl\drivers/peripheral/gpio/cy_gpio.h ****         returnValue = (HSIOM_PRT_PORT_SEL0(portAddrHSIOM) >> (pinNum << CY_GPIO_HSIOM_OFFSET)) & CY
 701:Generated_Source\PSoC6\pdl\drivers/peripheral/gpio/cy_gpio.h ****     }
 702:Generated_Source\PSoC6\pdl\drivers/peripheral/gpio/cy_gpio.h ****     else
 703:Generated_Source\PSoC6\pdl\drivers/peripheral/gpio/cy_gpio.h ****     {
 704:Generated_Source\PSoC6\pdl\drivers/peripheral/gpio/cy_gpio.h ****         pinNum -= CY_GPIO_PRT_HALF;
 705:Generated_Source\PSoC6\pdl\drivers/peripheral/gpio/cy_gpio.h ****         returnValue = (HSIOM_PRT_PORT_SEL1(portAddrHSIOM) >> (pinNum << CY_GPIO_HSIOM_OFFSET)) & CY
 706:Generated_Source\PSoC6\pdl\drivers/peripheral/gpio/cy_gpio.h ****     }
 707:Generated_Source\PSoC6\pdl\drivers/peripheral/gpio/cy_gpio.h **** 
 708:Generated_Source\PSoC6\pdl\drivers/peripheral/gpio/cy_gpio.h ****     return (en_hsiom_sel_t)returnValue;
 709:Generated_Source\PSoC6\pdl\drivers/peripheral/gpio/cy_gpio.h **** }
 710:Generated_Source\PSoC6\pdl\drivers/peripheral/gpio/cy_gpio.h **** 
 711:Generated_Source\PSoC6\pdl\drivers/peripheral/gpio/cy_gpio.h **** 
 712:Generated_Source\PSoC6\pdl\drivers/peripheral/gpio/cy_gpio.h **** /*******************************************************************************
 713:Generated_Source\PSoC6\pdl\drivers/peripheral/gpio/cy_gpio.h **** * Function Name: Cy_GPIO_PortToAddr
 714:Generated_Source\PSoC6\pdl\drivers/peripheral/gpio/cy_gpio.h **** ****************************************************************************//**
 715:Generated_Source\PSoC6\pdl\drivers/peripheral/gpio/cy_gpio.h **** *
 716:Generated_Source\PSoC6\pdl\drivers/peripheral/gpio/cy_gpio.h **** * Retrieves the port address based on the given port number.
 717:Generated_Source\PSoC6\pdl\drivers/peripheral/gpio/cy_gpio.h **** *
 718:Generated_Source\PSoC6\pdl\drivers/peripheral/gpio/cy_gpio.h **** * This is a helper function to calculate the port base address when given a port
 719:Generated_Source\PSoC6\pdl\drivers/peripheral/gpio/cy_gpio.h **** * number. It is to be used when pin access needs to be calculated at runtime.
 720:Generated_Source\PSoC6\pdl\drivers/peripheral/gpio/cy_gpio.h **** *
 721:Generated_Source\PSoC6\pdl\drivers/peripheral/gpio/cy_gpio.h **** * \param portNum
 722:Generated_Source\PSoC6\pdl\drivers/peripheral/gpio/cy_gpio.h **** * Port number
 723:Generated_Source\PSoC6\pdl\drivers/peripheral/gpio/cy_gpio.h **** *
 724:Generated_Source\PSoC6\pdl\drivers/peripheral/gpio/cy_gpio.h **** * \return
 725:Generated_Source\PSoC6\pdl\drivers/peripheral/gpio/cy_gpio.h **** * Base address of the port register structure
ARM GAS  C:\Users\yomat\AppData\Local\Temp\cc0omv11.s 			page 82


 726:Generated_Source\PSoC6\pdl\drivers/peripheral/gpio/cy_gpio.h **** *
 727:Generated_Source\PSoC6\pdl\drivers/peripheral/gpio/cy_gpio.h **** * \funcusage
 728:Generated_Source\PSoC6\pdl\drivers/peripheral/gpio/cy_gpio.h **** * \snippet gpio/gpio_v1_10_sut_01.cydsn/main_cm4.c snippet_Cy_GPIO_PortToAddr
 729:Generated_Source\PSoC6\pdl\drivers/peripheral/gpio/cy_gpio.h **** *
 730:Generated_Source\PSoC6\pdl\drivers/peripheral/gpio/cy_gpio.h **** *******************************************************************************/
 731:Generated_Source\PSoC6\pdl\drivers/peripheral/gpio/cy_gpio.h **** __STATIC_INLINE GPIO_PRT_Type* Cy_GPIO_PortToAddr(uint32_t portNum)
 732:Generated_Source\PSoC6\pdl\drivers/peripheral/gpio/cy_gpio.h **** {
 733:Generated_Source\PSoC6\pdl\drivers/peripheral/gpio/cy_gpio.h ****     GPIO_PRT_Type* portBase;
 734:Generated_Source\PSoC6\pdl\drivers/peripheral/gpio/cy_gpio.h ****     
 735:Generated_Source\PSoC6\pdl\drivers/peripheral/gpio/cy_gpio.h ****     if(portNum < (uint32_t)IOSS_GPIO_GPIO_PORT_NR)
 736:Generated_Source\PSoC6\pdl\drivers/peripheral/gpio/cy_gpio.h ****     {
 737:Generated_Source\PSoC6\pdl\drivers/peripheral/gpio/cy_gpio.h ****         portBase = (GPIO_PRT_Type *)(CY_GPIO_BASE + (GPIO_PRT_SECTION_SIZE * portNum));
 738:Generated_Source\PSoC6\pdl\drivers/peripheral/gpio/cy_gpio.h ****     }
 739:Generated_Source\PSoC6\pdl\drivers/peripheral/gpio/cy_gpio.h ****     else
 740:Generated_Source\PSoC6\pdl\drivers/peripheral/gpio/cy_gpio.h ****     {
 741:Generated_Source\PSoC6\pdl\drivers/peripheral/gpio/cy_gpio.h ****         /* Error: Return default base address */
 742:Generated_Source\PSoC6\pdl\drivers/peripheral/gpio/cy_gpio.h ****         portBase = (GPIO_PRT_Type *)(CY_GPIO_BASE);
 743:Generated_Source\PSoC6\pdl\drivers/peripheral/gpio/cy_gpio.h ****     }
 744:Generated_Source\PSoC6\pdl\drivers/peripheral/gpio/cy_gpio.h **** 
 745:Generated_Source\PSoC6\pdl\drivers/peripheral/gpio/cy_gpio.h ****     return (portBase);
 746:Generated_Source\PSoC6\pdl\drivers/peripheral/gpio/cy_gpio.h **** }
 747:Generated_Source\PSoC6\pdl\drivers/peripheral/gpio/cy_gpio.h **** 
 748:Generated_Source\PSoC6\pdl\drivers/peripheral/gpio/cy_gpio.h **** /** \} group_gpio_functions_init */
 749:Generated_Source\PSoC6\pdl\drivers/peripheral/gpio/cy_gpio.h **** 
 750:Generated_Source\PSoC6\pdl\drivers/peripheral/gpio/cy_gpio.h **** /**
 751:Generated_Source\PSoC6\pdl\drivers/peripheral/gpio/cy_gpio.h **** * \addtogroup group_gpio_functions_gpio
 752:Generated_Source\PSoC6\pdl\drivers/peripheral/gpio/cy_gpio.h **** * \{
 753:Generated_Source\PSoC6\pdl\drivers/peripheral/gpio/cy_gpio.h **** */
 754:Generated_Source\PSoC6\pdl\drivers/peripheral/gpio/cy_gpio.h **** 
 755:Generated_Source\PSoC6\pdl\drivers/peripheral/gpio/cy_gpio.h **** /*******************************************************************************
 756:Generated_Source\PSoC6\pdl\drivers/peripheral/gpio/cy_gpio.h **** * Function Name: Cy_GPIO_Read
 757:Generated_Source\PSoC6\pdl\drivers/peripheral/gpio/cy_gpio.h **** ****************************************************************************//**
 758:Generated_Source\PSoC6\pdl\drivers/peripheral/gpio/cy_gpio.h **** *
 759:Generated_Source\PSoC6\pdl\drivers/peripheral/gpio/cy_gpio.h **** * Reads the current logic level on the input buffer of the pin.
 760:Generated_Source\PSoC6\pdl\drivers/peripheral/gpio/cy_gpio.h **** *
 761:Generated_Source\PSoC6\pdl\drivers/peripheral/gpio/cy_gpio.h **** * \param base
 762:Generated_Source\PSoC6\pdl\drivers/peripheral/gpio/cy_gpio.h **** * Pointer to the pin's port register base address
 763:Generated_Source\PSoC6\pdl\drivers/peripheral/gpio/cy_gpio.h **** *
 764:Generated_Source\PSoC6\pdl\drivers/peripheral/gpio/cy_gpio.h **** * \param pinNum
 765:Generated_Source\PSoC6\pdl\drivers/peripheral/gpio/cy_gpio.h **** * Position of the pin bit-field within the port register.
 766:Generated_Source\PSoC6\pdl\drivers/peripheral/gpio/cy_gpio.h **** * Bit position 8 is the routed pin through the port glitch filter.
 767:Generated_Source\PSoC6\pdl\drivers/peripheral/gpio/cy_gpio.h **** *
 768:Generated_Source\PSoC6\pdl\drivers/peripheral/gpio/cy_gpio.h **** * \return
 769:Generated_Source\PSoC6\pdl\drivers/peripheral/gpio/cy_gpio.h **** * Logic level present on the pin
 770:Generated_Source\PSoC6\pdl\drivers/peripheral/gpio/cy_gpio.h **** *
 771:Generated_Source\PSoC6\pdl\drivers/peripheral/gpio/cy_gpio.h **** * \funcusage
 772:Generated_Source\PSoC6\pdl\drivers/peripheral/gpio/cy_gpio.h **** * \snippet gpio/gpio_v1_10_sut_01.cydsn/main_cm4.c snippet_Cy_GPIO_Read
 773:Generated_Source\PSoC6\pdl\drivers/peripheral/gpio/cy_gpio.h **** *
 774:Generated_Source\PSoC6\pdl\drivers/peripheral/gpio/cy_gpio.h **** *******************************************************************************/
 775:Generated_Source\PSoC6\pdl\drivers/peripheral/gpio/cy_gpio.h **** __STATIC_INLINE uint32_t Cy_GPIO_Read(GPIO_PRT_Type* base, uint32_t pinNum)
 776:Generated_Source\PSoC6\pdl\drivers/peripheral/gpio/cy_gpio.h **** {
 777:Generated_Source\PSoC6\pdl\drivers/peripheral/gpio/cy_gpio.h ****     CY_ASSERT_L2(CY_GPIO_IS_FILTER_PIN_VALID(pinNum));
 778:Generated_Source\PSoC6\pdl\drivers/peripheral/gpio/cy_gpio.h ****     
 779:Generated_Source\PSoC6\pdl\drivers/peripheral/gpio/cy_gpio.h ****     return (GPIO_PRT_IN(base) >> (pinNum)) & CY_GPIO_IN_MASK;
 780:Generated_Source\PSoC6\pdl\drivers/peripheral/gpio/cy_gpio.h **** }
 781:Generated_Source\PSoC6\pdl\drivers/peripheral/gpio/cy_gpio.h **** 
 782:Generated_Source\PSoC6\pdl\drivers/peripheral/gpio/cy_gpio.h **** 
ARM GAS  C:\Users\yomat\AppData\Local\Temp\cc0omv11.s 			page 83


 783:Generated_Source\PSoC6\pdl\drivers/peripheral/gpio/cy_gpio.h **** /*******************************************************************************
 784:Generated_Source\PSoC6\pdl\drivers/peripheral/gpio/cy_gpio.h **** * Function Name: Cy_GPIO_Write
 785:Generated_Source\PSoC6\pdl\drivers/peripheral/gpio/cy_gpio.h **** ****************************************************************************//**
 786:Generated_Source\PSoC6\pdl\drivers/peripheral/gpio/cy_gpio.h **** *
 787:Generated_Source\PSoC6\pdl\drivers/peripheral/gpio/cy_gpio.h **** * Write a logic 0 or logic 1 state to the output driver.
 788:Generated_Source\PSoC6\pdl\drivers/peripheral/gpio/cy_gpio.h **** *
 789:Generated_Source\PSoC6\pdl\drivers/peripheral/gpio/cy_gpio.h **** * This function should be used only for software driven pins. It does not have
 790:Generated_Source\PSoC6\pdl\drivers/peripheral/gpio/cy_gpio.h **** * any effect on peripheral driven pins.
 791:Generated_Source\PSoC6\pdl\drivers/peripheral/gpio/cy_gpio.h **** *
 792:Generated_Source\PSoC6\pdl\drivers/peripheral/gpio/cy_gpio.h **** * \param base
 793:Generated_Source\PSoC6\pdl\drivers/peripheral/gpio/cy_gpio.h **** * Pointer to the pin's port register base address
 794:Generated_Source\PSoC6\pdl\drivers/peripheral/gpio/cy_gpio.h **** *
 795:Generated_Source\PSoC6\pdl\drivers/peripheral/gpio/cy_gpio.h **** * \param pinNum
 796:Generated_Source\PSoC6\pdl\drivers/peripheral/gpio/cy_gpio.h **** * Position of the pin bit-field within the port register
 797:Generated_Source\PSoC6\pdl\drivers/peripheral/gpio/cy_gpio.h **** *
 798:Generated_Source\PSoC6\pdl\drivers/peripheral/gpio/cy_gpio.h **** * \param value
 799:Generated_Source\PSoC6\pdl\drivers/peripheral/gpio/cy_gpio.h **** * Logic level to drive out on the pin
 800:Generated_Source\PSoC6\pdl\drivers/peripheral/gpio/cy_gpio.h **** *
 801:Generated_Source\PSoC6\pdl\drivers/peripheral/gpio/cy_gpio.h **** * \funcusage
 802:Generated_Source\PSoC6\pdl\drivers/peripheral/gpio/cy_gpio.h **** * \snippet gpio/gpio_v1_10_sut_01.cydsn/main_cm4.c snippet_Cy_GPIO_Write
 803:Generated_Source\PSoC6\pdl\drivers/peripheral/gpio/cy_gpio.h **** *
 804:Generated_Source\PSoC6\pdl\drivers/peripheral/gpio/cy_gpio.h **** *******************************************************************************/
 805:Generated_Source\PSoC6\pdl\drivers/peripheral/gpio/cy_gpio.h **** __STATIC_INLINE void Cy_GPIO_Write(GPIO_PRT_Type* base, uint32_t pinNum, uint32_t value)
 806:Generated_Source\PSoC6\pdl\drivers/peripheral/gpio/cy_gpio.h **** {
 807:Generated_Source\PSoC6\pdl\drivers/peripheral/gpio/cy_gpio.h ****     CY_ASSERT_L2(CY_GPIO_IS_PIN_VALID(pinNum));
 808:Generated_Source\PSoC6\pdl\drivers/peripheral/gpio/cy_gpio.h ****     CY_ASSERT_L2(CY_GPIO_IS_VALUE_VALID(value));
 809:Generated_Source\PSoC6\pdl\drivers/peripheral/gpio/cy_gpio.h **** 
 810:Generated_Source\PSoC6\pdl\drivers/peripheral/gpio/cy_gpio.h ****     /* Thread-safe: Directly access the pin registers instead of base->OUT */
 811:Generated_Source\PSoC6\pdl\drivers/peripheral/gpio/cy_gpio.h ****     if(0UL == value)
 812:Generated_Source\PSoC6\pdl\drivers/peripheral/gpio/cy_gpio.h ****     {
 813:Generated_Source\PSoC6\pdl\drivers/peripheral/gpio/cy_gpio.h ****         GPIO_PRT_OUT_CLR(base) = CY_GPIO_OUT_MASK << pinNum;
 988              		.loc 4 813 0
 989 00d6 0222     		movs	r2, #2
 990 00d8 1C4B     		ldr	r3, .L55+108
 991 00da 5A60     		str	r2, [r3, #4]
 992              	.LVL99:
 993              	.LBE93:
 994              	.LBE92:
 174:led_task.c    **** 
 995              		.loc 1 174 0
 996 00dc 02B0     		add	sp, sp, #8
 997              		.cfi_def_cfa_offset 16
 998              		@ sp needed
 999 00de D0BD     		pop	{r4, r6, r7, pc}
 1000              	.L56:
 1001              		.align	3
 1002              	.L55:
 1003 00e0 00000000 		.word	0
 1004 00e4 004CED40 		.word	1089293312
 1005 00e8 34333333 		.word	858993460
 1006 00ec 33331340 		.word	1075000115
 1007 00f0 38000000 		.word	.LC6
 1008 00f4 00000000 		.word	PWM_CYC_config
 1009 00f8 4C000000 		.word	.LC7
 1010 00fc 00000000 		.word	PWM_TIM_config
 1011 0100 D34D6210 		.word	274877907
 1012 0104 6C000000 		.word	.LC8
ARM GAS  C:\Users\yomat\AppData\Local\Temp\cc0omv11.s 			page 84


 1013 0108 28000000 		.word	.LC4
 1014 010c 30000000 		.word	.LC5
 1015 0110 88000000 		.word	.LC9
 1016 0114 A0000000 		.word	.LC10
 1017 0118 BC000000 		.word	.LC11
 1018 011c D8000000 		.word	.LC12
 1019 0120 F4000000 		.word	.LC13
 1020 0124 14010000 		.word	.LC14
 1021 0128 40010000 		.word	.LC15
 1022 012c 00006240 		.word	1080164352
 1023 0130 00000000 		.word	.LANCHOR2
 1024 0134 00000000 		.word	AFE0_hdr
 1025 0138 00000000 		.word	ISR_AFE0_cfg
 1026 013c 00006340 		.word	1080229888
 1027 0140 00000000 		.word	AFE1_hdr
 1028 0144 00000000 		.word	ISR_AFE1_cfg
 1029 0148 00000000 		.word	.LANCHOR1
 1030 014c 80033240 		.word	1077019520
 1031              		.cfi_endproc
 1032              	.LFE697:
 1033              		.size	AFE_init, .-AFE_init
 1034              		.section	.text.Task_LED,"ax",%progbits
 1035              		.align	2
 1036              		.global	Task_LED
 1037              		.thumb
 1038              		.thumb_func
 1039              		.type	Task_LED, %function
 1040              	Task_LED:
 1041              	.LFB699:
 248:led_task.c    **** 
 249:led_task.c    **** // LEDタスクメイン」
 250:led_task.c    **** void Task_LED (void *pvParameters)
 251:led_task.c    **** {  
 1042              		.loc 1 251 0
 1043              		.cfi_startproc
 1044              		@ Volatile: function does not return.
 1045              		@ args = 0, pretend = 0, frame = 0
 1046              		@ frame_needed = 0, uses_anonymous_args = 0
 1047              	.LVL100:
 1048 0000 08B5     		push	{r3, lr}
 1049              		.cfi_def_cfa_offset 8
 1050              		.cfi_offset 3, -8
 1051              		.cfi_offset 14, -4
 1052              	.LVL101:
 1053              	.L58:
 252:led_task.c    ****     (void)pvParameters ;
 253:led_task.c    **** 
 254:led_task.c    ****     for(;;) {
 255:led_task.c    ****         // データサンプリング
 256:led_task.c    ****         if (AFE_RDY(AFE0_ID)) AFE_samp(AFE0_ID);
 1054              		.loc 1 256 0
 1055 0002 124B     		ldr	r3, .L63
 1056 0004 5B78     		ldrb	r3, [r3, #1]	@ zero_extendqisi2
 1057 0006 13F0FF0F 		tst	r3, #255
 1058 000a 02D0     		beq	.L59
 1059              		.loc 1 256 0 is_stmt 0 discriminator 1
 1060 000c 0020     		movs	r0, #0
ARM GAS  C:\Users\yomat\AppData\Local\Temp\cc0omv11.s 			page 85


 1061 000e FFF7FEFF 		bl	AFE_samp
 1062              	.LVL102:
 1063              	.L59:
 257:led_task.c    ****         if (AFE_RDY(AFE1_ID)) AFE_samp(AFE1_ID);
 1064              		.loc 1 257 0 is_stmt 1
 1065 0012 0E4B     		ldr	r3, .L63
 1066 0014 93F82530 		ldrb	r3, [r3, #37]	@ zero_extendqisi2
 1067 0018 13F0FF0F 		tst	r3, #255
 1068 001c 02D0     		beq	.L60
 1069              		.loc 1 257 0 is_stmt 0 discriminator 1
 1070 001e 0120     		movs	r0, #1
 1071 0020 FFF7FEFF 		bl	AFE_samp
 1072              	.LVL103:
 1073              	.L60:
 258:led_task.c    **** 
 259:led_task.c    ****         if (AFE_st == NOAFE_ID && UART_IsTxComplete()) {
 1074              		.loc 1 259 0 is_stmt 1
 1075 0024 0A4B     		ldr	r3, .L63+4
 1076 0026 93F88031 		ldrb	r3, [r3, #384]	@ zero_extendqisi2
 1077 002a 022B     		cmp	r3, #2
 1078 002c E9D1     		bne	.L58
 1079              	.LVL104:
 1080              	.LBB94:
 1081              	.LBB95:
 1082              	.LBB96:
 1083              	.LBB97:
 1084              	.LBB98:
 1085              	.LBB99:
 1086              		.file 5 "Generated_Source\\PSoC6\\pdl\\drivers/peripheral/scb/cy_scb_common.h"
   1:Generated_Source\PSoC6\pdl\drivers/peripheral/scb/cy_scb_common.h **** /***************************************************************************//**
   2:Generated_Source\PSoC6\pdl\drivers/peripheral/scb/cy_scb_common.h **** * \file cy_scb_common.h
   3:Generated_Source\PSoC6\pdl\drivers/peripheral/scb/cy_scb_common.h **** * \version 2.20
   4:Generated_Source\PSoC6\pdl\drivers/peripheral/scb/cy_scb_common.h **** *
   5:Generated_Source\PSoC6\pdl\drivers/peripheral/scb/cy_scb_common.h **** * Provides common API declarations of the SCB driver.
   6:Generated_Source\PSoC6\pdl\drivers/peripheral/scb/cy_scb_common.h **** *
   7:Generated_Source\PSoC6\pdl\drivers/peripheral/scb/cy_scb_common.h **** ********************************************************************************
   8:Generated_Source\PSoC6\pdl\drivers/peripheral/scb/cy_scb_common.h **** * \copyright
   9:Generated_Source\PSoC6\pdl\drivers/peripheral/scb/cy_scb_common.h **** * Copyright 2016-2018, Cypress Semiconductor Corporation.  All rights reserved.
  10:Generated_Source\PSoC6\pdl\drivers/peripheral/scb/cy_scb_common.h **** * You may use this file only in accordance with the license, terms, conditions,
  11:Generated_Source\PSoC6\pdl\drivers/peripheral/scb/cy_scb_common.h **** * disclaimers, and limitations in the end user license agreement accompanying
  12:Generated_Source\PSoC6\pdl\drivers/peripheral/scb/cy_scb_common.h **** * the software package with which this file was provided.
  13:Generated_Source\PSoC6\pdl\drivers/peripheral/scb/cy_scb_common.h **** *******************************************************************************/
  14:Generated_Source\PSoC6\pdl\drivers/peripheral/scb/cy_scb_common.h **** 
  15:Generated_Source\PSoC6\pdl\drivers/peripheral/scb/cy_scb_common.h **** /**
  16:Generated_Source\PSoC6\pdl\drivers/peripheral/scb/cy_scb_common.h **** * \addtogroup group_scb
  17:Generated_Source\PSoC6\pdl\drivers/peripheral/scb/cy_scb_common.h **** * \{
  18:Generated_Source\PSoC6\pdl\drivers/peripheral/scb/cy_scb_common.h **** * The Serial Communications Block (SCB) supports three serial communication 
  19:Generated_Source\PSoC6\pdl\drivers/peripheral/scb/cy_scb_common.h **** * protocols: Serial Peripheral Interface (SPI), Universal Asynchronous Receiver 
  20:Generated_Source\PSoC6\pdl\drivers/peripheral/scb/cy_scb_common.h **** * Transmitter (UART), and Inter Integrated Circuit (I2C or IIC). Only one of 
  21:Generated_Source\PSoC6\pdl\drivers/peripheral/scb/cy_scb_common.h **** * the protocols is supported by an SCB at any given time.
  22:Generated_Source\PSoC6\pdl\drivers/peripheral/scb/cy_scb_common.h **** *
  23:Generated_Source\PSoC6\pdl\drivers/peripheral/scb/cy_scb_common.h **** * The functions and other declarations used in this driver are in cy_scb_spi.h, 
  24:Generated_Source\PSoC6\pdl\drivers/peripheral/scb/cy_scb_common.h **** * cy_scb_uart.h, cy_scb_ezi2c.h, cy_scb_i2c.h respectively. Include cy_pdl.h 
  25:Generated_Source\PSoC6\pdl\drivers/peripheral/scb/cy_scb_common.h **** * (ModusToolbox only) to get access to all functions and declarations in the PDL.
  26:Generated_Source\PSoC6\pdl\drivers/peripheral/scb/cy_scb_common.h **** 
  27:Generated_Source\PSoC6\pdl\drivers/peripheral/scb/cy_scb_common.h **** * \defgroup group_scb_common Common
  28:Generated_Source\PSoC6\pdl\drivers/peripheral/scb/cy_scb_common.h **** * \defgroup group_scb_ezi2c  EZI2C (SCB)
ARM GAS  C:\Users\yomat\AppData\Local\Temp\cc0omv11.s 			page 86


  29:Generated_Source\PSoC6\pdl\drivers/peripheral/scb/cy_scb_common.h **** * \defgroup group_scb_i2c    I2C (SCB)
  30:Generated_Source\PSoC6\pdl\drivers/peripheral/scb/cy_scb_common.h **** * \defgroup group_scb_spi    SPI (SCB)
  31:Generated_Source\PSoC6\pdl\drivers/peripheral/scb/cy_scb_common.h **** * \defgroup group_scb_uart   UART (SCB)
  32:Generated_Source\PSoC6\pdl\drivers/peripheral/scb/cy_scb_common.h **** * \} */
  33:Generated_Source\PSoC6\pdl\drivers/peripheral/scb/cy_scb_common.h **** 
  34:Generated_Source\PSoC6\pdl\drivers/peripheral/scb/cy_scb_common.h **** /**
  35:Generated_Source\PSoC6\pdl\drivers/peripheral/scb/cy_scb_common.h **** * \addtogroup group_scb_common
  36:Generated_Source\PSoC6\pdl\drivers/peripheral/scb/cy_scb_common.h **** * \{
  37:Generated_Source\PSoC6\pdl\drivers/peripheral/scb/cy_scb_common.h **** *
  38:Generated_Source\PSoC6\pdl\drivers/peripheral/scb/cy_scb_common.h **** * Common API for the Serial Communication Block.
  39:Generated_Source\PSoC6\pdl\drivers/peripheral/scb/cy_scb_common.h **** *
  40:Generated_Source\PSoC6\pdl\drivers/peripheral/scb/cy_scb_common.h **** * This is the common API that provides an interface to the SCB hardware.
  41:Generated_Source\PSoC6\pdl\drivers/peripheral/scb/cy_scb_common.h **** * The I2C, SPI, and UART drivers use this common API.
  42:Generated_Source\PSoC6\pdl\drivers/peripheral/scb/cy_scb_common.h **** * Most users will use individual drivers and do not need to use the common
  43:Generated_Source\PSoC6\pdl\drivers/peripheral/scb/cy_scb_common.h **** * API for the SCB. However, you can use the common SCB API to implement
  44:Generated_Source\PSoC6\pdl\drivers/peripheral/scb/cy_scb_common.h **** * a custom driver based on the SCB hardware.
  45:Generated_Source\PSoC6\pdl\drivers/peripheral/scb/cy_scb_common.h **** *
  46:Generated_Source\PSoC6\pdl\drivers/peripheral/scb/cy_scb_common.h **** * The functions and other declarations used in this part of the driver are in 
  47:Generated_Source\PSoC6\pdl\drivers/peripheral/scb/cy_scb_common.h **** * cy_scb_common.h. You can include either of cy_scb_spi.h, cy_scb_uart.h, 
  48:Generated_Source\PSoC6\pdl\drivers/peripheral/scb/cy_scb_common.h **** * cy_scb_ezi2c.h, cy_scb_i2c.h depending on the desired functionality. 
  49:Generated_Source\PSoC6\pdl\drivers/peripheral/scb/cy_scb_common.h **** * You can also include cy_pdl.h to get access to all functions and declarations 
  50:Generated_Source\PSoC6\pdl\drivers/peripheral/scb/cy_scb_common.h **** * in the PDL.
  51:Generated_Source\PSoC6\pdl\drivers/peripheral/scb/cy_scb_common.h **** *
  52:Generated_Source\PSoC6\pdl\drivers/peripheral/scb/cy_scb_common.h **** *******************************************************************************
  53:Generated_Source\PSoC6\pdl\drivers/peripheral/scb/cy_scb_common.h **** * \section group_scb_common_configuration Configuration Considerations
  54:Generated_Source\PSoC6\pdl\drivers/peripheral/scb/cy_scb_common.h **** ********************************************************************************
  55:Generated_Source\PSoC6\pdl\drivers/peripheral/scb/cy_scb_common.h **** * This is not a driver and it does not require configuration.
  56:Generated_Source\PSoC6\pdl\drivers/peripheral/scb/cy_scb_common.h **** *
  57:Generated_Source\PSoC6\pdl\drivers/peripheral/scb/cy_scb_common.h **** *******************************************************************************
  58:Generated_Source\PSoC6\pdl\drivers/peripheral/scb/cy_scb_common.h **** * \section group_scb_common_more_information More Information
  59:Generated_Source\PSoC6\pdl\drivers/peripheral/scb/cy_scb_common.h **** *******************************************************************************
  60:Generated_Source\PSoC6\pdl\drivers/peripheral/scb/cy_scb_common.h **** * Refer to the SCB chapter of the technical reference manual (TRM).
  61:Generated_Source\PSoC6\pdl\drivers/peripheral/scb/cy_scb_common.h **** *
  62:Generated_Source\PSoC6\pdl\drivers/peripheral/scb/cy_scb_common.h **** *******************************************************************************
  63:Generated_Source\PSoC6\pdl\drivers/peripheral/scb/cy_scb_common.h **** * \section group_scb_common_MISRA MISRA-C Compliance
  64:Generated_Source\PSoC6\pdl\drivers/peripheral/scb/cy_scb_common.h **** *******************************************************************************
  65:Generated_Source\PSoC6\pdl\drivers/peripheral/scb/cy_scb_common.h **** * <table class="doxtable">
  66:Generated_Source\PSoC6\pdl\drivers/peripheral/scb/cy_scb_common.h **** *   <tr>
  67:Generated_Source\PSoC6\pdl\drivers/peripheral/scb/cy_scb_common.h **** *     <th>MISRA rule</th>
  68:Generated_Source\PSoC6\pdl\drivers/peripheral/scb/cy_scb_common.h **** *     <th>Rule Class (Required/Advisory)</th>
  69:Generated_Source\PSoC6\pdl\drivers/peripheral/scb/cy_scb_common.h **** *     <th>Rule Description</th>
  70:Generated_Source\PSoC6\pdl\drivers/peripheral/scb/cy_scb_common.h **** *     <th>Description of Deviation(s)</th>
  71:Generated_Source\PSoC6\pdl\drivers/peripheral/scb/cy_scb_common.h **** *   </tr>
  72:Generated_Source\PSoC6\pdl\drivers/peripheral/scb/cy_scb_common.h **** *   <tr>
  73:Generated_Source\PSoC6\pdl\drivers/peripheral/scb/cy_scb_common.h **** *     <td>11.4</td>
  74:Generated_Source\PSoC6\pdl\drivers/peripheral/scb/cy_scb_common.h **** *     <td>A</td>
  75:Generated_Source\PSoC6\pdl\drivers/peripheral/scb/cy_scb_common.h **** *     <td>A cast should not be performed between a pointer to object type and
  76:Generated_Source\PSoC6\pdl\drivers/peripheral/scb/cy_scb_common.h **** *         a different pointer to object type.</td>
  77:Generated_Source\PSoC6\pdl\drivers/peripheral/scb/cy_scb_common.h **** *     <td>The pointer to the buffer memory is void to allow handling of
  78:Generated_Source\PSoC6\pdl\drivers/peripheral/scb/cy_scb_common.h **** *         different data types: uint8_t (4-8 bits) or uint16_t (9-16 bits).
  79:Generated_Source\PSoC6\pdl\drivers/peripheral/scb/cy_scb_common.h **** *         The cast operation is safe because the configuration is verified
  80:Generated_Source\PSoC6\pdl\drivers/peripheral/scb/cy_scb_common.h **** *         before operation is performed.
  81:Generated_Source\PSoC6\pdl\drivers/peripheral/scb/cy_scb_common.h **** *         </td>
  82:Generated_Source\PSoC6\pdl\drivers/peripheral/scb/cy_scb_common.h **** *   </tr>
  83:Generated_Source\PSoC6\pdl\drivers/peripheral/scb/cy_scb_common.h **** * </table>
  84:Generated_Source\PSoC6\pdl\drivers/peripheral/scb/cy_scb_common.h **** *
  85:Generated_Source\PSoC6\pdl\drivers/peripheral/scb/cy_scb_common.h **** *******************************************************************************
ARM GAS  C:\Users\yomat\AppData\Local\Temp\cc0omv11.s 			page 87


  86:Generated_Source\PSoC6\pdl\drivers/peripheral/scb/cy_scb_common.h **** * \section group_scb_common_changelog Changelog
  87:Generated_Source\PSoC6\pdl\drivers/peripheral/scb/cy_scb_common.h **** *******************************************************************************
  88:Generated_Source\PSoC6\pdl\drivers/peripheral/scb/cy_scb_common.h **** * <table class="doxtable">
  89:Generated_Source\PSoC6\pdl\drivers/peripheral/scb/cy_scb_common.h **** *   <tr><th>Version</th><th>Changes</th><th>Reason for Change</th></tr>
  90:Generated_Source\PSoC6\pdl\drivers/peripheral/scb/cy_scb_common.h **** *   <tr>
  91:Generated_Source\PSoC6\pdl\drivers/peripheral/scb/cy_scb_common.h **** *     <td rowspan="2">2.20</td>
  92:Generated_Source\PSoC6\pdl\drivers/peripheral/scb/cy_scb_common.h **** *     <td>Flattened the organization of the driver source code into the single 
  93:Generated_Source\PSoC6\pdl\drivers/peripheral/scb/cy_scb_common.h **** *         source directory and the single include directory.
  94:Generated_Source\PSoC6\pdl\drivers/peripheral/scb/cy_scb_common.h **** *     </td>
  95:Generated_Source\PSoC6\pdl\drivers/peripheral/scb/cy_scb_common.h **** *     <td>Driver library directory-structure simplification.</td>
  96:Generated_Source\PSoC6\pdl\drivers/peripheral/scb/cy_scb_common.h **** *   </tr>
  97:Generated_Source\PSoC6\pdl\drivers/peripheral/scb/cy_scb_common.h **** *   <tr>
  98:Generated_Source\PSoC6\pdl\drivers/peripheral/scb/cy_scb_common.h **** *     <td>Added register access layer. Use register access macros instead
  99:Generated_Source\PSoC6\pdl\drivers/peripheral/scb/cy_scb_common.h **** *         of direct register access using dereferenced pointers.</td>
 100:Generated_Source\PSoC6\pdl\drivers/peripheral/scb/cy_scb_common.h **** *     <td>Makes register access device-independent, so that the PDL does 
 101:Generated_Source\PSoC6\pdl\drivers/peripheral/scb/cy_scb_common.h **** *         not need to be recompiled for each supported part number.</td>
 102:Generated_Source\PSoC6\pdl\drivers/peripheral/scb/cy_scb_common.h **** *   </tr>
 103:Generated_Source\PSoC6\pdl\drivers/peripheral/scb/cy_scb_common.h **** *   <tr>
 104:Generated_Source\PSoC6\pdl\drivers/peripheral/scb/cy_scb_common.h **** *     <td>2.10</td>
 105:Generated_Source\PSoC6\pdl\drivers/peripheral/scb/cy_scb_common.h **** *     <td>None.</td>
 106:Generated_Source\PSoC6\pdl\drivers/peripheral/scb/cy_scb_common.h **** *     <td>SCB I2C driver updated.</td>
 107:Generated_Source\PSoC6\pdl\drivers/peripheral/scb/cy_scb_common.h **** *   </tr>
 108:Generated_Source\PSoC6\pdl\drivers/peripheral/scb/cy_scb_common.h **** *   <tr>
 109:Generated_Source\PSoC6\pdl\drivers/peripheral/scb/cy_scb_common.h **** *     <td rowspan="2"> 2.0</td>
 110:Generated_Source\PSoC6\pdl\drivers/peripheral/scb/cy_scb_common.h **** *     <td>Added parameters validation for public API.
 111:Generated_Source\PSoC6\pdl\drivers/peripheral/scb/cy_scb_common.h **** *     <td></td>
 112:Generated_Source\PSoC6\pdl\drivers/peripheral/scb/cy_scb_common.h **** *   </tr>
 113:Generated_Source\PSoC6\pdl\drivers/peripheral/scb/cy_scb_common.h **** *   <tr>
 114:Generated_Source\PSoC6\pdl\drivers/peripheral/scb/cy_scb_common.h **** *     <td>Fixed functions which return interrupt status to return only defined
 115:Generated_Source\PSoC6\pdl\drivers/peripheral/scb/cy_scb_common.h **** *         set of interrupt statuses.</td>
 116:Generated_Source\PSoC6\pdl\drivers/peripheral/scb/cy_scb_common.h **** *     <td></td>
 117:Generated_Source\PSoC6\pdl\drivers/peripheral/scb/cy_scb_common.h **** *   </tr>
 118:Generated_Source\PSoC6\pdl\drivers/peripheral/scb/cy_scb_common.h **** *   <tr>
 119:Generated_Source\PSoC6\pdl\drivers/peripheral/scb/cy_scb_common.h **** *     <td>1.0</td>
 120:Generated_Source\PSoC6\pdl\drivers/peripheral/scb/cy_scb_common.h **** *     <td>Initial version.</td>
 121:Generated_Source\PSoC6\pdl\drivers/peripheral/scb/cy_scb_common.h **** *     <td></td>
 122:Generated_Source\PSoC6\pdl\drivers/peripheral/scb/cy_scb_common.h **** *   </tr>
 123:Generated_Source\PSoC6\pdl\drivers/peripheral/scb/cy_scb_common.h **** * </table>
 124:Generated_Source\PSoC6\pdl\drivers/peripheral/scb/cy_scb_common.h **** *
 125:Generated_Source\PSoC6\pdl\drivers/peripheral/scb/cy_scb_common.h **** * \defgroup group_scb_common_macros Macros
 126:Generated_Source\PSoC6\pdl\drivers/peripheral/scb/cy_scb_common.h **** * \defgroup group_scb_common_functions Functions
 127:Generated_Source\PSoC6\pdl\drivers/peripheral/scb/cy_scb_common.h **** * \defgroup group_scb_common_data_structures Data Structures
 128:Generated_Source\PSoC6\pdl\drivers/peripheral/scb/cy_scb_common.h **** *
 129:Generated_Source\PSoC6\pdl\drivers/peripheral/scb/cy_scb_common.h **** */
 130:Generated_Source\PSoC6\pdl\drivers/peripheral/scb/cy_scb_common.h **** 
 131:Generated_Source\PSoC6\pdl\drivers/peripheral/scb/cy_scb_common.h **** #if !defined(CY_SCB_COMMON_H)
 132:Generated_Source\PSoC6\pdl\drivers/peripheral/scb/cy_scb_common.h **** #define CY_SCB_COMMON_H
 133:Generated_Source\PSoC6\pdl\drivers/peripheral/scb/cy_scb_common.h **** 
 134:Generated_Source\PSoC6\pdl\drivers/peripheral/scb/cy_scb_common.h **** #include <stdint.h>
 135:Generated_Source\PSoC6\pdl\drivers/peripheral/scb/cy_scb_common.h **** #include <stddef.h>
 136:Generated_Source\PSoC6\pdl\drivers/peripheral/scb/cy_scb_common.h **** #include <stdbool.h>
 137:Generated_Source\PSoC6\pdl\drivers/peripheral/scb/cy_scb_common.h **** #include "cy_device.h"
 138:Generated_Source\PSoC6\pdl\drivers/peripheral/scb/cy_scb_common.h **** #include "cy_device_headers.h"
 139:Generated_Source\PSoC6\pdl\drivers/peripheral/scb/cy_scb_common.h **** #include "cy_syslib.h"
 140:Generated_Source\PSoC6\pdl\drivers/peripheral/scb/cy_scb_common.h **** #include "cy_syspm.h"
 141:Generated_Source\PSoC6\pdl\drivers/peripheral/scb/cy_scb_common.h **** 
 142:Generated_Source\PSoC6\pdl\drivers/peripheral/scb/cy_scb_common.h **** #ifdef CY_IP_MXSCB
ARM GAS  C:\Users\yomat\AppData\Local\Temp\cc0omv11.s 			page 88


 143:Generated_Source\PSoC6\pdl\drivers/peripheral/scb/cy_scb_common.h **** 
 144:Generated_Source\PSoC6\pdl\drivers/peripheral/scb/cy_scb_common.h **** #if defined(__cplusplus)
 145:Generated_Source\PSoC6\pdl\drivers/peripheral/scb/cy_scb_common.h **** extern "C" {
 146:Generated_Source\PSoC6\pdl\drivers/peripheral/scb/cy_scb_common.h **** #endif
 147:Generated_Source\PSoC6\pdl\drivers/peripheral/scb/cy_scb_common.h **** 
 148:Generated_Source\PSoC6\pdl\drivers/peripheral/scb/cy_scb_common.h **** 
 149:Generated_Source\PSoC6\pdl\drivers/peripheral/scb/cy_scb_common.h **** /*******************************************************************************
 150:Generated_Source\PSoC6\pdl\drivers/peripheral/scb/cy_scb_common.h **** *                            Function Prototypes
 151:Generated_Source\PSoC6\pdl\drivers/peripheral/scb/cy_scb_common.h **** *******************************************************************************/
 152:Generated_Source\PSoC6\pdl\drivers/peripheral/scb/cy_scb_common.h **** 
 153:Generated_Source\PSoC6\pdl\drivers/peripheral/scb/cy_scb_common.h **** /**
 154:Generated_Source\PSoC6\pdl\drivers/peripheral/scb/cy_scb_common.h **** * \addtogroup group_scb_common_functions
 155:Generated_Source\PSoC6\pdl\drivers/peripheral/scb/cy_scb_common.h **** * \{
 156:Generated_Source\PSoC6\pdl\drivers/peripheral/scb/cy_scb_common.h **** */
 157:Generated_Source\PSoC6\pdl\drivers/peripheral/scb/cy_scb_common.h **** __STATIC_INLINE uint32_t Cy_SCB_ReadRxFifo    (CySCB_Type const *base);
 158:Generated_Source\PSoC6\pdl\drivers/peripheral/scb/cy_scb_common.h **** __STATIC_INLINE void     Cy_SCB_SetRxFifoLevel(CySCB_Type *base, uint32_t level);
 159:Generated_Source\PSoC6\pdl\drivers/peripheral/scb/cy_scb_common.h **** __STATIC_INLINE uint32_t Cy_SCB_GetNumInRxFifo(CySCB_Type const *base);
 160:Generated_Source\PSoC6\pdl\drivers/peripheral/scb/cy_scb_common.h **** __STATIC_INLINE uint32_t Cy_SCB_GetRxSrValid  (CySCB_Type const *base);
 161:Generated_Source\PSoC6\pdl\drivers/peripheral/scb/cy_scb_common.h **** __STATIC_INLINE void     Cy_SCB_ClearRxFifo   (CySCB_Type *base);
 162:Generated_Source\PSoC6\pdl\drivers/peripheral/scb/cy_scb_common.h **** 
 163:Generated_Source\PSoC6\pdl\drivers/peripheral/scb/cy_scb_common.h **** __STATIC_INLINE void     Cy_SCB_WriteTxFifo   (CySCB_Type *base, uint32_t data);
 164:Generated_Source\PSoC6\pdl\drivers/peripheral/scb/cy_scb_common.h **** __STATIC_INLINE void     Cy_SCB_SetTxFifoLevel(CySCB_Type *base, uint32_t level);
 165:Generated_Source\PSoC6\pdl\drivers/peripheral/scb/cy_scb_common.h **** __STATIC_INLINE uint32_t Cy_SCB_GetNumInTxFifo(CySCB_Type const *base);
 166:Generated_Source\PSoC6\pdl\drivers/peripheral/scb/cy_scb_common.h **** __STATIC_INLINE uint32_t Cy_SCB_GetTxSrValid  (CySCB_Type const *base);
 167:Generated_Source\PSoC6\pdl\drivers/peripheral/scb/cy_scb_common.h **** __STATIC_INLINE bool     Cy_SCB_IsTxComplete  (CySCB_Type const *base);
 168:Generated_Source\PSoC6\pdl\drivers/peripheral/scb/cy_scb_common.h **** __STATIC_INLINE void     Cy_SCB_ClearTxFifo   (CySCB_Type *base);
 169:Generated_Source\PSoC6\pdl\drivers/peripheral/scb/cy_scb_common.h **** 
 170:Generated_Source\PSoC6\pdl\drivers/peripheral/scb/cy_scb_common.h **** __STATIC_INLINE void     Cy_SCB_SetByteMode(CySCB_Type *base, bool byteMode);
 171:Generated_Source\PSoC6\pdl\drivers/peripheral/scb/cy_scb_common.h **** 
 172:Generated_Source\PSoC6\pdl\drivers/peripheral/scb/cy_scb_common.h **** __STATIC_INLINE uint32_t Cy_SCB_GetInterruptCause(CySCB_Type const *base);
 173:Generated_Source\PSoC6\pdl\drivers/peripheral/scb/cy_scb_common.h **** 
 174:Generated_Source\PSoC6\pdl\drivers/peripheral/scb/cy_scb_common.h **** __STATIC_INLINE uint32_t Cy_SCB_GetRxInterruptStatus(CySCB_Type const *base);
 175:Generated_Source\PSoC6\pdl\drivers/peripheral/scb/cy_scb_common.h **** __STATIC_INLINE void     Cy_SCB_SetRxInterruptMask  (CySCB_Type *base, uint32_t interruptMask);
 176:Generated_Source\PSoC6\pdl\drivers/peripheral/scb/cy_scb_common.h **** __STATIC_INLINE uint32_t Cy_SCB_GetRxInterruptMask  (CySCB_Type const *base);
 177:Generated_Source\PSoC6\pdl\drivers/peripheral/scb/cy_scb_common.h **** __STATIC_INLINE uint32_t Cy_SCB_GetRxInterruptStatusMasked(CySCB_Type const *base);
 178:Generated_Source\PSoC6\pdl\drivers/peripheral/scb/cy_scb_common.h **** __STATIC_INLINE void     Cy_SCB_ClearRxInterrupt    (CySCB_Type *base, uint32_t interruptMask);
 179:Generated_Source\PSoC6\pdl\drivers/peripheral/scb/cy_scb_common.h **** __STATIC_INLINE void     Cy_SCB_SetRxInterrupt      (CySCB_Type *base, uint32_t interruptMask);
 180:Generated_Source\PSoC6\pdl\drivers/peripheral/scb/cy_scb_common.h **** 
 181:Generated_Source\PSoC6\pdl\drivers/peripheral/scb/cy_scb_common.h **** __STATIC_INLINE uint32_t Cy_SCB_GetTxInterruptStatus(CySCB_Type const *base);
 182:Generated_Source\PSoC6\pdl\drivers/peripheral/scb/cy_scb_common.h **** __STATIC_INLINE void     Cy_SCB_SetTxInterruptMask  (CySCB_Type *base, uint32_t interruptMask);
 183:Generated_Source\PSoC6\pdl\drivers/peripheral/scb/cy_scb_common.h **** __STATIC_INLINE uint32_t Cy_SCB_GetTxInterruptMask  (CySCB_Type const *base);
 184:Generated_Source\PSoC6\pdl\drivers/peripheral/scb/cy_scb_common.h **** __STATIC_INLINE uint32_t Cy_SCB_GetTxInterruptStatusMasked(CySCB_Type const *base);
 185:Generated_Source\PSoC6\pdl\drivers/peripheral/scb/cy_scb_common.h **** __STATIC_INLINE void     Cy_SCB_ClearTxInterrupt    (CySCB_Type *base, uint32_t interruptMask);
 186:Generated_Source\PSoC6\pdl\drivers/peripheral/scb/cy_scb_common.h **** __STATIC_INLINE void     Cy_SCB_SetTxInterrupt      (CySCB_Type *base, uint32_t interruptMask);
 187:Generated_Source\PSoC6\pdl\drivers/peripheral/scb/cy_scb_common.h **** 
 188:Generated_Source\PSoC6\pdl\drivers/peripheral/scb/cy_scb_common.h **** __STATIC_INLINE uint32_t Cy_SCB_GetMasterInterruptStatus(CySCB_Type const *base);
 189:Generated_Source\PSoC6\pdl\drivers/peripheral/scb/cy_scb_common.h **** __STATIC_INLINE void     Cy_SCB_SetMasterInterruptMask  (CySCB_Type *base, uint32_t interruptMask);
 190:Generated_Source\PSoC6\pdl\drivers/peripheral/scb/cy_scb_common.h **** __STATIC_INLINE uint32_t Cy_SCB_GetMasterInterruptMask  (CySCB_Type const *base);
 191:Generated_Source\PSoC6\pdl\drivers/peripheral/scb/cy_scb_common.h **** __STATIC_INLINE uint32_t Cy_SCB_GetMasterInterruptStatusMasked(CySCB_Type const *base);
 192:Generated_Source\PSoC6\pdl\drivers/peripheral/scb/cy_scb_common.h **** __STATIC_INLINE void     Cy_SCB_ClearMasterInterrupt    (CySCB_Type *base, uint32_t interruptMask);
 193:Generated_Source\PSoC6\pdl\drivers/peripheral/scb/cy_scb_common.h **** __STATIC_INLINE void     Cy_SCB_SetMasterInterrupt      (CySCB_Type *base, uint32_t interruptMask);
 194:Generated_Source\PSoC6\pdl\drivers/peripheral/scb/cy_scb_common.h **** 
 195:Generated_Source\PSoC6\pdl\drivers/peripheral/scb/cy_scb_common.h **** __STATIC_INLINE uint32_t Cy_SCB_GetSlaveInterruptStatus(CySCB_Type const *base);
 196:Generated_Source\PSoC6\pdl\drivers/peripheral/scb/cy_scb_common.h **** __STATIC_INLINE void     Cy_SCB_SetSlaveInterruptMask  (CySCB_Type *base, uint32_t interruptMask);
 197:Generated_Source\PSoC6\pdl\drivers/peripheral/scb/cy_scb_common.h **** __STATIC_INLINE uint32_t Cy_SCB_GetSlaveInterruptMask  (CySCB_Type const *base);
 198:Generated_Source\PSoC6\pdl\drivers/peripheral/scb/cy_scb_common.h **** __STATIC_INLINE uint32_t Cy_SCB_GetSlaveInterruptStatusMasked(CySCB_Type const *base);
 199:Generated_Source\PSoC6\pdl\drivers/peripheral/scb/cy_scb_common.h **** __STATIC_INLINE void     Cy_SCB_ClearSlaveInterrupt    (CySCB_Type *base, uint32_t interruptMask);
ARM GAS  C:\Users\yomat\AppData\Local\Temp\cc0omv11.s 			page 89


 200:Generated_Source\PSoC6\pdl\drivers/peripheral/scb/cy_scb_common.h **** __STATIC_INLINE void     Cy_SCB_SetSlaveInterrupt      (CySCB_Type *base, uint32_t interruptMask);
 201:Generated_Source\PSoC6\pdl\drivers/peripheral/scb/cy_scb_common.h **** 
 202:Generated_Source\PSoC6\pdl\drivers/peripheral/scb/cy_scb_common.h **** __STATIC_INLINE uint32_t Cy_SCB_GetI2CInterruptStatus(CySCB_Type const *base);
 203:Generated_Source\PSoC6\pdl\drivers/peripheral/scb/cy_scb_common.h **** __STATIC_INLINE void     Cy_SCB_SetI2CInterruptMask  (CySCB_Type *base, uint32_t interruptMask);
 204:Generated_Source\PSoC6\pdl\drivers/peripheral/scb/cy_scb_common.h **** __STATIC_INLINE uint32_t Cy_SCB_GetI2CInterruptMask  (CySCB_Type const *base);
 205:Generated_Source\PSoC6\pdl\drivers/peripheral/scb/cy_scb_common.h **** __STATIC_INLINE uint32_t Cy_SCB_GetI2CInterruptStatusMasked(CySCB_Type const *base);
 206:Generated_Source\PSoC6\pdl\drivers/peripheral/scb/cy_scb_common.h **** __STATIC_INLINE void     Cy_SCB_ClearI2CInterrupt    (CySCB_Type *base, uint32_t interruptMask);
 207:Generated_Source\PSoC6\pdl\drivers/peripheral/scb/cy_scb_common.h **** 
 208:Generated_Source\PSoC6\pdl\drivers/peripheral/scb/cy_scb_common.h **** __STATIC_INLINE uint32_t Cy_SCB_GetSpiInterruptStatus(CySCB_Type const *base);
 209:Generated_Source\PSoC6\pdl\drivers/peripheral/scb/cy_scb_common.h **** __STATIC_INLINE void     Cy_SCB_SetSpiInterruptMask  (CySCB_Type *base, uint32_t interruptMask);
 210:Generated_Source\PSoC6\pdl\drivers/peripheral/scb/cy_scb_common.h **** __STATIC_INLINE uint32_t Cy_SCB_GetSpiInterruptMask  (CySCB_Type const *base);
 211:Generated_Source\PSoC6\pdl\drivers/peripheral/scb/cy_scb_common.h **** __STATIC_INLINE uint32_t Cy_SCB_GetSpiInterruptStatusMasked(CySCB_Type const *base);
 212:Generated_Source\PSoC6\pdl\drivers/peripheral/scb/cy_scb_common.h **** __STATIC_INLINE void     Cy_SCB_ClearSpiInterrupt    (CySCB_Type *base, uint32_t interruptMask);
 213:Generated_Source\PSoC6\pdl\drivers/peripheral/scb/cy_scb_common.h **** 
 214:Generated_Source\PSoC6\pdl\drivers/peripheral/scb/cy_scb_common.h **** 
 215:Generated_Source\PSoC6\pdl\drivers/peripheral/scb/cy_scb_common.h **** /*******************************************************************************
 216:Generated_Source\PSoC6\pdl\drivers/peripheral/scb/cy_scb_common.h **** *                         Internal Function Prototypes
 217:Generated_Source\PSoC6\pdl\drivers/peripheral/scb/cy_scb_common.h **** *******************************************************************************/
 218:Generated_Source\PSoC6\pdl\drivers/peripheral/scb/cy_scb_common.h **** 
 219:Generated_Source\PSoC6\pdl\drivers/peripheral/scb/cy_scb_common.h **** /** \cond INTERNAL */
 220:Generated_Source\PSoC6\pdl\drivers/peripheral/scb/cy_scb_common.h **** void     Cy_SCB_ReadArrayNoCheck  (CySCB_Type const *base, void *buffer, uint32_t size);
 221:Generated_Source\PSoC6\pdl\drivers/peripheral/scb/cy_scb_common.h **** uint32_t Cy_SCB_ReadArray         (CySCB_Type const *base, void *buffer, uint32_t size);
 222:Generated_Source\PSoC6\pdl\drivers/peripheral/scb/cy_scb_common.h **** void     Cy_SCB_ReadArrayBlocking (CySCB_Type const *base, void *buffer, uint32_t size);
 223:Generated_Source\PSoC6\pdl\drivers/peripheral/scb/cy_scb_common.h **** uint32_t Cy_SCB_Write             (CySCB_Type *base, uint32_t data);
 224:Generated_Source\PSoC6\pdl\drivers/peripheral/scb/cy_scb_common.h **** void     Cy_SCB_WriteArrayNoCheck (CySCB_Type *base, void *buffer, uint32_t size);
 225:Generated_Source\PSoC6\pdl\drivers/peripheral/scb/cy_scb_common.h **** uint32_t Cy_SCB_WriteArray        (CySCB_Type *base, void *buffer, uint32_t size);
 226:Generated_Source\PSoC6\pdl\drivers/peripheral/scb/cy_scb_common.h **** void     Cy_SCB_WriteArrayBlocking(CySCB_Type *base, void *buffer, uint32_t size);
 227:Generated_Source\PSoC6\pdl\drivers/peripheral/scb/cy_scb_common.h **** void     Cy_SCB_WriteString       (CySCB_Type *base, char_t const string[]);
 228:Generated_Source\PSoC6\pdl\drivers/peripheral/scb/cy_scb_common.h **** void     Cy_SCB_WriteDefaultArrayNoCheck(CySCB_Type *base, uint32_t txData, uint32_t size);
 229:Generated_Source\PSoC6\pdl\drivers/peripheral/scb/cy_scb_common.h **** uint32_t Cy_SCB_WriteDefaultArray (CySCB_Type *base, uint32_t txData, uint32_t size);
 230:Generated_Source\PSoC6\pdl\drivers/peripheral/scb/cy_scb_common.h **** 
 231:Generated_Source\PSoC6\pdl\drivers/peripheral/scb/cy_scb_common.h **** __STATIC_INLINE uint32_t Cy_SCB_GetFifoSize (CySCB_Type const *base);
 232:Generated_Source\PSoC6\pdl\drivers/peripheral/scb/cy_scb_common.h **** __STATIC_INLINE void     Cy_SCB_FwBlockReset(CySCB_Type *base);
 233:Generated_Source\PSoC6\pdl\drivers/peripheral/scb/cy_scb_common.h **** __STATIC_INLINE bool     Cy_SCB_IsRxDataWidthByte(CySCB_Type const *base);
 234:Generated_Source\PSoC6\pdl\drivers/peripheral/scb/cy_scb_common.h **** __STATIC_INLINE bool     Cy_SCB_IsTxDataWidthByte(CySCB_Type const *base);
 235:Generated_Source\PSoC6\pdl\drivers/peripheral/scb/cy_scb_common.h **** __STATIC_INLINE uint32_t Cy_SCB_GetRxFifoLevel   (CySCB_Type const *base);
 236:Generated_Source\PSoC6\pdl\drivers/peripheral/scb/cy_scb_common.h **** /** \endcond */
 237:Generated_Source\PSoC6\pdl\drivers/peripheral/scb/cy_scb_common.h **** 
 238:Generated_Source\PSoC6\pdl\drivers/peripheral/scb/cy_scb_common.h **** /** \} group_scb_common_functions */
 239:Generated_Source\PSoC6\pdl\drivers/peripheral/scb/cy_scb_common.h **** 
 240:Generated_Source\PSoC6\pdl\drivers/peripheral/scb/cy_scb_common.h **** 
 241:Generated_Source\PSoC6\pdl\drivers/peripheral/scb/cy_scb_common.h **** /*******************************************************************************
 242:Generated_Source\PSoC6\pdl\drivers/peripheral/scb/cy_scb_common.h **** *                        API Constants
 243:Generated_Source\PSoC6\pdl\drivers/peripheral/scb/cy_scb_common.h **** *******************************************************************************/
 244:Generated_Source\PSoC6\pdl\drivers/peripheral/scb/cy_scb_common.h **** 
 245:Generated_Source\PSoC6\pdl\drivers/peripheral/scb/cy_scb_common.h **** /**
 246:Generated_Source\PSoC6\pdl\drivers/peripheral/scb/cy_scb_common.h **** * \addtogroup group_scb_common_macros
 247:Generated_Source\PSoC6\pdl\drivers/peripheral/scb/cy_scb_common.h **** * \{
 248:Generated_Source\PSoC6\pdl\drivers/peripheral/scb/cy_scb_common.h **** */
 249:Generated_Source\PSoC6\pdl\drivers/peripheral/scb/cy_scb_common.h **** 
 250:Generated_Source\PSoC6\pdl\drivers/peripheral/scb/cy_scb_common.h **** /** Driver major version */
 251:Generated_Source\PSoC6\pdl\drivers/peripheral/scb/cy_scb_common.h **** #define CY_SCB_DRV_VERSION_MAJOR    (2)
 252:Generated_Source\PSoC6\pdl\drivers/peripheral/scb/cy_scb_common.h **** 
 253:Generated_Source\PSoC6\pdl\drivers/peripheral/scb/cy_scb_common.h **** /** Driver minor version */
 254:Generated_Source\PSoC6\pdl\drivers/peripheral/scb/cy_scb_common.h **** #define CY_SCB_DRV_VERSION_MINOR    (20)
 255:Generated_Source\PSoC6\pdl\drivers/peripheral/scb/cy_scb_common.h **** 
 256:Generated_Source\PSoC6\pdl\drivers/peripheral/scb/cy_scb_common.h **** /** SCB driver identifier */
ARM GAS  C:\Users\yomat\AppData\Local\Temp\cc0omv11.s 			page 90


 257:Generated_Source\PSoC6\pdl\drivers/peripheral/scb/cy_scb_common.h **** #define CY_SCB_ID           CY_PDL_DRV_ID(0x2AU)
 258:Generated_Source\PSoC6\pdl\drivers/peripheral/scb/cy_scb_common.h **** 
 259:Generated_Source\PSoC6\pdl\drivers/peripheral/scb/cy_scb_common.h **** /** Position for SCB driver sub mode */
 260:Generated_Source\PSoC6\pdl\drivers/peripheral/scb/cy_scb_common.h **** #define CY_SCB_SUB_MODE_Pos (13UL)
 261:Generated_Source\PSoC6\pdl\drivers/peripheral/scb/cy_scb_common.h **** 
 262:Generated_Source\PSoC6\pdl\drivers/peripheral/scb/cy_scb_common.h **** /** EZI2C mode identifier */
 263:Generated_Source\PSoC6\pdl\drivers/peripheral/scb/cy_scb_common.h **** #define CY_SCB_EZI2C_ID     (0x0UL << CY_SCB_SUB_MODE_Pos)
 264:Generated_Source\PSoC6\pdl\drivers/peripheral/scb/cy_scb_common.h **** 
 265:Generated_Source\PSoC6\pdl\drivers/peripheral/scb/cy_scb_common.h **** /** EZI2C mode identifier */
 266:Generated_Source\PSoC6\pdl\drivers/peripheral/scb/cy_scb_common.h **** #define CY_SCB_I2C_ID       (0x1UL << CY_SCB_SUB_MODE_Pos)
 267:Generated_Source\PSoC6\pdl\drivers/peripheral/scb/cy_scb_common.h **** 
 268:Generated_Source\PSoC6\pdl\drivers/peripheral/scb/cy_scb_common.h **** /** EZI2C mode identifier */
 269:Generated_Source\PSoC6\pdl\drivers/peripheral/scb/cy_scb_common.h **** #define CY_SCB_SPI_ID       (0x2UL << CY_SCB_SUB_MODE_Pos)
 270:Generated_Source\PSoC6\pdl\drivers/peripheral/scb/cy_scb_common.h **** 
 271:Generated_Source\PSoC6\pdl\drivers/peripheral/scb/cy_scb_common.h **** /** EZI2C mode identifier */
 272:Generated_Source\PSoC6\pdl\drivers/peripheral/scb/cy_scb_common.h **** #define CY_SCB_UART_ID      (0x3UL << CY_SCB_SUB_MODE_Pos)
 273:Generated_Source\PSoC6\pdl\drivers/peripheral/scb/cy_scb_common.h **** 
 274:Generated_Source\PSoC6\pdl\drivers/peripheral/scb/cy_scb_common.h **** /**
 275:Generated_Source\PSoC6\pdl\drivers/peripheral/scb/cy_scb_common.h **** * \defgroup group_scb_common_macros_intr_cause SCB Interrupt Causes
 276:Generated_Source\PSoC6\pdl\drivers/peripheral/scb/cy_scb_common.h **** * \{
 277:Generated_Source\PSoC6\pdl\drivers/peripheral/scb/cy_scb_common.h **** */
 278:Generated_Source\PSoC6\pdl\drivers/peripheral/scb/cy_scb_common.h **** /** Interrupt from Master interrupt sources */
 279:Generated_Source\PSoC6\pdl\drivers/peripheral/scb/cy_scb_common.h **** #define CY_SCB_MASTER_INTR SCB_INTR_CAUSE_M_Msk
 280:Generated_Source\PSoC6\pdl\drivers/peripheral/scb/cy_scb_common.h **** 
 281:Generated_Source\PSoC6\pdl\drivers/peripheral/scb/cy_scb_common.h **** /** Interrupt from Slave interrupt sources  */
 282:Generated_Source\PSoC6\pdl\drivers/peripheral/scb/cy_scb_common.h **** #define CY_SCB_SLAVE_INTR  SCB_INTR_CAUSE_S_Msk
 283:Generated_Source\PSoC6\pdl\drivers/peripheral/scb/cy_scb_common.h **** 
 284:Generated_Source\PSoC6\pdl\drivers/peripheral/scb/cy_scb_common.h **** /** Interrupt from TX interrupt sources */
 285:Generated_Source\PSoC6\pdl\drivers/peripheral/scb/cy_scb_common.h **** #define CY_SCB_TX_INTR     SCB_INTR_CAUSE_TX_Msk
 286:Generated_Source\PSoC6\pdl\drivers/peripheral/scb/cy_scb_common.h **** 
 287:Generated_Source\PSoC6\pdl\drivers/peripheral/scb/cy_scb_common.h **** /** Interrupt from RX interrupt sources */
 288:Generated_Source\PSoC6\pdl\drivers/peripheral/scb/cy_scb_common.h **** #define CY_SCB_RX_INTR     SCB_INTR_CAUSE_RX_Msk
 289:Generated_Source\PSoC6\pdl\drivers/peripheral/scb/cy_scb_common.h **** 
 290:Generated_Source\PSoC6\pdl\drivers/peripheral/scb/cy_scb_common.h **** /** Interrupt from I2C externally clocked interrupt sources */
 291:Generated_Source\PSoC6\pdl\drivers/peripheral/scb/cy_scb_common.h **** #define CY_SCB_I2C_INTR    SCB_INTR_CAUSE_I2C_EC_Msk
 292:Generated_Source\PSoC6\pdl\drivers/peripheral/scb/cy_scb_common.h **** 
 293:Generated_Source\PSoC6\pdl\drivers/peripheral/scb/cy_scb_common.h **** /** Interrupt from SPI externally clocked interrupt sources */
 294:Generated_Source\PSoC6\pdl\drivers/peripheral/scb/cy_scb_common.h **** #define CY_SCB_SPI_INTR    SCB_INTR_CAUSE_SPI_EC_Msk
 295:Generated_Source\PSoC6\pdl\drivers/peripheral/scb/cy_scb_common.h **** /** \} group_scb_common_macros_intr_cause */
 296:Generated_Source\PSoC6\pdl\drivers/peripheral/scb/cy_scb_common.h **** 
 297:Generated_Source\PSoC6\pdl\drivers/peripheral/scb/cy_scb_common.h **** /**
 298:Generated_Source\PSoC6\pdl\drivers/peripheral/scb/cy_scb_common.h **** * \defgroup group_scb_common_macros_tx_intr TX Interrupt Statuses
 299:Generated_Source\PSoC6\pdl\drivers/peripheral/scb/cy_scb_common.h **** * \{
 300:Generated_Source\PSoC6\pdl\drivers/peripheral/scb/cy_scb_common.h **** */
 301:Generated_Source\PSoC6\pdl\drivers/peripheral/scb/cy_scb_common.h **** /**
 302:Generated_Source\PSoC6\pdl\drivers/peripheral/scb/cy_scb_common.h **** * The number of data elements in the TX FIFO is less than the value
 303:Generated_Source\PSoC6\pdl\drivers/peripheral/scb/cy_scb_common.h **** * of the TX FIFO level
 304:Generated_Source\PSoC6\pdl\drivers/peripheral/scb/cy_scb_common.h **** */
 305:Generated_Source\PSoC6\pdl\drivers/peripheral/scb/cy_scb_common.h **** #define CY_SCB_TX_INTR_LEVEL           SCB_INTR_TX_TRIGGER_Msk
 306:Generated_Source\PSoC6\pdl\drivers/peripheral/scb/cy_scb_common.h **** 
 307:Generated_Source\PSoC6\pdl\drivers/peripheral/scb/cy_scb_common.h **** /** The TX FIFO is not full */
 308:Generated_Source\PSoC6\pdl\drivers/peripheral/scb/cy_scb_common.h **** #define CY_SCB_TX_INTR_NOT_FULL        SCB_INTR_TX_NOT_FULL_Msk
 309:Generated_Source\PSoC6\pdl\drivers/peripheral/scb/cy_scb_common.h **** 
 310:Generated_Source\PSoC6\pdl\drivers/peripheral/scb/cy_scb_common.h **** /** The TX FIFO is empty */
 311:Generated_Source\PSoC6\pdl\drivers/peripheral/scb/cy_scb_common.h **** #define CY_SCB_TX_INTR_EMPTY           SCB_INTR_TX_EMPTY_Msk
 312:Generated_Source\PSoC6\pdl\drivers/peripheral/scb/cy_scb_common.h **** 
 313:Generated_Source\PSoC6\pdl\drivers/peripheral/scb/cy_scb_common.h **** /** An attempt to write to a full TX FIFO */
ARM GAS  C:\Users\yomat\AppData\Local\Temp\cc0omv11.s 			page 91


 314:Generated_Source\PSoC6\pdl\drivers/peripheral/scb/cy_scb_common.h **** #define CY_SCB_TX_INTR_OVERFLOW        SCB_INTR_TX_OVERFLOW_Msk
 315:Generated_Source\PSoC6\pdl\drivers/peripheral/scb/cy_scb_common.h **** 
 316:Generated_Source\PSoC6\pdl\drivers/peripheral/scb/cy_scb_common.h **** /** An attempt to read from an empty TX FIFO */
 317:Generated_Source\PSoC6\pdl\drivers/peripheral/scb/cy_scb_common.h **** #define CY_SCB_TX_INTR_UNDERFLOW       SCB_INTR_TX_UNDERFLOW_Msk
 318:Generated_Source\PSoC6\pdl\drivers/peripheral/scb/cy_scb_common.h **** 
 319:Generated_Source\PSoC6\pdl\drivers/peripheral/scb/cy_scb_common.h **** /** The UART transfer is complete: all data elements from the TX FIFO are sent
 320:Generated_Source\PSoC6\pdl\drivers/peripheral/scb/cy_scb_common.h **** */
 321:Generated_Source\PSoC6\pdl\drivers/peripheral/scb/cy_scb_common.h **** #define CY_SCB_TX_INTR_UART_DONE       SCB_INTR_TX_UART_DONE_Msk
 322:Generated_Source\PSoC6\pdl\drivers/peripheral/scb/cy_scb_common.h **** 
 323:Generated_Source\PSoC6\pdl\drivers/peripheral/scb/cy_scb_common.h **** /** SmartCard only: UART received a NACK */
 324:Generated_Source\PSoC6\pdl\drivers/peripheral/scb/cy_scb_common.h **** #define CY_SCB_TX_INTR_UART_NACK       SCB_INTR_TX_UART_NACK_Msk
 325:Generated_Source\PSoC6\pdl\drivers/peripheral/scb/cy_scb_common.h **** 
 326:Generated_Source\PSoC6\pdl\drivers/peripheral/scb/cy_scb_common.h **** /**
 327:Generated_Source\PSoC6\pdl\drivers/peripheral/scb/cy_scb_common.h **** * SmartCard only: the value on the TX line of the UART does not match the
 328:Generated_Source\PSoC6\pdl\drivers/peripheral/scb/cy_scb_common.h **** * value on the RX line
 329:Generated_Source\PSoC6\pdl\drivers/peripheral/scb/cy_scb_common.h **** */
 330:Generated_Source\PSoC6\pdl\drivers/peripheral/scb/cy_scb_common.h **** #define CY_SCB_TX_INTR_UART_ARB_LOST   SCB_INTR_TX_UART_ARB_LOST_Msk
 331:Generated_Source\PSoC6\pdl\drivers/peripheral/scb/cy_scb_common.h **** /** \} group_scb_common_macros_tx_intr */
 332:Generated_Source\PSoC6\pdl\drivers/peripheral/scb/cy_scb_common.h **** 
 333:Generated_Source\PSoC6\pdl\drivers/peripheral/scb/cy_scb_common.h **** /**
 334:Generated_Source\PSoC6\pdl\drivers/peripheral/scb/cy_scb_common.h **** * \defgroup group_scb_common_macros_rx_intr RX Interrupt Statuses
 335:Generated_Source\PSoC6\pdl\drivers/peripheral/scb/cy_scb_common.h **** * \{
 336:Generated_Source\PSoC6\pdl\drivers/peripheral/scb/cy_scb_common.h **** */
 337:Generated_Source\PSoC6\pdl\drivers/peripheral/scb/cy_scb_common.h **** /**
 338:Generated_Source\PSoC6\pdl\drivers/peripheral/scb/cy_scb_common.h **** * The number of data elements in the RX FIFO is greater than the value of the
 339:Generated_Source\PSoC6\pdl\drivers/peripheral/scb/cy_scb_common.h **** * RX FIFO level
 340:Generated_Source\PSoC6\pdl\drivers/peripheral/scb/cy_scb_common.h **** */
 341:Generated_Source\PSoC6\pdl\drivers/peripheral/scb/cy_scb_common.h **** #define CY_SCB_RX_INTR_LEVEL             SCB_INTR_RX_TRIGGER_Msk
 342:Generated_Source\PSoC6\pdl\drivers/peripheral/scb/cy_scb_common.h **** 
 343:Generated_Source\PSoC6\pdl\drivers/peripheral/scb/cy_scb_common.h **** /** The RX FIFO is not empty */
 344:Generated_Source\PSoC6\pdl\drivers/peripheral/scb/cy_scb_common.h **** #define CY_SCB_RX_INTR_NOT_EMPTY         SCB_INTR_RX_NOT_EMPTY_Msk
 345:Generated_Source\PSoC6\pdl\drivers/peripheral/scb/cy_scb_common.h **** 
 346:Generated_Source\PSoC6\pdl\drivers/peripheral/scb/cy_scb_common.h **** /** The RX FIFO is full */
 347:Generated_Source\PSoC6\pdl\drivers/peripheral/scb/cy_scb_common.h **** #define CY_SCB_RX_INTR_FULL              SCB_INTR_RX_FULL_Msk
 348:Generated_Source\PSoC6\pdl\drivers/peripheral/scb/cy_scb_common.h **** 
 349:Generated_Source\PSoC6\pdl\drivers/peripheral/scb/cy_scb_common.h **** /** An attempt to write to a full RX FIFO */
 350:Generated_Source\PSoC6\pdl\drivers/peripheral/scb/cy_scb_common.h **** #define CY_SCB_RX_INTR_OVERFLOW          SCB_INTR_RX_OVERFLOW_Msk
 351:Generated_Source\PSoC6\pdl\drivers/peripheral/scb/cy_scb_common.h **** 
 352:Generated_Source\PSoC6\pdl\drivers/peripheral/scb/cy_scb_common.h **** /** An attempt to read from an empty RX FIFO */
 353:Generated_Source\PSoC6\pdl\drivers/peripheral/scb/cy_scb_common.h **** #define CY_SCB_RX_INTR_UNDERFLOW         SCB_INTR_RX_UNDERFLOW_Msk
 354:Generated_Source\PSoC6\pdl\drivers/peripheral/scb/cy_scb_common.h **** 
 355:Generated_Source\PSoC6\pdl\drivers/peripheral/scb/cy_scb_common.h **** /** A UART framing error detected */
 356:Generated_Source\PSoC6\pdl\drivers/peripheral/scb/cy_scb_common.h **** #define CY_SCB_RX_INTR_UART_FRAME_ERROR  SCB_INTR_RX_FRAME_ERROR_Msk
 357:Generated_Source\PSoC6\pdl\drivers/peripheral/scb/cy_scb_common.h **** 
 358:Generated_Source\PSoC6\pdl\drivers/peripheral/scb/cy_scb_common.h **** /** A UART parity error detected  */
 359:Generated_Source\PSoC6\pdl\drivers/peripheral/scb/cy_scb_common.h **** #define CY_SCB_RX_INTR_UART_PARITY_ERROR SCB_INTR_RX_PARITY_ERROR_Msk
 360:Generated_Source\PSoC6\pdl\drivers/peripheral/scb/cy_scb_common.h **** 
 361:Generated_Source\PSoC6\pdl\drivers/peripheral/scb/cy_scb_common.h **** /** A UART break detected */
 362:Generated_Source\PSoC6\pdl\drivers/peripheral/scb/cy_scb_common.h **** #define CY_SCB_RX_INTR_UART_BREAK_DETECT SCB_INTR_RX_BREAK_DETECT_Msk
 363:Generated_Source\PSoC6\pdl\drivers/peripheral/scb/cy_scb_common.h **** /** \} group_scb_common_macros_rx_intr */
 364:Generated_Source\PSoC6\pdl\drivers/peripheral/scb/cy_scb_common.h **** 
 365:Generated_Source\PSoC6\pdl\drivers/peripheral/scb/cy_scb_common.h **** /**
 366:Generated_Source\PSoC6\pdl\drivers/peripheral/scb/cy_scb_common.h **** * \defgroup group_scb_common_macros_slave_intr Slave Interrupt Statuses
 367:Generated_Source\PSoC6\pdl\drivers/peripheral/scb/cy_scb_common.h **** * \{
 368:Generated_Source\PSoC6\pdl\drivers/peripheral/scb/cy_scb_common.h **** */
 369:Generated_Source\PSoC6\pdl\drivers/peripheral/scb/cy_scb_common.h **** /**
 370:Generated_Source\PSoC6\pdl\drivers/peripheral/scb/cy_scb_common.h **** * I2C slave lost arbitration: the value driven on the SDA line is not the same
ARM GAS  C:\Users\yomat\AppData\Local\Temp\cc0omv11.s 			page 92


 371:Generated_Source\PSoC6\pdl\drivers/peripheral/scb/cy_scb_common.h **** * as the value observed on the SDA line
 372:Generated_Source\PSoC6\pdl\drivers/peripheral/scb/cy_scb_common.h **** */
 373:Generated_Source\PSoC6\pdl\drivers/peripheral/scb/cy_scb_common.h **** #define CY_SCB_SLAVE_INTR_I2C_ARB_LOST      SCB_INTR_S_I2C_ARB_LOST_Msk
 374:Generated_Source\PSoC6\pdl\drivers/peripheral/scb/cy_scb_common.h **** 
 375:Generated_Source\PSoC6\pdl\drivers/peripheral/scb/cy_scb_common.h **** /** The I2C slave received a NAK */
 376:Generated_Source\PSoC6\pdl\drivers/peripheral/scb/cy_scb_common.h **** #define CY_SCB_SLAVE_INTR_I2C_NACK          SCB_INTR_S_I2C_NACK_Msk
 377:Generated_Source\PSoC6\pdl\drivers/peripheral/scb/cy_scb_common.h **** 
 378:Generated_Source\PSoC6\pdl\drivers/peripheral/scb/cy_scb_common.h **** /** The I2C slave received  an ACK */
 379:Generated_Source\PSoC6\pdl\drivers/peripheral/scb/cy_scb_common.h **** #define CY_SCB_SLAVE_INTR_I2C_ACK           SCB_INTR_S_I2C_ACK_Msk
 380:Generated_Source\PSoC6\pdl\drivers/peripheral/scb/cy_scb_common.h **** 
 381:Generated_Source\PSoC6\pdl\drivers/peripheral/scb/cy_scb_common.h **** /**
 382:Generated_Source\PSoC6\pdl\drivers/peripheral/scb/cy_scb_common.h **** * A Stop or Repeated Start event for a write transfer intended for this slave
 383:Generated_Source\PSoC6\pdl\drivers/peripheral/scb/cy_scb_common.h **** * was detected.
 384:Generated_Source\PSoC6\pdl\drivers/peripheral/scb/cy_scb_common.h **** */
 385:Generated_Source\PSoC6\pdl\drivers/peripheral/scb/cy_scb_common.h **** #define CY_SCB_SLAVE_INTR_I2C_WRITE_STOP    SCB_INTR_S_I2C_WRITE_STOP_Msk
 386:Generated_Source\PSoC6\pdl\drivers/peripheral/scb/cy_scb_common.h **** 
 387:Generated_Source\PSoC6\pdl\drivers/peripheral/scb/cy_scb_common.h **** /** A Stop or Repeated Start event intended for this slave was detected */
 388:Generated_Source\PSoC6\pdl\drivers/peripheral/scb/cy_scb_common.h **** #define CY_SCB_SLAVE_INTR_I2C_STOP          SCB_INTR_S_I2C_STOP_Msk
 389:Generated_Source\PSoC6\pdl\drivers/peripheral/scb/cy_scb_common.h **** 
 390:Generated_Source\PSoC6\pdl\drivers/peripheral/scb/cy_scb_common.h **** /** The I2C slave received a Start condition */
 391:Generated_Source\PSoC6\pdl\drivers/peripheral/scb/cy_scb_common.h **** #define CY_SCB_SLAVE_INTR_I2C_START         SCB_INTR_S_I2C_START_Msk
 392:Generated_Source\PSoC6\pdl\drivers/peripheral/scb/cy_scb_common.h **** 
 393:Generated_Source\PSoC6\pdl\drivers/peripheral/scb/cy_scb_common.h **** /** The I2C slave received the matching address */
 394:Generated_Source\PSoC6\pdl\drivers/peripheral/scb/cy_scb_common.h **** #define CY_SCB_SLAVE_INTR_I2C_ADDR_MATCH    SCB_INTR_S_I2C_ADDR_MATCH_Msk
 395:Generated_Source\PSoC6\pdl\drivers/peripheral/scb/cy_scb_common.h **** 
 396:Generated_Source\PSoC6\pdl\drivers/peripheral/scb/cy_scb_common.h **** /** The I2C Slave received the general call address */
 397:Generated_Source\PSoC6\pdl\drivers/peripheral/scb/cy_scb_common.h **** #define CY_SCB_SLAVE_INTR_I2C_GENERAL_ADDR  SCB_INTR_S_I2C_GENERAL_Msk
 398:Generated_Source\PSoC6\pdl\drivers/peripheral/scb/cy_scb_common.h **** 
 399:Generated_Source\PSoC6\pdl\drivers/peripheral/scb/cy_scb_common.h **** /** The I2C slave bus error (detection of unexpected Start or Stop condition) */
 400:Generated_Source\PSoC6\pdl\drivers/peripheral/scb/cy_scb_common.h **** #define CY_SCB_SLAVE_INTR_I2C_BUS_ERROR     SCB_INTR_S_I2C_BUS_ERROR_Msk
 401:Generated_Source\PSoC6\pdl\drivers/peripheral/scb/cy_scb_common.h **** 
 402:Generated_Source\PSoC6\pdl\drivers/peripheral/scb/cy_scb_common.h **** /**
 403:Generated_Source\PSoC6\pdl\drivers/peripheral/scb/cy_scb_common.h **** * The SPI slave select line is deselected at an expected time during an
 404:Generated_Source\PSoC6\pdl\drivers/peripheral/scb/cy_scb_common.h **** * SPI transfer.
 405:Generated_Source\PSoC6\pdl\drivers/peripheral/scb/cy_scb_common.h **** */
 406:Generated_Source\PSoC6\pdl\drivers/peripheral/scb/cy_scb_common.h **** #define CY_SCB_SLAVE_INTR_SPI_BUS_ERROR     SCB_INTR_S_SPI_BUS_ERROR_Msk
 407:Generated_Source\PSoC6\pdl\drivers/peripheral/scb/cy_scb_common.h **** /** \} group_scb_common_macros_slave_intr */
 408:Generated_Source\PSoC6\pdl\drivers/peripheral/scb/cy_scb_common.h **** 
 409:Generated_Source\PSoC6\pdl\drivers/peripheral/scb/cy_scb_common.h **** /**
 410:Generated_Source\PSoC6\pdl\drivers/peripheral/scb/cy_scb_common.h **** * \defgroup group_scb_common_macros_master_intr Master Interrupt Statuses
 411:Generated_Source\PSoC6\pdl\drivers/peripheral/scb/cy_scb_common.h **** * \{
 412:Generated_Source\PSoC6\pdl\drivers/peripheral/scb/cy_scb_common.h **** */
 413:Generated_Source\PSoC6\pdl\drivers/peripheral/scb/cy_scb_common.h **** /** The I2C master lost arbitration */
 414:Generated_Source\PSoC6\pdl\drivers/peripheral/scb/cy_scb_common.h **** #define CY_SCB_MASTER_INTR_I2C_ARB_LOST    SCB_INTR_M_I2C_ARB_LOST_Msk
 415:Generated_Source\PSoC6\pdl\drivers/peripheral/scb/cy_scb_common.h **** 
 416:Generated_Source\PSoC6\pdl\drivers/peripheral/scb/cy_scb_common.h **** /** The I2C master received a NACK */
 417:Generated_Source\PSoC6\pdl\drivers/peripheral/scb/cy_scb_common.h **** #define CY_SCB_MASTER_INTR_I2C_NACK        SCB_INTR_M_I2C_NACK_Msk
 418:Generated_Source\PSoC6\pdl\drivers/peripheral/scb/cy_scb_common.h **** 
 419:Generated_Source\PSoC6\pdl\drivers/peripheral/scb/cy_scb_common.h **** /** The I2C master received an ACK */
 420:Generated_Source\PSoC6\pdl\drivers/peripheral/scb/cy_scb_common.h **** #define CY_SCB_MASTER_INTR_I2C_ACK         SCB_INTR_M_I2C_ACK_Msk
 421:Generated_Source\PSoC6\pdl\drivers/peripheral/scb/cy_scb_common.h **** 
 422:Generated_Source\PSoC6\pdl\drivers/peripheral/scb/cy_scb_common.h **** /** The I2C master generated a Stop */
 423:Generated_Source\PSoC6\pdl\drivers/peripheral/scb/cy_scb_common.h **** #define CY_SCB_MASTER_INTR_I2C_STOP        SCB_INTR_M_I2C_STOP_Msk
 424:Generated_Source\PSoC6\pdl\drivers/peripheral/scb/cy_scb_common.h **** 
 425:Generated_Source\PSoC6\pdl\drivers/peripheral/scb/cy_scb_common.h **** /** The I2C master bus error (detection of unexpected START or STOP condition)
 426:Generated_Source\PSoC6\pdl\drivers/peripheral/scb/cy_scb_common.h **** */
 427:Generated_Source\PSoC6\pdl\drivers/peripheral/scb/cy_scb_common.h **** #define CY_SCB_MASTER_INTR_I2C_BUS_ERROR   SCB_INTR_M_I2C_BUS_ERROR_Msk
ARM GAS  C:\Users\yomat\AppData\Local\Temp\cc0omv11.s 			page 93


 428:Generated_Source\PSoC6\pdl\drivers/peripheral/scb/cy_scb_common.h **** 
 429:Generated_Source\PSoC6\pdl\drivers/peripheral/scb/cy_scb_common.h **** /**
 430:Generated_Source\PSoC6\pdl\drivers/peripheral/scb/cy_scb_common.h **** * The SPI master transfer is complete: all data elements transferred from the
 431:Generated_Source\PSoC6\pdl\drivers/peripheral/scb/cy_scb_common.h **** * TX FIFO and TX shift register.
 432:Generated_Source\PSoC6\pdl\drivers/peripheral/scb/cy_scb_common.h **** */
 433:Generated_Source\PSoC6\pdl\drivers/peripheral/scb/cy_scb_common.h **** #define CY_SCB_MASTER_INTR_SPI_DONE        SCB_INTR_M_SPI_DONE_Msk
 434:Generated_Source\PSoC6\pdl\drivers/peripheral/scb/cy_scb_common.h **** /** \} group_scb_common_macros_master_intr */
 435:Generated_Source\PSoC6\pdl\drivers/peripheral/scb/cy_scb_common.h **** 
 436:Generated_Source\PSoC6\pdl\drivers/peripheral/scb/cy_scb_common.h **** /**
 437:Generated_Source\PSoC6\pdl\drivers/peripheral/scb/cy_scb_common.h **** * \defgroup group_scb_common_macros_i2c_intr I2C Interrupt Statuses
 438:Generated_Source\PSoC6\pdl\drivers/peripheral/scb/cy_scb_common.h **** * \{
 439:Generated_Source\PSoC6\pdl\drivers/peripheral/scb/cy_scb_common.h **** */
 440:Generated_Source\PSoC6\pdl\drivers/peripheral/scb/cy_scb_common.h **** /**
 441:Generated_Source\PSoC6\pdl\drivers/peripheral/scb/cy_scb_common.h **** * Wake up request: the I2C slave received the matching address.
 442:Generated_Source\PSoC6\pdl\drivers/peripheral/scb/cy_scb_common.h **** * Note that this interrupt source triggers in active mode.
 443:Generated_Source\PSoC6\pdl\drivers/peripheral/scb/cy_scb_common.h **** */
 444:Generated_Source\PSoC6\pdl\drivers/peripheral/scb/cy_scb_common.h **** #define CY_SCB_I2C_INTR_WAKEUP     SCB_INTR_I2C_EC_WAKE_UP_Msk
 445:Generated_Source\PSoC6\pdl\drivers/peripheral/scb/cy_scb_common.h **** /** \} group_scb_common_macros_i2c_intr */
 446:Generated_Source\PSoC6\pdl\drivers/peripheral/scb/cy_scb_common.h **** 
 447:Generated_Source\PSoC6\pdl\drivers/peripheral/scb/cy_scb_common.h **** /**
 448:Generated_Source\PSoC6\pdl\drivers/peripheral/scb/cy_scb_common.h **** * \defgroup group_scb_common_macros_SpiIntrStatuses SPI Interrupt Statuses
 449:Generated_Source\PSoC6\pdl\drivers/peripheral/scb/cy_scb_common.h **** * \{
 450:Generated_Source\PSoC6\pdl\drivers/peripheral/scb/cy_scb_common.h **** */
 451:Generated_Source\PSoC6\pdl\drivers/peripheral/scb/cy_scb_common.h **** /**
 452:Generated_Source\PSoC6\pdl\drivers/peripheral/scb/cy_scb_common.h **** * Wake up request: the SPI slave detects an active edge of the slave select
 453:Generated_Source\PSoC6\pdl\drivers/peripheral/scb/cy_scb_common.h **** * signal. Note that this interrupt source triggers in active mode.
 454:Generated_Source\PSoC6\pdl\drivers/peripheral/scb/cy_scb_common.h **** */
 455:Generated_Source\PSoC6\pdl\drivers/peripheral/scb/cy_scb_common.h **** #define CY_SCB_SPI_INTR_WAKEUP     SCB_INTR_SPI_EC_WAKE_UP_Msk
 456:Generated_Source\PSoC6\pdl\drivers/peripheral/scb/cy_scb_common.h **** /** \} group_scb_common_macros_SpiIntrStatuses */
 457:Generated_Source\PSoC6\pdl\drivers/peripheral/scb/cy_scb_common.h **** 
 458:Generated_Source\PSoC6\pdl\drivers/peripheral/scb/cy_scb_common.h **** 
 459:Generated_Source\PSoC6\pdl\drivers/peripheral/scb/cy_scb_common.h **** /*******************************************************************************
 460:Generated_Source\PSoC6\pdl\drivers/peripheral/scb/cy_scb_common.h **** *                           Internal Constants
 461:Generated_Source\PSoC6\pdl\drivers/peripheral/scb/cy_scb_common.h **** *******************************************************************************/
 462:Generated_Source\PSoC6\pdl\drivers/peripheral/scb/cy_scb_common.h **** 
 463:Generated_Source\PSoC6\pdl\drivers/peripheral/scb/cy_scb_common.h **** /** \cond INTERNAL */
 464:Generated_Source\PSoC6\pdl\drivers/peripheral/scb/cy_scb_common.h **** 
 465:Generated_Source\PSoC6\pdl\drivers/peripheral/scb/cy_scb_common.h **** /* Default registers values */
 466:Generated_Source\PSoC6\pdl\drivers/peripheral/scb/cy_scb_common.h **** #define CY_SCB_CTRL_DEF_VAL         (_VAL2FLD(SCB_CTRL_OVS, 15UL) | \
 467:Generated_Source\PSoC6\pdl\drivers/peripheral/scb/cy_scb_common.h ****                                      _VAL2FLD(SCB_CTRL_MODE, 3UL))
 468:Generated_Source\PSoC6\pdl\drivers/peripheral/scb/cy_scb_common.h **** 
 469:Generated_Source\PSoC6\pdl\drivers/peripheral/scb/cy_scb_common.h **** #define CY_SCB_I2C_CTRL_DEF_VAL     (_VAL2FLD(SCB_I2C_CTRL_HIGH_PHASE_OVS, 8UL)        | \
 470:Generated_Source\PSoC6\pdl\drivers/peripheral/scb/cy_scb_common.h ****                                      _VAL2FLD(SCB_I2C_CTRL_HIGH_PHASE_OVS, 8UL)        | \
 471:Generated_Source\PSoC6\pdl\drivers/peripheral/scb/cy_scb_common.h ****                                      _VAL2FLD(SCB_I2C_CTRL_M_READY_DATA_ACK, 1UL)      | \
 472:Generated_Source\PSoC6\pdl\drivers/peripheral/scb/cy_scb_common.h ****                                      _VAL2FLD(SCB_I2C_CTRL_M_NOT_READY_DATA_NACK, 1UL) | \
 473:Generated_Source\PSoC6\pdl\drivers/peripheral/scb/cy_scb_common.h ****                                      _VAL2FLD(SCB_I2C_CTRL_S_GENERAL_IGNORE, 1UL)      | \
 474:Generated_Source\PSoC6\pdl\drivers/peripheral/scb/cy_scb_common.h ****                                      _VAL2FLD(SCB_I2C_CTRL_S_READY_ADDR_ACK, 1UL)      | \
 475:Generated_Source\PSoC6\pdl\drivers/peripheral/scb/cy_scb_common.h ****                                      _VAL2FLD(SCB_I2C_CTRL_S_READY_DATA_ACK, 1UL)      | \
 476:Generated_Source\PSoC6\pdl\drivers/peripheral/scb/cy_scb_common.h ****                                      _VAL2FLD(SCB_I2C_CTRL_S_NOT_READY_ADDR_NACK, 1UL) | \
 477:Generated_Source\PSoC6\pdl\drivers/peripheral/scb/cy_scb_common.h ****                                      _VAL2FLD(SCB_I2C_CTRL_S_NOT_READY_DATA_NACK, 1UL))
 478:Generated_Source\PSoC6\pdl\drivers/peripheral/scb/cy_scb_common.h **** 
 479:Generated_Source\PSoC6\pdl\drivers/peripheral/scb/cy_scb_common.h **** #define CY_SCB_I2C_CFG_DEF_VAL      (_VAL2FLD(SCB_I2C_CFG_SDA_IN_FILT_TRIM, 3UL)   | \
 480:Generated_Source\PSoC6\pdl\drivers/peripheral/scb/cy_scb_common.h ****                                      _VAL2FLD(SCB_I2C_CFG_SDA_IN_FILT_SEL, 1UL)    | \
 481:Generated_Source\PSoC6\pdl\drivers/peripheral/scb/cy_scb_common.h ****                                      _VAL2FLD(SCB_I2C_CFG_SCL_IN_FILT_SEL, 1UL)    | \
 482:Generated_Source\PSoC6\pdl\drivers/peripheral/scb/cy_scb_common.h ****                                      _VAL2FLD(SCB_I2C_CFG_SDA_OUT_FILT0_TRIM, 2UL) | \
 483:Generated_Source\PSoC6\pdl\drivers/peripheral/scb/cy_scb_common.h ****                                      _VAL2FLD(SCB_I2C_CFG_SDA_OUT_FILT1_TRIM, 2UL) | \
 484:Generated_Source\PSoC6\pdl\drivers/peripheral/scb/cy_scb_common.h ****                                      _VAL2FLD(SCB_I2C_CFG_SDA_OUT_FILT2_TRIM, 2UL))
ARM GAS  C:\Users\yomat\AppData\Local\Temp\cc0omv11.s 			page 94


 485:Generated_Source\PSoC6\pdl\drivers/peripheral/scb/cy_scb_common.h **** 
 486:Generated_Source\PSoC6\pdl\drivers/peripheral/scb/cy_scb_common.h **** #define CY_SCB_SPI_CTRL_DEF_VAL     _VAL2FLD(SCB_SPI_CTRL_MODE, 3UL)
 487:Generated_Source\PSoC6\pdl\drivers/peripheral/scb/cy_scb_common.h **** #define CY_SCB_UART_CTRL_DEF_VAL    _VAL2FLD(SCB_UART_CTRL_MODE, 3UL)
 488:Generated_Source\PSoC6\pdl\drivers/peripheral/scb/cy_scb_common.h **** 
 489:Generated_Source\PSoC6\pdl\drivers/peripheral/scb/cy_scb_common.h **** #define CY_SCB_UART_RX_CTRL_DEF_VAL (_VAL2FLD(SCB_UART_RX_CTRL_STOP_BITS, 2UL) | \
 490:Generated_Source\PSoC6\pdl\drivers/peripheral/scb/cy_scb_common.h ****                                      _VAL2FLD(SCB_UART_RX_CTRL_BREAK_WIDTH, 10UL))
 491:Generated_Source\PSoC6\pdl\drivers/peripheral/scb/cy_scb_common.h **** 
 492:Generated_Source\PSoC6\pdl\drivers/peripheral/scb/cy_scb_common.h **** #define CY_SCB_UART_TX_CTRL_DEF_VAL _VAL2FLD(SCB_UART_TX_CTRL_STOP_BITS, 2UL)
 493:Generated_Source\PSoC6\pdl\drivers/peripheral/scb/cy_scb_common.h **** 
 494:Generated_Source\PSoC6\pdl\drivers/peripheral/scb/cy_scb_common.h **** #define CY_SCB_RX_CTRL_DEF_VAL      (_VAL2FLD(SCB_RX_CTRL_DATA_WIDTH, 7UL) | \
 495:Generated_Source\PSoC6\pdl\drivers/peripheral/scb/cy_scb_common.h ****                                      _VAL2FLD(SCB_RX_CTRL_MSB_FIRST,  1UL))
 496:Generated_Source\PSoC6\pdl\drivers/peripheral/scb/cy_scb_common.h **** 
 497:Generated_Source\PSoC6\pdl\drivers/peripheral/scb/cy_scb_common.h **** #define CY_SCB_TX_CTRL_DEF_VAL      (_VAL2FLD(SCB_TX_CTRL_DATA_WIDTH, 7UL) | \
 498:Generated_Source\PSoC6\pdl\drivers/peripheral/scb/cy_scb_common.h ****                                      _VAL2FLD(SCB_TX_CTRL_MSB_FIRST,  1UL))
 499:Generated_Source\PSoC6\pdl\drivers/peripheral/scb/cy_scb_common.h **** 
 500:Generated_Source\PSoC6\pdl\drivers/peripheral/scb/cy_scb_common.h **** /* SCB CTRL modes */
 501:Generated_Source\PSoC6\pdl\drivers/peripheral/scb/cy_scb_common.h **** #define CY_SCB_CTRL_MODE_I2C   (0UL)
 502:Generated_Source\PSoC6\pdl\drivers/peripheral/scb/cy_scb_common.h **** #define CY_SCB_CTRL_MODE_SPI   (1UL)
 503:Generated_Source\PSoC6\pdl\drivers/peripheral/scb/cy_scb_common.h **** #define CY_SCB_CTRL_MODE_UART  (2UL)
 504:Generated_Source\PSoC6\pdl\drivers/peripheral/scb/cy_scb_common.h **** 
 505:Generated_Source\PSoC6\pdl\drivers/peripheral/scb/cy_scb_common.h **** /* The position and mask to set the I2C mode */
 506:Generated_Source\PSoC6\pdl\drivers/peripheral/scb/cy_scb_common.h **** #define CY_SCB_I2C_CTRL_MODE_Pos    SCB_I2C_CTRL_SLAVE_MODE_Pos
 507:Generated_Source\PSoC6\pdl\drivers/peripheral/scb/cy_scb_common.h **** #define CY_SCB_I2C_CTRL_MODE_Msk    (SCB_I2C_CTRL_SLAVE_MODE_Msk | \
 508:Generated_Source\PSoC6\pdl\drivers/peripheral/scb/cy_scb_common.h ****                                      SCB_I2C_CTRL_MASTER_MODE_Msk)
 509:Generated_Source\PSoC6\pdl\drivers/peripheral/scb/cy_scb_common.h **** 
 510:Generated_Source\PSoC6\pdl\drivers/peripheral/scb/cy_scb_common.h **** /* Cypress ID #282226:
 511:Generated_Source\PSoC6\pdl\drivers/peripheral/scb/cy_scb_common.h **** * SCB_I2C_CFG_SDA_IN_FILT_TRIM[1]: SCB clock enable (1), clock disable (0).
 512:Generated_Source\PSoC6\pdl\drivers/peripheral/scb/cy_scb_common.h **** */
 513:Generated_Source\PSoC6\pdl\drivers/peripheral/scb/cy_scb_common.h **** #define CY_SCB_I2C_CFG_CLK_ENABLE_Msk  (_VAL2FLD(SCB_I2C_CFG_SDA_IN_FILT_TRIM, 2UL))
 514:Generated_Source\PSoC6\pdl\drivers/peripheral/scb/cy_scb_common.h **** 
 515:Generated_Source\PSoC6\pdl\drivers/peripheral/scb/cy_scb_common.h **** /* I2C has fixed data width */
 516:Generated_Source\PSoC6\pdl\drivers/peripheral/scb/cy_scb_common.h **** #define CY_SCB_I2C_DATA_WIDTH   (7UL)
 517:Generated_Source\PSoC6\pdl\drivers/peripheral/scb/cy_scb_common.h **** 
 518:Generated_Source\PSoC6\pdl\drivers/peripheral/scb/cy_scb_common.h **** /* RX and TX control register values */
 519:Generated_Source\PSoC6\pdl\drivers/peripheral/scb/cy_scb_common.h **** #define CY_SCB_I2C_RX_CTRL      (_VAL2FLD(SCB_RX_CTRL_DATA_WIDTH, CY_SCB_I2C_DATA_WIDTH) | \
 520:Generated_Source\PSoC6\pdl\drivers/peripheral/scb/cy_scb_common.h ****                                  SCB_RX_CTRL_MSB_FIRST_Msk)
 521:Generated_Source\PSoC6\pdl\drivers/peripheral/scb/cy_scb_common.h **** #define CY_SCB_I2C_TX_CTRL      (_VAL2FLD(SCB_TX_CTRL_DATA_WIDTH, CY_SCB_I2C_DATA_WIDTH) | \
 522:Generated_Source\PSoC6\pdl\drivers/peripheral/scb/cy_scb_common.h ****                                  SCB_TX_CTRL_MSB_FIRST_Msk | SCB_TX_CTRL_OPEN_DRAIN_Msk)
 523:Generated_Source\PSoC6\pdl\drivers/peripheral/scb/cy_scb_common.h **** 
 524:Generated_Source\PSoC6\pdl\drivers/peripheral/scb/cy_scb_common.h **** /* The position and mask to make an address byte */
 525:Generated_Source\PSoC6\pdl\drivers/peripheral/scb/cy_scb_common.h **** #define CY_SCB_I2C_ADDRESS_Pos  (1UL)
 526:Generated_Source\PSoC6\pdl\drivers/peripheral/scb/cy_scb_common.h **** #define CY_SCB_I2C_ADDRESS_Msk  (0xFEUL)
 527:Generated_Source\PSoC6\pdl\drivers/peripheral/scb/cy_scb_common.h **** 
 528:Generated_Source\PSoC6\pdl\drivers/peripheral/scb/cy_scb_common.h **** /* SPI slave select polarity */
 529:Generated_Source\PSoC6\pdl\drivers/peripheral/scb/cy_scb_common.h **** #define CY_SCB_SPI_CTRL_SSEL_POLARITY_Pos   SCB_SPI_CTRL_SSEL_POLARITY0_Pos
 530:Generated_Source\PSoC6\pdl\drivers/peripheral/scb/cy_scb_common.h **** #define CY_SCB_SPI_CTRL_SSEL_POLARITY_Msk   (SCB_SPI_CTRL_SSEL_POLARITY0_Msk | \
 531:Generated_Source\PSoC6\pdl\drivers/peripheral/scb/cy_scb_common.h ****                                              SCB_SPI_CTRL_SSEL_POLARITY1_Msk | \
 532:Generated_Source\PSoC6\pdl\drivers/peripheral/scb/cy_scb_common.h ****                                              SCB_SPI_CTRL_SSEL_POLARITY2_Msk | \
 533:Generated_Source\PSoC6\pdl\drivers/peripheral/scb/cy_scb_common.h ****                                              SCB_SPI_CTRL_SSEL_POLARITY3_Msk)
 534:Generated_Source\PSoC6\pdl\drivers/peripheral/scb/cy_scb_common.h **** 
 535:Generated_Source\PSoC6\pdl\drivers/peripheral/scb/cy_scb_common.h **** /* SPI clock modes: CPHA and CPOL */
 536:Generated_Source\PSoC6\pdl\drivers/peripheral/scb/cy_scb_common.h **** #define CY_SCB_SPI_CTRL_CLK_MODE_Pos    SCB_SPI_CTRL_CPHA_Pos
 537:Generated_Source\PSoC6\pdl\drivers/peripheral/scb/cy_scb_common.h **** #define CY_SCB_SPI_CTRL_CLK_MODE_Msk    (SCB_SPI_CTRL_CPHA_Msk | SCB_SPI_CTRL_CPOL_Msk)
 538:Generated_Source\PSoC6\pdl\drivers/peripheral/scb/cy_scb_common.h **** 
 539:Generated_Source\PSoC6\pdl\drivers/peripheral/scb/cy_scb_common.h **** /* UART parity and parity enable combination */
 540:Generated_Source\PSoC6\pdl\drivers/peripheral/scb/cy_scb_common.h **** #define CY_SCB_UART_RX_CTRL_SET_PARITY_Msk      (SCB_UART_RX_CTRL_PARITY_ENABLED_Msk | \
 541:Generated_Source\PSoC6\pdl\drivers/peripheral/scb/cy_scb_common.h ****                                                  SCB_UART_RX_CTRL_PARITY_Msk)
ARM GAS  C:\Users\yomat\AppData\Local\Temp\cc0omv11.s 			page 95


 542:Generated_Source\PSoC6\pdl\drivers/peripheral/scb/cy_scb_common.h **** #define CY_SCB_UART_RX_CTRL_SET_PARITY_Pos      SCB_UART_RX_CTRL_PARITY_Pos
 543:Generated_Source\PSoC6\pdl\drivers/peripheral/scb/cy_scb_common.h **** 
 544:Generated_Source\PSoC6\pdl\drivers/peripheral/scb/cy_scb_common.h **** #define CY_SCB_UART_TX_CTRL_SET_PARITY_Msk      (SCB_UART_TX_CTRL_PARITY_ENABLED_Msk | \
 545:Generated_Source\PSoC6\pdl\drivers/peripheral/scb/cy_scb_common.h ****                                                  SCB_UART_TX_CTRL_PARITY_Msk)
 546:Generated_Source\PSoC6\pdl\drivers/peripheral/scb/cy_scb_common.h **** #define CY_SCB_UART_TX_CTRL_SET_PARITY_Pos      SCB_UART_TX_CTRL_PARITY_Pos
 547:Generated_Source\PSoC6\pdl\drivers/peripheral/scb/cy_scb_common.h **** 
 548:Generated_Source\PSoC6\pdl\drivers/peripheral/scb/cy_scb_common.h **** /* Max number of bits for byte mode */
 549:Generated_Source\PSoC6\pdl\drivers/peripheral/scb/cy_scb_common.h **** #define CY_SCB_BYTE_WIDTH   (8UL)
 550:Generated_Source\PSoC6\pdl\drivers/peripheral/scb/cy_scb_common.h **** 
 551:Generated_Source\PSoC6\pdl\drivers/peripheral/scb/cy_scb_common.h **** /* Single unit to wait */
 552:Generated_Source\PSoC6\pdl\drivers/peripheral/scb/cy_scb_common.h **** #define CY_SCB_WAIT_1_UNIT  (1U)
 553:Generated_Source\PSoC6\pdl\drivers/peripheral/scb/cy_scb_common.h **** 
 554:Generated_Source\PSoC6\pdl\drivers/peripheral/scb/cy_scb_common.h **** /* Clear interrupt sources */
 555:Generated_Source\PSoC6\pdl\drivers/peripheral/scb/cy_scb_common.h **** #define CY_SCB_CLEAR_ALL_INTR_SRC   (0UL)
 556:Generated_Source\PSoC6\pdl\drivers/peripheral/scb/cy_scb_common.h **** 
 557:Generated_Source\PSoC6\pdl\drivers/peripheral/scb/cy_scb_common.h **** /* Hardware FIFO size: EZ_DATA_NR / 4 = (512 / 4) = 128 */
 558:Generated_Source\PSoC6\pdl\drivers/peripheral/scb/cy_scb_common.h **** #define CY_SCB_FIFO_SIZE            (128UL)
 559:Generated_Source\PSoC6\pdl\drivers/peripheral/scb/cy_scb_common.h **** 
 560:Generated_Source\PSoC6\pdl\drivers/peripheral/scb/cy_scb_common.h **** /* Provides a list of allowed sources */
 561:Generated_Source\PSoC6\pdl\drivers/peripheral/scb/cy_scb_common.h **** #define CY_SCB_TX_INTR_MASK     (CY_SCB_TX_INTR_LEVEL     | CY_SCB_TX_INTR_NOT_FULL  | CY_SCB_TX_IN
 562:Generated_Source\PSoC6\pdl\drivers/peripheral/scb/cy_scb_common.h ****                                  CY_SCB_TX_INTR_OVERFLOW  | CY_SCB_TX_INTR_UNDERFLOW | CY_SCB_TX_IN
 563:Generated_Source\PSoC6\pdl\drivers/peripheral/scb/cy_scb_common.h ****                                  CY_SCB_TX_INTR_UART_NACK | CY_SCB_TX_INTR_UART_ARB_LOST)
 564:Generated_Source\PSoC6\pdl\drivers/peripheral/scb/cy_scb_common.h **** 
 565:Generated_Source\PSoC6\pdl\drivers/peripheral/scb/cy_scb_common.h **** #define CY_SCB_RX_INTR_MASK     (CY_SCB_RX_INTR_LEVEL             | CY_SCB_RX_INTR_NOT_EMPTY | CY_S
 566:Generated_Source\PSoC6\pdl\drivers/peripheral/scb/cy_scb_common.h ****                                  CY_SCB_RX_INTR_OVERFLOW          | CY_SCB_RX_INTR_UNDERFLOW       
 567:Generated_Source\PSoC6\pdl\drivers/peripheral/scb/cy_scb_common.h ****                                  CY_SCB_RX_INTR_UART_FRAME_ERROR  | CY_SCB_RX_INTR_UART_PARITY_ERRO
 568:Generated_Source\PSoC6\pdl\drivers/peripheral/scb/cy_scb_common.h ****                                  CY_SCB_RX_INTR_UART_BREAK_DETECT)
 569:Generated_Source\PSoC6\pdl\drivers/peripheral/scb/cy_scb_common.h **** 
 570:Generated_Source\PSoC6\pdl\drivers/peripheral/scb/cy_scb_common.h **** 
 571:Generated_Source\PSoC6\pdl\drivers/peripheral/scb/cy_scb_common.h **** #define CY_SCB_SLAVE_INTR_MASK  (CY_SCB_SLAVE_INTR_I2C_ARB_LOST   | CY_SCB_SLAVE_INTR_I2C_NACK | CY
 572:Generated_Source\PSoC6\pdl\drivers/peripheral/scb/cy_scb_common.h ****                                  CY_SCB_SLAVE_INTR_I2C_WRITE_STOP | CY_SCB_SLAVE_INTR_I2C_STOP | CY
 573:Generated_Source\PSoC6\pdl\drivers/peripheral/scb/cy_scb_common.h ****                                  CY_SCB_SLAVE_INTR_I2C_ADDR_MATCH | CY_SCB_SLAVE_INTR_I2C_GENERAL_A
 574:Generated_Source\PSoC6\pdl\drivers/peripheral/scb/cy_scb_common.h ****                                  CY_SCB_SLAVE_INTR_I2C_BUS_ERROR  | CY_SCB_SLAVE_INTR_SPI_BUS_ERROR
 575:Generated_Source\PSoC6\pdl\drivers/peripheral/scb/cy_scb_common.h **** 
 576:Generated_Source\PSoC6\pdl\drivers/peripheral/scb/cy_scb_common.h **** #define CY_SCB_MASTER_INTR_MASK (CY_SCB_MASTER_INTR_I2C_ARB_LOST  | CY_SCB_MASTER_INTR_I2C_NACK | \
 577:Generated_Source\PSoC6\pdl\drivers/peripheral/scb/cy_scb_common.h ****                                  CY_SCB_MASTER_INTR_I2C_ACK       | CY_SCB_MASTER_INTR_I2C_STOP | \
 578:Generated_Source\PSoC6\pdl\drivers/peripheral/scb/cy_scb_common.h ****                                  CY_SCB_MASTER_INTR_I2C_BUS_ERROR | CY_SCB_MASTER_INTR_SPI_DONE)
 579:Generated_Source\PSoC6\pdl\drivers/peripheral/scb/cy_scb_common.h **** 
 580:Generated_Source\PSoC6\pdl\drivers/peripheral/scb/cy_scb_common.h **** #define CY_SCB_I2C_INTR_MASK    CY_SCB_I2C_INTR_WAKEUP
 581:Generated_Source\PSoC6\pdl\drivers/peripheral/scb/cy_scb_common.h **** 
 582:Generated_Source\PSoC6\pdl\drivers/peripheral/scb/cy_scb_common.h **** #define CY_SCB_SPI_INTR_MASK    CY_SCB_SPI_INTR_WAKEUP
 583:Generated_Source\PSoC6\pdl\drivers/peripheral/scb/cy_scb_common.h **** 
 584:Generated_Source\PSoC6\pdl\drivers/peripheral/scb/cy_scb_common.h **** #define CY_SCB_IS_INTR_VALID(intr, mask)            ( 0UL == ((intr) & ((uint32_t) ~(mask))) )
 585:Generated_Source\PSoC6\pdl\drivers/peripheral/scb/cy_scb_common.h **** #define CY_SCB_IS_TRIGGER_LEVEL_VALID(base, level)  ((level) < Cy_SCB_GetFifoSize(base))
 586:Generated_Source\PSoC6\pdl\drivers/peripheral/scb/cy_scb_common.h **** 
 587:Generated_Source\PSoC6\pdl\drivers/peripheral/scb/cy_scb_common.h **** #define CY_SCB_IS_I2C_ADDR_VALID(addr)              ( (0U == ((addr) & 0x80U)) )
 588:Generated_Source\PSoC6\pdl\drivers/peripheral/scb/cy_scb_common.h **** #define CY_SCB_IS_BUFFER_VALID(buffer, size)        ( (NULL != (buffer)) && ((size) > 0UL) )
 589:Generated_Source\PSoC6\pdl\drivers/peripheral/scb/cy_scb_common.h **** #define CY_SCB_IS_I2C_BUFFER_VALID(buffer, size)    ( (0UL == (size)) ? true : (NULL != (buffer)) )
 590:Generated_Source\PSoC6\pdl\drivers/peripheral/scb/cy_scb_common.h **** /** \endcond */
 591:Generated_Source\PSoC6\pdl\drivers/peripheral/scb/cy_scb_common.h **** 
 592:Generated_Source\PSoC6\pdl\drivers/peripheral/scb/cy_scb_common.h **** /** \} group_scb_common_macros */
 593:Generated_Source\PSoC6\pdl\drivers/peripheral/scb/cy_scb_common.h **** 
 594:Generated_Source\PSoC6\pdl\drivers/peripheral/scb/cy_scb_common.h **** 
 595:Generated_Source\PSoC6\pdl\drivers/peripheral/scb/cy_scb_common.h **** /*******************************************************************************
 596:Generated_Source\PSoC6\pdl\drivers/peripheral/scb/cy_scb_common.h **** *                       In-line Function Implementation
 597:Generated_Source\PSoC6\pdl\drivers/peripheral/scb/cy_scb_common.h **** *******************************************************************************/
 598:Generated_Source\PSoC6\pdl\drivers/peripheral/scb/cy_scb_common.h **** 
ARM GAS  C:\Users\yomat\AppData\Local\Temp\cc0omv11.s 			page 96


 599:Generated_Source\PSoC6\pdl\drivers/peripheral/scb/cy_scb_common.h **** /**
 600:Generated_Source\PSoC6\pdl\drivers/peripheral/scb/cy_scb_common.h **** * \addtogroup group_scb_common_functions
 601:Generated_Source\PSoC6\pdl\drivers/peripheral/scb/cy_scb_common.h **** * \{
 602:Generated_Source\PSoC6\pdl\drivers/peripheral/scb/cy_scb_common.h **** */
 603:Generated_Source\PSoC6\pdl\drivers/peripheral/scb/cy_scb_common.h **** 
 604:Generated_Source\PSoC6\pdl\drivers/peripheral/scb/cy_scb_common.h **** /*******************************************************************************
 605:Generated_Source\PSoC6\pdl\drivers/peripheral/scb/cy_scb_common.h **** * Function Name: Cy_SCB_ReadRxFifo
 606:Generated_Source\PSoC6\pdl\drivers/peripheral/scb/cy_scb_common.h **** ****************************************************************************//**
 607:Generated_Source\PSoC6\pdl\drivers/peripheral/scb/cy_scb_common.h **** *
 608:Generated_Source\PSoC6\pdl\drivers/peripheral/scb/cy_scb_common.h **** * Reads a data element directly out of the RX FIFO.
 609:Generated_Source\PSoC6\pdl\drivers/peripheral/scb/cy_scb_common.h **** * This function does not check whether the RX FIFO has data before reading it.
 610:Generated_Source\PSoC6\pdl\drivers/peripheral/scb/cy_scb_common.h **** *
 611:Generated_Source\PSoC6\pdl\drivers/peripheral/scb/cy_scb_common.h **** * \param base
 612:Generated_Source\PSoC6\pdl\drivers/peripheral/scb/cy_scb_common.h **** * The pointer to the SCB instance.
 613:Generated_Source\PSoC6\pdl\drivers/peripheral/scb/cy_scb_common.h **** *
 614:Generated_Source\PSoC6\pdl\drivers/peripheral/scb/cy_scb_common.h **** * \return
 615:Generated_Source\PSoC6\pdl\drivers/peripheral/scb/cy_scb_common.h **** * Data from RX FIFO.
 616:Generated_Source\PSoC6\pdl\drivers/peripheral/scb/cy_scb_common.h **** *
 617:Generated_Source\PSoC6\pdl\drivers/peripheral/scb/cy_scb_common.h **** *******************************************************************************/
 618:Generated_Source\PSoC6\pdl\drivers/peripheral/scb/cy_scb_common.h **** __STATIC_INLINE uint32_t Cy_SCB_ReadRxFifo(CySCB_Type const *base)
 619:Generated_Source\PSoC6\pdl\drivers/peripheral/scb/cy_scb_common.h **** {
 620:Generated_Source\PSoC6\pdl\drivers/peripheral/scb/cy_scb_common.h ****     return (SCB_RX_FIFO_RD(base));
 621:Generated_Source\PSoC6\pdl\drivers/peripheral/scb/cy_scb_common.h **** }
 622:Generated_Source\PSoC6\pdl\drivers/peripheral/scb/cy_scb_common.h **** 
 623:Generated_Source\PSoC6\pdl\drivers/peripheral/scb/cy_scb_common.h **** /*******************************************************************************
 624:Generated_Source\PSoC6\pdl\drivers/peripheral/scb/cy_scb_common.h **** * Function Name: Cy_SCB_SetRxFifoLevel
 625:Generated_Source\PSoC6\pdl\drivers/peripheral/scb/cy_scb_common.h **** ****************************************************************************//**
 626:Generated_Source\PSoC6\pdl\drivers/peripheral/scb/cy_scb_common.h **** *
 627:Generated_Source\PSoC6\pdl\drivers/peripheral/scb/cy_scb_common.h **** * Sets the RX FIFO level. When there are more data elements in the RX FIFO than
 628:Generated_Source\PSoC6\pdl\drivers/peripheral/scb/cy_scb_common.h **** * this level, the RX FIFO level interrupt is triggered.
 629:Generated_Source\PSoC6\pdl\drivers/peripheral/scb/cy_scb_common.h **** *
 630:Generated_Source\PSoC6\pdl\drivers/peripheral/scb/cy_scb_common.h **** * \param base
 631:Generated_Source\PSoC6\pdl\drivers/peripheral/scb/cy_scb_common.h **** * The pointer to the SCB instance.
 632:Generated_Source\PSoC6\pdl\drivers/peripheral/scb/cy_scb_common.h **** *
 633:Generated_Source\PSoC6\pdl\drivers/peripheral/scb/cy_scb_common.h **** * \param level
 634:Generated_Source\PSoC6\pdl\drivers/peripheral/scb/cy_scb_common.h **** * When there are more data elements in the FIFO than this level, the RX level
 635:Generated_Source\PSoC6\pdl\drivers/peripheral/scb/cy_scb_common.h **** * interrupt is triggered.
 636:Generated_Source\PSoC6\pdl\drivers/peripheral/scb/cy_scb_common.h **** *
 637:Generated_Source\PSoC6\pdl\drivers/peripheral/scb/cy_scb_common.h **** *******************************************************************************/
 638:Generated_Source\PSoC6\pdl\drivers/peripheral/scb/cy_scb_common.h **** __STATIC_INLINE void Cy_SCB_SetRxFifoLevel(CySCB_Type *base, uint32_t level)
 639:Generated_Source\PSoC6\pdl\drivers/peripheral/scb/cy_scb_common.h **** {
 640:Generated_Source\PSoC6\pdl\drivers/peripheral/scb/cy_scb_common.h ****     CY_ASSERT_L2(CY_SCB_IS_TRIGGER_LEVEL_VALID(base, level));
 641:Generated_Source\PSoC6\pdl\drivers/peripheral/scb/cy_scb_common.h **** 
 642:Generated_Source\PSoC6\pdl\drivers/peripheral/scb/cy_scb_common.h ****     CY_REG32_CLR_SET(SCB_RX_FIFO_CTRL(base), SCB_RX_FIFO_CTRL_TRIGGER_LEVEL, level);
 643:Generated_Source\PSoC6\pdl\drivers/peripheral/scb/cy_scb_common.h **** }
 644:Generated_Source\PSoC6\pdl\drivers/peripheral/scb/cy_scb_common.h **** 
 645:Generated_Source\PSoC6\pdl\drivers/peripheral/scb/cy_scb_common.h **** 
 646:Generated_Source\PSoC6\pdl\drivers/peripheral/scb/cy_scb_common.h **** /*******************************************************************************
 647:Generated_Source\PSoC6\pdl\drivers/peripheral/scb/cy_scb_common.h **** * Function Name: Cy_SCB_GetNumInRxFifo
 648:Generated_Source\PSoC6\pdl\drivers/peripheral/scb/cy_scb_common.h **** ****************************************************************************//**
 649:Generated_Source\PSoC6\pdl\drivers/peripheral/scb/cy_scb_common.h **** *
 650:Generated_Source\PSoC6\pdl\drivers/peripheral/scb/cy_scb_common.h **** * Returns the number of data elements currently in the RX FIFO.
 651:Generated_Source\PSoC6\pdl\drivers/peripheral/scb/cy_scb_common.h **** *
 652:Generated_Source\PSoC6\pdl\drivers/peripheral/scb/cy_scb_common.h **** * \param base
 653:Generated_Source\PSoC6\pdl\drivers/peripheral/scb/cy_scb_common.h **** * The pointer to the SCB instance.
 654:Generated_Source\PSoC6\pdl\drivers/peripheral/scb/cy_scb_common.h **** *
 655:Generated_Source\PSoC6\pdl\drivers/peripheral/scb/cy_scb_common.h **** * \return
ARM GAS  C:\Users\yomat\AppData\Local\Temp\cc0omv11.s 			page 97


 656:Generated_Source\PSoC6\pdl\drivers/peripheral/scb/cy_scb_common.h **** * The number or data elements in RX FIFO.
 657:Generated_Source\PSoC6\pdl\drivers/peripheral/scb/cy_scb_common.h **** *
 658:Generated_Source\PSoC6\pdl\drivers/peripheral/scb/cy_scb_common.h **** *******************************************************************************/
 659:Generated_Source\PSoC6\pdl\drivers/peripheral/scb/cy_scb_common.h **** __STATIC_INLINE uint32_t Cy_SCB_GetNumInRxFifo(CySCB_Type const *base)
 660:Generated_Source\PSoC6\pdl\drivers/peripheral/scb/cy_scb_common.h **** {
 661:Generated_Source\PSoC6\pdl\drivers/peripheral/scb/cy_scb_common.h ****     return _FLD2VAL(SCB_RX_FIFO_STATUS_USED, SCB_RX_FIFO_STATUS(base));
 662:Generated_Source\PSoC6\pdl\drivers/peripheral/scb/cy_scb_common.h **** }
 663:Generated_Source\PSoC6\pdl\drivers/peripheral/scb/cy_scb_common.h **** 
 664:Generated_Source\PSoC6\pdl\drivers/peripheral/scb/cy_scb_common.h **** 
 665:Generated_Source\PSoC6\pdl\drivers/peripheral/scb/cy_scb_common.h **** /*******************************************************************************
 666:Generated_Source\PSoC6\pdl\drivers/peripheral/scb/cy_scb_common.h **** * Function Name: Cy_SCB_GetRxSrValid
 667:Generated_Source\PSoC6\pdl\drivers/peripheral/scb/cy_scb_common.h **** ****************************************************************************//**
 668:Generated_Source\PSoC6\pdl\drivers/peripheral/scb/cy_scb_common.h **** *
 669:Generated_Source\PSoC6\pdl\drivers/peripheral/scb/cy_scb_common.h **** * Returns the status of the RX FIFO Shift Register valid bit.
 670:Generated_Source\PSoC6\pdl\drivers/peripheral/scb/cy_scb_common.h **** *
 671:Generated_Source\PSoC6\pdl\drivers/peripheral/scb/cy_scb_common.h **** * \param base
 672:Generated_Source\PSoC6\pdl\drivers/peripheral/scb/cy_scb_common.h **** * The pointer to the SCB instance.
 673:Generated_Source\PSoC6\pdl\drivers/peripheral/scb/cy_scb_common.h **** *
 674:Generated_Source\PSoC6\pdl\drivers/peripheral/scb/cy_scb_common.h **** * \return
 675:Generated_Source\PSoC6\pdl\drivers/peripheral/scb/cy_scb_common.h **** * 1 - RX shift register valid; 0 - RX shift register not valid.
 676:Generated_Source\PSoC6\pdl\drivers/peripheral/scb/cy_scb_common.h **** *
 677:Generated_Source\PSoC6\pdl\drivers/peripheral/scb/cy_scb_common.h **** *******************************************************************************/
 678:Generated_Source\PSoC6\pdl\drivers/peripheral/scb/cy_scb_common.h **** __STATIC_INLINE uint32_t Cy_SCB_GetRxSrValid(CySCB_Type const *base)
 679:Generated_Source\PSoC6\pdl\drivers/peripheral/scb/cy_scb_common.h **** {
 680:Generated_Source\PSoC6\pdl\drivers/peripheral/scb/cy_scb_common.h ****     return _FLD2VAL(SCB_RX_FIFO_STATUS_SR_VALID, SCB_RX_FIFO_STATUS(base));
 681:Generated_Source\PSoC6\pdl\drivers/peripheral/scb/cy_scb_common.h **** }
 682:Generated_Source\PSoC6\pdl\drivers/peripheral/scb/cy_scb_common.h **** 
 683:Generated_Source\PSoC6\pdl\drivers/peripheral/scb/cy_scb_common.h **** 
 684:Generated_Source\PSoC6\pdl\drivers/peripheral/scb/cy_scb_common.h **** /*******************************************************************************
 685:Generated_Source\PSoC6\pdl\drivers/peripheral/scb/cy_scb_common.h **** * Function Name: Cy_SCB_ClearRxFifo
 686:Generated_Source\PSoC6\pdl\drivers/peripheral/scb/cy_scb_common.h **** ****************************************************************************//**
 687:Generated_Source\PSoC6\pdl\drivers/peripheral/scb/cy_scb_common.h **** *
 688:Generated_Source\PSoC6\pdl\drivers/peripheral/scb/cy_scb_common.h **** * Clears the RX FIFO and shifter.
 689:Generated_Source\PSoC6\pdl\drivers/peripheral/scb/cy_scb_common.h **** *
 690:Generated_Source\PSoC6\pdl\drivers/peripheral/scb/cy_scb_common.h **** * \param base
 691:Generated_Source\PSoC6\pdl\drivers/peripheral/scb/cy_scb_common.h **** * The pointer to the SCB instance.
 692:Generated_Source\PSoC6\pdl\drivers/peripheral/scb/cy_scb_common.h **** *
 693:Generated_Source\PSoC6\pdl\drivers/peripheral/scb/cy_scb_common.h **** * \note
 694:Generated_Source\PSoC6\pdl\drivers/peripheral/scb/cy_scb_common.h **** * If there is partial data in the shifter, it is cleared and lost.
 695:Generated_Source\PSoC6\pdl\drivers/peripheral/scb/cy_scb_common.h **** *
 696:Generated_Source\PSoC6\pdl\drivers/peripheral/scb/cy_scb_common.h **** *******************************************************************************/
 697:Generated_Source\PSoC6\pdl\drivers/peripheral/scb/cy_scb_common.h **** __STATIC_INLINE void Cy_SCB_ClearRxFifo(CySCB_Type* base)
 698:Generated_Source\PSoC6\pdl\drivers/peripheral/scb/cy_scb_common.h **** {
 699:Generated_Source\PSoC6\pdl\drivers/peripheral/scb/cy_scb_common.h ****     SCB_RX_FIFO_CTRL(base) |= (uint32_t)  SCB_RX_FIFO_CTRL_CLEAR_Msk;
 700:Generated_Source\PSoC6\pdl\drivers/peripheral/scb/cy_scb_common.h ****     SCB_RX_FIFO_CTRL(base) &= (uint32_t) ~SCB_RX_FIFO_CTRL_CLEAR_Msk;
 701:Generated_Source\PSoC6\pdl\drivers/peripheral/scb/cy_scb_common.h **** 
 702:Generated_Source\PSoC6\pdl\drivers/peripheral/scb/cy_scb_common.h ****     (void) SCB_RX_FIFO_CTRL(base);
 703:Generated_Source\PSoC6\pdl\drivers/peripheral/scb/cy_scb_common.h **** }
 704:Generated_Source\PSoC6\pdl\drivers/peripheral/scb/cy_scb_common.h **** 
 705:Generated_Source\PSoC6\pdl\drivers/peripheral/scb/cy_scb_common.h **** 
 706:Generated_Source\PSoC6\pdl\drivers/peripheral/scb/cy_scb_common.h **** /*******************************************************************************
 707:Generated_Source\PSoC6\pdl\drivers/peripheral/scb/cy_scb_common.h **** * Function Name: Cy_SCB_WriteTxFifo
 708:Generated_Source\PSoC6\pdl\drivers/peripheral/scb/cy_scb_common.h **** ****************************************************************************//**
 709:Generated_Source\PSoC6\pdl\drivers/peripheral/scb/cy_scb_common.h **** *
 710:Generated_Source\PSoC6\pdl\drivers/peripheral/scb/cy_scb_common.h **** * Writes data directly into the TX FIFO.
 711:Generated_Source\PSoC6\pdl\drivers/peripheral/scb/cy_scb_common.h **** * This function does not check whether the TX FIFO is not full before writing
 712:Generated_Source\PSoC6\pdl\drivers/peripheral/scb/cy_scb_common.h **** * into it.
ARM GAS  C:\Users\yomat\AppData\Local\Temp\cc0omv11.s 			page 98


 713:Generated_Source\PSoC6\pdl\drivers/peripheral/scb/cy_scb_common.h **** *
 714:Generated_Source\PSoC6\pdl\drivers/peripheral/scb/cy_scb_common.h **** * \param base
 715:Generated_Source\PSoC6\pdl\drivers/peripheral/scb/cy_scb_common.h **** * The pointer to the SCB instance.
 716:Generated_Source\PSoC6\pdl\drivers/peripheral/scb/cy_scb_common.h **** *
 717:Generated_Source\PSoC6\pdl\drivers/peripheral/scb/cy_scb_common.h **** * \param data
 718:Generated_Source\PSoC6\pdl\drivers/peripheral/scb/cy_scb_common.h **** * Data to write to the TX FIFO.
 719:Generated_Source\PSoC6\pdl\drivers/peripheral/scb/cy_scb_common.h **** *
 720:Generated_Source\PSoC6\pdl\drivers/peripheral/scb/cy_scb_common.h **** *******************************************************************************/
 721:Generated_Source\PSoC6\pdl\drivers/peripheral/scb/cy_scb_common.h **** __STATIC_INLINE void Cy_SCB_WriteTxFifo(CySCB_Type* base, uint32_t data)
 722:Generated_Source\PSoC6\pdl\drivers/peripheral/scb/cy_scb_common.h **** {
 723:Generated_Source\PSoC6\pdl\drivers/peripheral/scb/cy_scb_common.h ****     SCB_TX_FIFO_WR(base) = data;
 724:Generated_Source\PSoC6\pdl\drivers/peripheral/scb/cy_scb_common.h **** }
 725:Generated_Source\PSoC6\pdl\drivers/peripheral/scb/cy_scb_common.h **** 
 726:Generated_Source\PSoC6\pdl\drivers/peripheral/scb/cy_scb_common.h **** 
 727:Generated_Source\PSoC6\pdl\drivers/peripheral/scb/cy_scb_common.h **** /*******************************************************************************
 728:Generated_Source\PSoC6\pdl\drivers/peripheral/scb/cy_scb_common.h **** * Function Name: Cy_SCB_SetTxFifoLevel
 729:Generated_Source\PSoC6\pdl\drivers/peripheral/scb/cy_scb_common.h **** ****************************************************************************//**
 730:Generated_Source\PSoC6\pdl\drivers/peripheral/scb/cy_scb_common.h **** *
 731:Generated_Source\PSoC6\pdl\drivers/peripheral/scb/cy_scb_common.h **** * Sets the TX FIFO level. When there are fewer data elements in the TX FIFO than
 732:Generated_Source\PSoC6\pdl\drivers/peripheral/scb/cy_scb_common.h **** * this level, the TX FIFO level interrupt is triggered.
 733:Generated_Source\PSoC6\pdl\drivers/peripheral/scb/cy_scb_common.h **** *
 734:Generated_Source\PSoC6\pdl\drivers/peripheral/scb/cy_scb_common.h **** * \param base
 735:Generated_Source\PSoC6\pdl\drivers/peripheral/scb/cy_scb_common.h **** * The pointer to the SCB instance.
 736:Generated_Source\PSoC6\pdl\drivers/peripheral/scb/cy_scb_common.h **** *
 737:Generated_Source\PSoC6\pdl\drivers/peripheral/scb/cy_scb_common.h **** * \param level
 738:Generated_Source\PSoC6\pdl\drivers/peripheral/scb/cy_scb_common.h **** * When there are fewer data elements in the FIFO than this level, the TX level
 739:Generated_Source\PSoC6\pdl\drivers/peripheral/scb/cy_scb_common.h **** * interrupt is triggered.
 740:Generated_Source\PSoC6\pdl\drivers/peripheral/scb/cy_scb_common.h **** *
 741:Generated_Source\PSoC6\pdl\drivers/peripheral/scb/cy_scb_common.h **** *******************************************************************************/
 742:Generated_Source\PSoC6\pdl\drivers/peripheral/scb/cy_scb_common.h **** __STATIC_INLINE void Cy_SCB_SetTxFifoLevel(CySCB_Type *base, uint32_t level)
 743:Generated_Source\PSoC6\pdl\drivers/peripheral/scb/cy_scb_common.h **** {
 744:Generated_Source\PSoC6\pdl\drivers/peripheral/scb/cy_scb_common.h ****     CY_ASSERT_L2(CY_SCB_IS_TRIGGER_LEVEL_VALID(base, level));
 745:Generated_Source\PSoC6\pdl\drivers/peripheral/scb/cy_scb_common.h **** 
 746:Generated_Source\PSoC6\pdl\drivers/peripheral/scb/cy_scb_common.h ****     CY_REG32_CLR_SET(SCB_TX_FIFO_CTRL(base), SCB_TX_FIFO_CTRL_TRIGGER_LEVEL, level);
 747:Generated_Source\PSoC6\pdl\drivers/peripheral/scb/cy_scb_common.h **** }
 748:Generated_Source\PSoC6\pdl\drivers/peripheral/scb/cy_scb_common.h **** 
 749:Generated_Source\PSoC6\pdl\drivers/peripheral/scb/cy_scb_common.h **** 
 750:Generated_Source\PSoC6\pdl\drivers/peripheral/scb/cy_scb_common.h **** /*******************************************************************************
 751:Generated_Source\PSoC6\pdl\drivers/peripheral/scb/cy_scb_common.h **** * Function Name: Cy_SCB_GetNumInTxFifo
 752:Generated_Source\PSoC6\pdl\drivers/peripheral/scb/cy_scb_common.h **** ****************************************************************************//**
 753:Generated_Source\PSoC6\pdl\drivers/peripheral/scb/cy_scb_common.h **** *
 754:Generated_Source\PSoC6\pdl\drivers/peripheral/scb/cy_scb_common.h **** * Returns the number of data elements currently in the TX FIFO.
 755:Generated_Source\PSoC6\pdl\drivers/peripheral/scb/cy_scb_common.h **** *
 756:Generated_Source\PSoC6\pdl\drivers/peripheral/scb/cy_scb_common.h **** * \param base
 757:Generated_Source\PSoC6\pdl\drivers/peripheral/scb/cy_scb_common.h **** * The pointer to the SCB instance.
 758:Generated_Source\PSoC6\pdl\drivers/peripheral/scb/cy_scb_common.h **** *
 759:Generated_Source\PSoC6\pdl\drivers/peripheral/scb/cy_scb_common.h **** * \return
 760:Generated_Source\PSoC6\pdl\drivers/peripheral/scb/cy_scb_common.h **** * The number or data elements in the TX FIFO.
 761:Generated_Source\PSoC6\pdl\drivers/peripheral/scb/cy_scb_common.h **** *
 762:Generated_Source\PSoC6\pdl\drivers/peripheral/scb/cy_scb_common.h **** *******************************************************************************/
 763:Generated_Source\PSoC6\pdl\drivers/peripheral/scb/cy_scb_common.h **** __STATIC_INLINE uint32_t Cy_SCB_GetNumInTxFifo(CySCB_Type const *base)
 764:Generated_Source\PSoC6\pdl\drivers/peripheral/scb/cy_scb_common.h **** {
 765:Generated_Source\PSoC6\pdl\drivers/peripheral/scb/cy_scb_common.h ****     return _FLD2VAL(SCB_TX_FIFO_STATUS_USED, SCB_TX_FIFO_STATUS(base));
 1087              		.loc 5 765 0
 1088 002e 094A     		ldr	r2, .L63+8
 1089 0030 D2F80832 		ldr	r3, [r2, #520]
 1090 0034 C3F30803 		ubfx	r3, r3, #0, #9
ARM GAS  C:\Users\yomat\AppData\Local\Temp\cc0omv11.s 			page 99


 1091              	.LVL105:
 1092              	.LBE99:
 1093              	.LBE98:
 1094              	.LBB100:
 1095              	.LBB101:
 766:Generated_Source\PSoC6\pdl\drivers/peripheral/scb/cy_scb_common.h **** }
 767:Generated_Source\PSoC6\pdl\drivers/peripheral/scb/cy_scb_common.h **** 
 768:Generated_Source\PSoC6\pdl\drivers/peripheral/scb/cy_scb_common.h **** 
 769:Generated_Source\PSoC6\pdl\drivers/peripheral/scb/cy_scb_common.h **** /*******************************************************************************
 770:Generated_Source\PSoC6\pdl\drivers/peripheral/scb/cy_scb_common.h **** * Function Name: Cy_SCB_GetTxSrValid
 771:Generated_Source\PSoC6\pdl\drivers/peripheral/scb/cy_scb_common.h **** ****************************************************************************//**
 772:Generated_Source\PSoC6\pdl\drivers/peripheral/scb/cy_scb_common.h **** *
 773:Generated_Source\PSoC6\pdl\drivers/peripheral/scb/cy_scb_common.h **** * Returns the status of the TX FIFO Shift Register valid bit.
 774:Generated_Source\PSoC6\pdl\drivers/peripheral/scb/cy_scb_common.h **** *
 775:Generated_Source\PSoC6\pdl\drivers/peripheral/scb/cy_scb_common.h **** * \param base
 776:Generated_Source\PSoC6\pdl\drivers/peripheral/scb/cy_scb_common.h **** * The pointer to the SCB instance.
 777:Generated_Source\PSoC6\pdl\drivers/peripheral/scb/cy_scb_common.h **** *
 778:Generated_Source\PSoC6\pdl\drivers/peripheral/scb/cy_scb_common.h **** * \return
 779:Generated_Source\PSoC6\pdl\drivers/peripheral/scb/cy_scb_common.h **** * 1 - TX shift register valid; 0 - TX shift register not valid.
 780:Generated_Source\PSoC6\pdl\drivers/peripheral/scb/cy_scb_common.h **** *
 781:Generated_Source\PSoC6\pdl\drivers/peripheral/scb/cy_scb_common.h **** *******************************************************************************/
 782:Generated_Source\PSoC6\pdl\drivers/peripheral/scb/cy_scb_common.h **** __STATIC_INLINE uint32_t Cy_SCB_GetTxSrValid(CySCB_Type const *base)
 783:Generated_Source\PSoC6\pdl\drivers/peripheral/scb/cy_scb_common.h **** {
 784:Generated_Source\PSoC6\pdl\drivers/peripheral/scb/cy_scb_common.h ****     return _FLD2VAL(SCB_TX_FIFO_STATUS_SR_VALID, SCB_TX_FIFO_STATUS(base));
 1096              		.loc 5 784 0
 1097 0038 D2F80822 		ldr	r2, [r2, #520]
 1098 003c C2F3C032 		ubfx	r2, r2, #15, #1
 1099              	.LVL106:
 1100              	.LBE101:
 1101              	.LBE100:
 1102              	.LBE97:
 1103              	.LBE96:
 1104              	.LBE95:
 1105              	.LBE94:
 1106              		.loc 1 259 0
 1107 0040 D342     		cmn	r3, r2
 1108 0042 DED1     		bne	.L58
 260:led_task.c    ****             /* Enter sleep mode */
 261:led_task.c    **** //    		Cy_SysPm_DeepSleep(CY_SYSPM_WAIT_FOR_INTERRUPT);
 262:led_task.c    ****     		Cy_SysPm_Sleep(CY_SYSPM_WAIT_FOR_INTERRUPT);
 1109              		.loc 1 262 0
 1110 0044 0020     		movs	r0, #0
 1111 0046 FFF7FEFF 		bl	Cy_SysPm_CpuEnterSleep
 1112              	.LVL107:
 1113 004a DAE7     		b	.L58
 1114              	.L64:
 1115              		.align	2
 1116              	.L63:
 1117 004c 00000000 		.word	.LANCHOR0
 1118 0050 00000000 		.word	.LANCHOR1
 1119 0054 00006640 		.word	1080426496
 1120              		.cfi_endproc
 1121              	.LFE699:
 1122              		.size	Task_LED, .-Task_LED
 1123              		.global	AFE_st
 1124              		.global	AFE_id
 1125              		.global	SpO2
ARM GAS  C:\Users\yomat\AppData\Local\Temp\cc0omv11.s 			page 100


 1126              		.section	.rodata
 1127              		.align	2
 1128              		.set	.LANCHOR2,. + 0
 1129              		.type	afe_init, %object
 1130              		.size	afe_init, 360
 1131              	afe_init:
 1132 0000 1D       		.byte	29
 1133 0001 000000   		.space	3
 1134 0004 3F9C0000 		.word	39999
 1135 0008 09       		.byte	9
 1136 0009 000000   		.space	3
 1137 000c 00000000 		.word	0
 1138 0010 0A       		.byte	10
 1139 0011 000000   		.space	3
 1140 0014 8E010000 		.word	398
 1141 0018 01       		.byte	1
 1142 0019 000000   		.space	3
 1143 001c 50000000 		.word	80
 1144 0020 02       		.byte	2
 1145 0021 000000   		.space	3
 1146 0024 8E010000 		.word	398
 1147 0028 15       		.byte	21
 1148 0029 000000   		.space	3
 1149 002c E0150000 		.word	5600
 1150 0030 16       		.byte	22
 1151 0031 000000   		.space	3
 1152 0034 E6150000 		.word	5606
 1153 0038 0D       		.byte	13
 1154 0039 000000   		.space	3
 1155 003c E7150000 		.word	5607
 1156 0040 0E       		.byte	14
 1157 0041 000000   		.space	3
 1158 0044 B2170000 		.word	6066
 1159 0048 36       		.byte	54
 1160 0049 000000   		.space	3
 1161 004c 00000000 		.word	0
 1162 0050 37       		.byte	55
 1163 0051 000000   		.space	3
 1164 0054 00000000 		.word	0
 1165 0058 05       		.byte	5
 1166 0059 000000   		.space	3
 1167 005c E0010000 		.word	480
 1168 0060 06       		.byte	6
 1169 0061 000000   		.space	3
 1170 0064 1E030000 		.word	798
 1171 0068 17       		.byte	23
 1172 0069 000000   		.space	3
 1173 006c B4170000 		.word	6068
 1174 0070 18       		.byte	24
 1175 0071 000000   		.space	3
 1176 0074 BA170000 		.word	6074
 1177 0078 0F       		.byte	15
 1178 0079 000000   		.space	3
 1179 007c BB170000 		.word	6075
 1180 0080 10       		.byte	16
 1181 0081 000000   		.space	3
 1182 0084 86190000 		.word	6534
ARM GAS  C:\Users\yomat\AppData\Local\Temp\cc0omv11.s 			page 101


 1183 0088 03       		.byte	3
 1184 0089 000000   		.space	3
 1185 008c 20030000 		.word	800
 1186 0090 04       		.byte	4
 1187 0091 000000   		.space	3
 1188 0094 AE040000 		.word	1198
 1189 0098 07       		.byte	7
 1190 0099 000000   		.space	3
 1191 009c 70030000 		.word	880
 1192 00a0 08       		.byte	8
 1193 00a1 000000   		.space	3
 1194 00a4 AE040000 		.word	1198
 1195 00a8 19       		.byte	25
 1196 00a9 000000   		.space	3
 1197 00ac 88190000 		.word	6536
 1198 00b0 1A       		.byte	26
 1199 00b1 000000   		.space	3
 1200 00b4 8E190000 		.word	6542
 1201 00b8 11       		.byte	17
 1202 00b9 000000   		.space	3
 1203 00bc 8F190000 		.word	6543
 1204 00c0 12       		.byte	18
 1205 00c1 000000   		.space	3
 1206 00c4 5B1B0000 		.word	7003
 1207 00c8 0B       		.byte	11
 1208 00c9 000000   		.space	3
 1209 00cc 00050000 		.word	1280
 1210 00d0 0C       		.byte	12
 1211 00d1 000000   		.space	3
 1212 00d4 3E060000 		.word	1598
 1213 00d8 1B       		.byte	27
 1214 00d9 000000   		.space	3
 1215 00dc 5D1B0000 		.word	7005
 1216 00e0 1C       		.byte	28
 1217 00e1 000000   		.space	3
 1218 00e4 631B0000 		.word	7011
 1219 00e8 13       		.byte	19
 1220 00e9 000000   		.space	3
 1221 00ec 641B0000 		.word	7012
 1222 00f0 14       		.byte	20
 1223 00f1 000000   		.space	3
 1224 00f4 2F1D0000 		.word	7471
 1225 00f8 32       		.byte	50
 1226 00f9 000000   		.space	3
 1227 00fc F71D0000 		.word	7671
 1228 0100 33       		.byte	51
 1229 0101 000000   		.space	3
 1230 0104 1F990000 		.word	39199
 1231 0108 1E       		.byte	30
 1232 0109 000000   		.space	3
 1233 010c 00010000 		.word	256
 1234 0110 20       		.byte	32
 1235 0111 000000   		.space	3
 1236 0114 0D800000 		.word	32781
 1237 0118 21       		.byte	33
 1238 0119 000000   		.space	3
 1239 011c 0D000000 		.word	13
ARM GAS  C:\Users\yomat\AppData\Local\Temp\cc0omv11.s 			page 102


 1240 0120 22       		.byte	34
 1241 0121 000000   		.space	3
 1242 0124 86010000 		.word	390
 1243 0128 23       		.byte	35
 1244 0129 000000   		.space	3
 1245 012c 00020000 		.word	512
 1246 0130 29       		.byte	41
 1247 0131 000000   		.space	3
 1248 0134 00020000 		.word	512
 1249 0138 31       		.byte	49
 1250 0139 000000   		.space	3
 1251 013c 00000000 		.word	0
 1252 0140 34       		.byte	52
 1253 0141 000000   		.space	3
 1254 0144 00000000 		.word	0
 1255 0148 35       		.byte	53
 1256 0149 000000   		.space	3
 1257 014c 00000000 		.word	0
 1258 0150 39       		.byte	57
 1259 0151 000000   		.space	3
 1260 0154 01000000 		.word	1
 1261 0158 3A       		.byte	58
 1262 0159 000000   		.space	3
 1263 015c 00000000 		.word	0
 1264 0160 3D       		.byte	61
 1265 0161 000000   		.space	3
 1266 0164 00000000 		.word	0
 1267              		.data
 1268              		.align	2
 1269              		.set	.LANCHOR0,. + 0
 1270              		.type	afe_data, %object
 1271              		.size	afe_data, 108
 1272              	afe_data:
 1273 0000 00       		.byte	0
 1274 0001 00       		.byte	0
 1275 0002 0000     		.space	2
 1276 0004 2A       		.byte	42
 1277 0005 000000   		.space	3
 1278 0008 00000000 		.word	0
 1279 000c 2E       		.byte	46
 1280 000d 000000   		.space	3
 1281 0010 00000000 		.word	0
 1282 0014 2C       		.byte	44
 1283 0015 000000   		.space	3
 1284 0018 00000000 		.word	0
 1285 001c 2F       		.byte	47
 1286 001d 000000   		.space	3
 1287 0020 00000000 		.word	0
 1288 0024 00       		.byte	0
 1289 0025 00       		.byte	0
 1290 0026 0000     		.space	2
 1291 0028 2A       		.byte	42
 1292 0029 000000   		.space	3
 1293 002c 00000000 		.word	0
 1294 0030 2E       		.byte	46
 1295 0031 000000   		.space	3
 1296 0034 00000000 		.word	0
ARM GAS  C:\Users\yomat\AppData\Local\Temp\cc0omv11.s 			page 103


 1297 0038 2C       		.byte	44
 1298 0039 000000   		.space	3
 1299 003c 00000000 		.word	0
 1300 0040 2F       		.byte	47
 1301 0041 000000   		.space	3
 1302 0044 00000000 		.word	0
 1303 0048 00000000 		.space	36
 1303      00000000 
 1303      00000000 
 1303      00000000 
 1303      00000000 
 1304              		.type	SpO2, %object
 1305              		.size	SpO2, 1
 1306              	SpO2:
 1307 006c 0F       		.byte	15
 1308              		.section	.rodata.str1.4,"aMS",%progbits,1
 1309              		.align	2
 1310              	.LC0:
 1311 0000 25642C2C 		.ascii	"%d,,\000"
 1311      00
 1312 0005 000000   		.space	3
 1313              	.LC1:
 1314 0008 25662C25 		.ascii	"%f,%f,,\000"
 1314      662C2C00 
 1315              	.LC2:
 1316 0010 25662C25 		.ascii	"%f,%f,%f,%f,,\000"
 1316      662C2566 
 1316      2C25662C 
 1316      2C00
 1317 001e 0000     		.space	2
 1318              	.LC3:
 1319 0020 25660D0A 		.ascii	"%f\015\012\000"
 1319      00
 1320 0025 000000   		.space	3
 1321              	.LC4:
 1322 0028 41464530 		.ascii	"AFE0\000"
 1322      00
 1323 002d 000000   		.space	3
 1324              	.LC5:
 1325 0030 41464531 		.ascii	"AFE1\000"
 1325      00
 1326 0035 000000   		.space	3
 1327              	.LC6:
 1328 0038 53746172 		.ascii	"Start AFE Control\015\000"
 1328      74204146 
 1328      4520436F 
 1328      6E74726F 
 1328      6C0D00
 1329 004b 00       		.space	1
 1330              	.LC7:
 1331 004c 4F706572 		.ascii	"Operation cycle: %3.1f min.\015\012\000"
 1331      6174696F 
 1331      6E206379 
 1331      636C653A 
 1331      2025332E 
 1332 006a 0000     		.space	2
 1333              	.LC8:
ARM GAS  C:\Users\yomat\AppData\Local\Temp\cc0omv11.s 			page 104


 1334 006c 4F706572 		.ascii	"Operating  time: %u sec.\015\012\000"
 1334      6174696E 
 1334      67202074 
 1334      696D653A 
 1334      20257520 
 1335 0087 00       		.space	1
 1336              	.LC9:
 1337 0088 20205365 		.ascii	"  Selection AFE: %s\015\012\000"
 1337      6C656374 
 1337      696F6E20 
 1337      4146453A 
 1337      2025730D 
 1338 009e 0000     		.space	2
 1339              	.LC10:
 1340 00a0 20204C45 		.ascii	"  LED1 TIG gain: %u korm\015\012\000"
 1340      44312054 
 1340      49472067 
 1340      61696E3A 
 1340      20257520 
 1341 00bb 00       		.space	1
 1342              	.LC11:
 1343 00bc 20204C45 		.ascii	"  LED1  current: %3.1f mA\015\012\000"
 1343      44312020 
 1343      63757272 
 1343      656E743A 
 1343      2025332E 
 1344              	.LC12:
 1345 00d8 20204C45 		.ascii	"  LED2 TIG gain: %u korm\015\012\000"
 1345      44322054 
 1345      49472067 
 1345      61696E3A 
 1345      20257520 
 1346 00f3 00       		.space	1
 1347              	.LC13:
 1348 00f4 20204C45 		.ascii	"  LED2  current: %3.1f mA\015\012\015\012\000"
 1348      44322020 
 1348      63757272 
 1348      656E743A 
 1348      2025332E 
 1349 0112 0000     		.space	2
 1350              	.LC14:
 1351 0114 4146452C 		.ascii	"AFE,,LED2amb,LED1amb,,LED2,,,,,LED1,,,,,R\015\000"
 1351      2C4C4544 
 1351      32616D62 
 1351      2C4C4544 
 1351      31616D62 
 1352 013f 00       		.space	1
 1353              	.LC15:
 1354 0140 2C2C2C2C 		.ascii	",,,,,AC,MIN,MAX,DC,,AC,MIN,MAX,DC,,\015\000"
 1354      2C41432C 
 1354      4D494E2C 
 1354      4D41582C 
 1354      44432C2C 
 1355              		.bss
 1356              		.align	3
 1357              		.set	.LANCHOR1,. + 0
 1358              		.type	afe_calval, %object
ARM GAS  C:\Users\yomat\AppData\Local\Temp\cc0omv11.s 			page 105


 1359              		.size	afe_calval, 384
 1360              	afe_calval:
 1361 0000 00000000 		.space	384
 1361      00000000 
 1361      00000000 
 1361      00000000 
 1361      00000000 
 1362              		.type	AFE_st, %object
 1363              		.size	AFE_st, 1
 1364              	AFE_st:
 1365 0180 00       		.space	1
 1366              		.type	AFE_id, %object
 1367              		.size	AFE_id, 1
 1368              	AFE_id:
 1369 0181 00       		.space	1
 1370              		.text
 1371              	.Letext0:
 1372              		.file 6 "c:\\program files (x86)\\cypress\\psoc creator\\4.4\\psoc creator\\import\\gnu\\arm\\5.4.
 1373              		.file 7 "c:\\program files (x86)\\cypress\\psoc creator\\4.4\\psoc creator\\import\\gnu\\arm\\5.4.
 1374              		.file 8 "Generated_Source\\PSoC6\\pdl\\devices/psoc6/include/cyble_416045_02.h"
 1375              		.file 9 "Generated_Source\\PSoC6\\pdl\\devices/psoc6/include/ip/cyip_gpio.h"
 1376              		.file 10 "Generated_Source\\PSoC6\\pdl\\devices/psoc6/include/ip/cyip_scb.h"
 1377              		.file 11 "Generated_Source\\PSoC6\\pdl\\devices/psoc6/include/psoc6_01_config.h"
 1378              		.file 12 "Generated_Source\\PSoC6\\pdl\\drivers/peripheral/device/cy_device.h"
 1379              		.file 13 "Generated_Source\\PSoC6\\pdl\\drivers/peripheral/syslib/cy_syslib.h"
 1380              		.file 14 "Generated_Source\\PSoC6\\pdl\\drivers/peripheral/sysint/cy_sysint.h"
 1381              		.file 15 "Generated_Source\\PSoC6\\pdl\\drivers/peripheral/syspm/cy_syspm.h"
 1382              		.file 16 "Generated_Source\\PSoC6\\pdl\\drivers/peripheral/scb/cy_scb_i2c.h"
 1383              		.file 17 "Generated_Source\\PSoC6\\pdl\\drivers/peripheral/scb/cy_scb_uart.h"
 1384              		.file 18 "Generated_Source\\PSoC6\\pdl\\drivers/peripheral/tcpwm/cy_tcpwm_pwm.h"
 1385              		.file 19 "Generated_Source\\PSoC6\\pdl\\middleware/ble/cy_ble_stack_host_main.h"
 1386              		.file 20 "Generated_Source\\PSoC6\\pdl\\middleware/ble/cy_ble_stack_gatt.h"
 1387              		.file 21 "Generated_Source\\PSoC6\\pdl\\middleware/ble/cy_ble_gap.h"
 1388              		.file 22 "AFE4404.h"
 1389              		.file 23 "led_task.h"
 1390              		.file 24 "Generated_Source\\PSoC6/UART.h"
 1391              		.file 25 "Generated_Source\\PSoC6/cyfitter_sysint_cfg.h"
 1392              		.file 26 "Generated_Source\\PSoC6/I2C_1.h"
 1393              		.file 27 "Generated_Source\\PSoC6/I2C_2.h"
 1394              		.file 28 "Generated_Source\\PSoC6/PWM_AFE.h"
 1395              		.file 29 "Generated_Source\\PSoC6/PWM_CYC.h"
 1396              		.file 30 "Generated_Source\\PSoC6/PWM_TIM.h"
 1397              		.file 31 "c:\\program files (x86)\\cypress\\psoc creator\\4.4\\psoc creator\\import\\gnu\\arm\\5.4
 1398              		.file 32 "Generated_Source\\PSoC6\\pdl\\middleware/ble/cy_ble_gatt.h"
 1399              		.file 33 "<built-in>"
 1400              		.section	.debug_info,"",%progbits
 1401              	.Ldebug_info0:
 1402 0000 3E220000 		.4byte	0x223e
 1403 0004 0400     		.2byte	0x4
 1404 0006 00000000 		.4byte	.Ldebug_abbrev0
 1405 000a 04       		.byte	0x4
 1406 000b 01       		.uleb128 0x1
 1407 000c DB140000 		.4byte	.LASF558
 1408 0010 0C       		.byte	0xc
 1409 0011 1F0D0000 		.4byte	.LASF559
 1410 0015 E7170000 		.4byte	.LASF560
 1411 0019 00000000 		.4byte	.Ldebug_ranges0+0
ARM GAS  C:\Users\yomat\AppData\Local\Temp\cc0omv11.s 			page 106


 1412 001d 00000000 		.4byte	0
 1413 0021 00000000 		.4byte	.Ldebug_line0
 1414 0025 02       		.uleb128 0x2
 1415 0026 08       		.byte	0x8
 1416 0027 04       		.byte	0x4
 1417 0028 2F130000 		.4byte	.LASF0
 1418 002c 02       		.uleb128 0x2
 1419 002d 01       		.byte	0x1
 1420 002e 06       		.byte	0x6
 1421 002f 6F070000 		.4byte	.LASF1
 1422 0033 03       		.uleb128 0x3
 1423 0034 5E040000 		.4byte	.LASF3
 1424 0038 06       		.byte	0x6
 1425 0039 1D       		.byte	0x1d
 1426 003a 3E000000 		.4byte	0x3e
 1427 003e 02       		.uleb128 0x2
 1428 003f 01       		.byte	0x1
 1429 0040 08       		.byte	0x8
 1430 0041 5D080000 		.4byte	.LASF2
 1431 0045 03       		.uleb128 0x3
 1432 0046 161D0000 		.4byte	.LASF4
 1433 004a 06       		.byte	0x6
 1434 004b 29       		.byte	0x29
 1435 004c 50000000 		.4byte	0x50
 1436 0050 02       		.uleb128 0x2
 1437 0051 02       		.byte	0x2
 1438 0052 05       		.byte	0x5
 1439 0053 9C1F0000 		.4byte	.LASF5
 1440 0057 03       		.uleb128 0x3
 1441 0058 6A170000 		.4byte	.LASF6
 1442 005c 06       		.byte	0x6
 1443 005d 2B       		.byte	0x2b
 1444 005e 62000000 		.4byte	0x62
 1445 0062 02       		.uleb128 0x2
 1446 0063 02       		.byte	0x2
 1447 0064 07       		.byte	0x7
 1448 0065 C8230000 		.4byte	.LASF7
 1449 0069 03       		.uleb128 0x3
 1450 006a B2240000 		.4byte	.LASF8
 1451 006e 06       		.byte	0x6
 1452 006f 3F       		.byte	0x3f
 1453 0070 74000000 		.4byte	0x74
 1454 0074 02       		.uleb128 0x2
 1455 0075 04       		.byte	0x4
 1456 0076 05       		.byte	0x5
 1457 0077 E8040000 		.4byte	.LASF9
 1458 007b 03       		.uleb128 0x3
 1459 007c D9110000 		.4byte	.LASF10
 1460 0080 06       		.byte	0x6
 1461 0081 41       		.byte	0x41
 1462 0082 86000000 		.4byte	0x86
 1463 0086 02       		.uleb128 0x2
 1464 0087 04       		.byte	0x4
 1465 0088 07       		.byte	0x7
 1466 0089 D50E0000 		.4byte	.LASF11
 1467 008d 02       		.uleb128 0x2
 1468 008e 08       		.byte	0x8
ARM GAS  C:\Users\yomat\AppData\Local\Temp\cc0omv11.s 			page 107


 1469 008f 05       		.byte	0x5
 1470 0090 F8220000 		.4byte	.LASF12
 1471 0094 02       		.uleb128 0x2
 1472 0095 08       		.byte	0x8
 1473 0096 07       		.byte	0x7
 1474 0097 C71A0000 		.4byte	.LASF13
 1475 009b 04       		.uleb128 0x4
 1476 009c 04       		.byte	0x4
 1477 009d 05       		.byte	0x5
 1478 009e 696E7400 		.ascii	"int\000"
 1479 00a2 02       		.uleb128 0x2
 1480 00a3 04       		.byte	0x4
 1481 00a4 07       		.byte	0x7
 1482 00a5 73140000 		.4byte	.LASF14
 1483 00a9 02       		.uleb128 0x2
 1484 00aa 08       		.byte	0x8
 1485 00ab 04       		.byte	0x4
 1486 00ac 94180000 		.4byte	.LASF15
 1487 00b0 05       		.uleb128 0x5
 1488 00b1 04       		.byte	0x4
 1489 00b2 02       		.uleb128 0x2
 1490 00b3 04       		.byte	0x4
 1491 00b4 07       		.byte	0x7
 1492 00b5 58000000 		.4byte	.LASF16
 1493 00b9 02       		.uleb128 0x2
 1494 00ba 01       		.byte	0x1
 1495 00bb 08       		.byte	0x8
 1496 00bc 010A0000 		.4byte	.LASF17
 1497 00c0 03       		.uleb128 0x3
 1498 00c1 7B070000 		.4byte	.LASF18
 1499 00c5 07       		.byte	0x7
 1500 00c6 18       		.byte	0x18
 1501 00c7 33000000 		.4byte	0x33
 1502 00cb 03       		.uleb128 0x3
 1503 00cc 25200000 		.4byte	.LASF19
 1504 00d0 07       		.byte	0x7
 1505 00d1 20       		.byte	0x20
 1506 00d2 45000000 		.4byte	0x45
 1507 00d6 03       		.uleb128 0x3
 1508 00d7 041B0000 		.4byte	.LASF20
 1509 00db 07       		.byte	0x7
 1510 00dc 24       		.byte	0x24
 1511 00dd 57000000 		.4byte	0x57
 1512 00e1 03       		.uleb128 0x3
 1513 00e2 841C0000 		.4byte	.LASF21
 1514 00e6 07       		.byte	0x7
 1515 00e7 2C       		.byte	0x2c
 1516 00e8 69000000 		.4byte	0x69
 1517 00ec 03       		.uleb128 0x3
 1518 00ed 06230000 		.4byte	.LASF22
 1519 00f1 07       		.byte	0x7
 1520 00f2 30       		.byte	0x30
 1521 00f3 7B000000 		.4byte	0x7b
 1522 00f7 06       		.uleb128 0x6
 1523 00f8 02       		.byte	0x2
 1524 00f9 50000000 		.4byte	0x50
 1525 00fd 08       		.byte	0x8
ARM GAS  C:\Users\yomat\AppData\Local\Temp\cc0omv11.s 			page 108


 1526 00fe 24       		.byte	0x24
 1527 00ff B8040000 		.4byte	0x4b8
 1528 0103 07       		.uleb128 0x7
 1529 0104 551B0000 		.4byte	.LASF23
 1530 0108 71       		.sleb128 -15
 1531 0109 07       		.uleb128 0x7
 1532 010a 8C0E0000 		.4byte	.LASF24
 1533 010e 72       		.sleb128 -14
 1534 010f 07       		.uleb128 0x7
 1535 0110 A0250000 		.4byte	.LASF25
 1536 0114 73       		.sleb128 -13
 1537 0115 07       		.uleb128 0x7
 1538 0116 E70E0000 		.4byte	.LASF26
 1539 011a 74       		.sleb128 -12
 1540 011b 07       		.uleb128 0x7
 1541 011c 1A110000 		.4byte	.LASF27
 1542 0120 75       		.sleb128 -11
 1543 0121 07       		.uleb128 0x7
 1544 0122 D6090000 		.4byte	.LASF28
 1545 0126 76       		.sleb128 -10
 1546 0127 07       		.uleb128 0x7
 1547 0128 36130000 		.4byte	.LASF29
 1548 012c 7B       		.sleb128 -5
 1549 012d 07       		.uleb128 0x7
 1550 012e B61E0000 		.4byte	.LASF30
 1551 0132 7C       		.sleb128 -4
 1552 0133 07       		.uleb128 0x7
 1553 0134 C8120000 		.4byte	.LASF31
 1554 0138 7E       		.sleb128 -2
 1555 0139 07       		.uleb128 0x7
 1556 013a 11070000 		.4byte	.LASF32
 1557 013e 7F       		.sleb128 -1
 1558 013f 08       		.uleb128 0x8
 1559 0140 2F0A0000 		.4byte	.LASF33
 1560 0144 00       		.byte	0
 1561 0145 08       		.uleb128 0x8
 1562 0146 63240000 		.4byte	.LASF34
 1563 014a 01       		.byte	0x1
 1564 014b 08       		.uleb128 0x8
 1565 014c 43110000 		.4byte	.LASF35
 1566 0150 02       		.byte	0x2
 1567 0151 08       		.uleb128 0x8
 1568 0152 32120000 		.4byte	.LASF36
 1569 0156 03       		.byte	0x3
 1570 0157 08       		.uleb128 0x8
 1571 0158 01040000 		.4byte	.LASF37
 1572 015c 04       		.byte	0x4
 1573 015d 08       		.uleb128 0x8
 1574 015e 73010000 		.4byte	.LASF38
 1575 0162 05       		.byte	0x5
 1576 0163 08       		.uleb128 0x8
 1577 0164 98190000 		.4byte	.LASF39
 1578 0168 06       		.byte	0x6
 1579 0169 08       		.uleb128 0x8
 1580 016a E90A0000 		.4byte	.LASF40
 1581 016e 07       		.byte	0x7
 1582 016f 08       		.uleb128 0x8
ARM GAS  C:\Users\yomat\AppData\Local\Temp\cc0omv11.s 			page 109


 1583 0170 08080000 		.4byte	.LASF41
 1584 0174 08       		.byte	0x8
 1585 0175 08       		.uleb128 0x8
 1586 0176 88200000 		.4byte	.LASF42
 1587 017a 09       		.byte	0x9
 1588 017b 08       		.uleb128 0x8
 1589 017c FD200000 		.4byte	.LASF43
 1590 0180 0A       		.byte	0xa
 1591 0181 08       		.uleb128 0x8
 1592 0182 5C1D0000 		.4byte	.LASF44
 1593 0186 0B       		.byte	0xb
 1594 0187 08       		.uleb128 0x8
 1595 0188 A8020000 		.4byte	.LASF45
 1596 018c 0C       		.byte	0xc
 1597 018d 08       		.uleb128 0x8
 1598 018e 82000000 		.4byte	.LASF46
 1599 0192 0D       		.byte	0xd
 1600 0193 08       		.uleb128 0x8
 1601 0194 2D180000 		.4byte	.LASF47
 1602 0198 0E       		.byte	0xe
 1603 0199 08       		.uleb128 0x8
 1604 019a C9160000 		.4byte	.LASF48
 1605 019e 0F       		.byte	0xf
 1606 019f 08       		.uleb128 0x8
 1607 01a0 A1220000 		.4byte	.LASF49
 1608 01a4 10       		.byte	0x10
 1609 01a5 08       		.uleb128 0x8
 1610 01a6 DB1F0000 		.4byte	.LASF50
 1611 01aa 11       		.byte	0x11
 1612 01ab 08       		.uleb128 0x8
 1613 01ac 3A200000 		.4byte	.LASF51
 1614 01b0 12       		.byte	0x12
 1615 01b1 08       		.uleb128 0x8
 1616 01b2 AF250000 		.4byte	.LASF52
 1617 01b6 13       		.byte	0x13
 1618 01b7 08       		.uleb128 0x8
 1619 01b8 A0180000 		.4byte	.LASF53
 1620 01bc 14       		.byte	0x14
 1621 01bd 08       		.uleb128 0x8
 1622 01be 7C250000 		.4byte	.LASF54
 1623 01c2 15       		.byte	0x15
 1624 01c3 08       		.uleb128 0x8
 1625 01c4 A4010000 		.4byte	.LASF55
 1626 01c8 16       		.byte	0x16
 1627 01c9 08       		.uleb128 0x8
 1628 01ca F11F0000 		.4byte	.LASF56
 1629 01ce 17       		.byte	0x17
 1630 01cf 08       		.uleb128 0x8
 1631 01d0 1E1A0000 		.4byte	.LASF57
 1632 01d4 18       		.byte	0x18
 1633 01d5 08       		.uleb128 0x8
 1634 01d6 1A240000 		.4byte	.LASF58
 1635 01da 19       		.byte	0x19
 1636 01db 08       		.uleb128 0x8
 1637 01dc A1210000 		.4byte	.LASF59
 1638 01e0 1A       		.byte	0x1a
 1639 01e1 08       		.uleb128 0x8
ARM GAS  C:\Users\yomat\AppData\Local\Temp\cc0omv11.s 			page 110


 1640 01e2 EC110000 		.4byte	.LASF60
 1641 01e6 1B       		.byte	0x1b
 1642 01e7 08       		.uleb128 0x8
 1643 01e8 B5030000 		.4byte	.LASF61
 1644 01ec 1C       		.byte	0x1c
 1645 01ed 08       		.uleb128 0x8
 1646 01ee 3D010000 		.4byte	.LASF62
 1647 01f2 1D       		.byte	0x1d
 1648 01f3 08       		.uleb128 0x8
 1649 01f4 7C190000 		.4byte	.LASF63
 1650 01f8 1E       		.byte	0x1e
 1651 01f9 08       		.uleb128 0x8
 1652 01fa B60A0000 		.4byte	.LASF64
 1653 01fe 1F       		.byte	0x1f
 1654 01ff 08       		.uleb128 0x8
 1655 0200 D2070000 		.4byte	.LASF65
 1656 0204 20       		.byte	0x20
 1657 0205 08       		.uleb128 0x8
 1658 0206 58200000 		.4byte	.LASF66
 1659 020a 21       		.byte	0x21
 1660 020b 08       		.uleb128 0x8
 1661 020c 33100000 		.4byte	.LASF67
 1662 0210 22       		.byte	0x22
 1663 0211 08       		.uleb128 0x8
 1664 0212 85140000 		.4byte	.LASF68
 1665 0216 23       		.byte	0x23
 1666 0217 08       		.uleb128 0x8
 1667 0218 79060000 		.4byte	.LASF69
 1668 021c 24       		.byte	0x24
 1669 021d 08       		.uleb128 0x8
 1670 021e FF1E0000 		.4byte	.LASF70
 1671 0222 25       		.byte	0x25
 1672 0223 08       		.uleb128 0x8
 1673 0224 501C0000 		.4byte	.LASF71
 1674 0228 26       		.byte	0x26
 1675 0229 08       		.uleb128 0x8
 1676 022a ED0C0000 		.4byte	.LASF72
 1677 022e 27       		.byte	0x27
 1678 022f 08       		.uleb128 0x8
 1679 0230 51250000 		.4byte	.LASF73
 1680 0234 28       		.byte	0x28
 1681 0235 08       		.uleb128 0x8
 1682 0236 4B0B0000 		.4byte	.LASF74
 1683 023a 29       		.byte	0x29
 1684 023b 08       		.uleb128 0x8
 1685 023c BC1B0000 		.4byte	.LASF75
 1686 0240 2A       		.byte	0x2a
 1687 0241 08       		.uleb128 0x8
 1688 0242 5C100000 		.4byte	.LASF76
 1689 0246 2B       		.byte	0x2b
 1690 0247 08       		.uleb128 0x8
 1691 0248 2C220000 		.4byte	.LASF77
 1692 024c 2C       		.byte	0x2c
 1693 024d 08       		.uleb128 0x8
 1694 024e AF170000 		.4byte	.LASF78
 1695 0252 2D       		.byte	0x2d
 1696 0253 08       		.uleb128 0x8
ARM GAS  C:\Users\yomat\AppData\Local\Temp\cc0omv11.s 			page 111


 1697 0254 8F010000 		.4byte	.LASF79
 1698 0258 2E       		.byte	0x2e
 1699 0259 08       		.uleb128 0x8
 1700 025a 5A1F0000 		.4byte	.LASF80
 1701 025e 2F       		.byte	0x2f
 1702 025f 08       		.uleb128 0x8
 1703 0260 3B0F0000 		.4byte	.LASF81
 1704 0264 30       		.byte	0x30
 1705 0265 08       		.uleb128 0x8
 1706 0266 36070000 		.4byte	.LASF82
 1707 026a 31       		.byte	0x31
 1708 026b 08       		.uleb128 0x8
 1709 026c EA0B0000 		.4byte	.LASF83
 1710 0270 32       		.byte	0x32
 1711 0271 08       		.uleb128 0x8
 1712 0272 DB230000 		.4byte	.LASF84
 1713 0276 33       		.byte	0x33
 1714 0277 08       		.uleb128 0x8
 1715 0278 36140000 		.4byte	.LASF85
 1716 027c 34       		.byte	0x34
 1717 027d 08       		.uleb128 0x8
 1718 027e BD110000 		.4byte	.LASF86
 1719 0282 35       		.byte	0x35
 1720 0283 08       		.uleb128 0x8
 1721 0284 99030000 		.4byte	.LASF87
 1722 0288 36       		.byte	0x36
 1723 0289 08       		.uleb128 0x8
 1724 028a E81B0000 		.4byte	.LASF88
 1725 028e 37       		.byte	0x37
 1726 028f 08       		.uleb128 0x8
 1727 0290 1B190000 		.4byte	.LASF89
 1728 0294 38       		.byte	0x38
 1729 0295 08       		.uleb128 0x8
 1730 0296 6B0A0000 		.4byte	.LASF90
 1731 029a 39       		.byte	0x39
 1732 029b 08       		.uleb128 0x8
 1733 029c 5C220000 		.4byte	.LASF91
 1734 02a0 3A       		.byte	0x3a
 1735 02a1 08       		.uleb128 0x8
 1736 02a2 D4120000 		.4byte	.LASF92
 1737 02a6 3B       		.byte	0x3b
 1738 02a7 08       		.uleb128 0x8
 1739 02a8 D6100000 		.4byte	.LASF93
 1740 02ac 3C       		.byte	0x3c
 1741 02ad 08       		.uleb128 0x8
 1742 02ae D7020000 		.4byte	.LASF94
 1743 02b2 3D       		.byte	0x3d
 1744 02b3 08       		.uleb128 0x8
 1745 02b4 89120000 		.4byte	.LASF95
 1746 02b8 3E       		.byte	0x3e
 1747 02b9 08       		.uleb128 0x8
 1748 02ba 4A180000 		.4byte	.LASF96
 1749 02be 3F       		.byte	0x3f
 1750 02bf 08       		.uleb128 0x8
 1751 02c0 AF090000 		.4byte	.LASF97
 1752 02c4 40       		.byte	0x40
 1753 02c5 08       		.uleb128 0x8
ARM GAS  C:\Users\yomat\AppData\Local\Temp\cc0omv11.s 			page 112


 1754 02c6 84210000 		.4byte	.LASF98
 1755 02ca 41       		.byte	0x41
 1756 02cb 08       		.uleb128 0x8
 1757 02cc E2240000 		.4byte	.LASF99
 1758 02d0 42       		.byte	0x42
 1759 02d1 08       		.uleb128 0x8
 1760 02d2 B5150000 		.4byte	.LASF100
 1761 02d6 43       		.byte	0x43
 1762 02d7 08       		.uleb128 0x8
 1763 02d8 E7060000 		.4byte	.LASF101
 1764 02dc 44       		.byte	0x44
 1765 02dd 08       		.uleb128 0x8
 1766 02de 86040000 		.4byte	.LASF102
 1767 02e2 45       		.byte	0x45
 1768 02e3 08       		.uleb128 0x8
 1769 02e4 D41C0000 		.4byte	.LASF103
 1770 02e8 46       		.byte	0x46
 1771 02e9 08       		.uleb128 0x8
 1772 02ea 10220000 		.4byte	.LASF104
 1773 02ee 47       		.byte	0x47
 1774 02ef 08       		.uleb128 0x8
 1775 02f0 2F0B0000 		.4byte	.LASF105
 1776 02f4 48       		.byte	0x48
 1777 02f5 08       		.uleb128 0x8
 1778 02f6 35230000 		.4byte	.LASF106
 1779 02fa 49       		.byte	0x49
 1780 02fb 08       		.uleb128 0x8
 1781 02fc A9130000 		.4byte	.LASF107
 1782 0300 4A       		.byte	0x4a
 1783 0301 08       		.uleb128 0x8
 1784 0302 71100000 		.4byte	.LASF108
 1785 0306 4B       		.byte	0x4b
 1786 0307 08       		.uleb128 0x8
 1787 0308 E71A0000 		.4byte	.LASF109
 1788 030c 4C       		.byte	0x4c
 1789 030d 08       		.uleb128 0x8
 1790 030e 990B0000 		.4byte	.LASF110
 1791 0312 4D       		.byte	0x4d
 1792 0313 08       		.uleb128 0x8
 1793 0314 95230000 		.4byte	.LASF111
 1794 0318 4E       		.byte	0x4e
 1795 0319 08       		.uleb128 0x8
 1796 031a 57060000 		.4byte	.LASF112
 1797 031e 4F       		.byte	0x4f
 1798 031f 08       		.uleb128 0x8
 1799 0320 74110000 		.4byte	.LASF113
 1800 0324 50       		.byte	0x50
 1801 0325 08       		.uleb128 0x8
 1802 0326 2D030000 		.4byte	.LASF114
 1803 032a 51       		.byte	0x51
 1804 032b 08       		.uleb128 0x8
 1805 032c F81C0000 		.4byte	.LASF115
 1806 0330 52       		.byte	0x52
 1807 0331 08       		.uleb128 0x8
 1808 0332 A90D0000 		.4byte	.LASF116
 1809 0336 53       		.byte	0x53
 1810 0337 08       		.uleb128 0x8
ARM GAS  C:\Users\yomat\AppData\Local\Temp\cc0omv11.s 			page 113


 1811 0338 401D0000 		.4byte	.LASF117
 1812 033c 54       		.byte	0x54
 1813 033d 08       		.uleb128 0x8
 1814 033e F2010000 		.4byte	.LASF118
 1815 0342 55       		.byte	0x55
 1816 0343 08       		.uleb128 0x8
 1817 0344 B51F0000 		.4byte	.LASF119
 1818 0348 56       		.byte	0x56
 1819 0349 08       		.uleb128 0x8
 1820 034a 8C0F0000 		.4byte	.LASF120
 1821 034e 57       		.byte	0x57
 1822 034f 08       		.uleb128 0x8
 1823 0350 7C1A0000 		.4byte	.LASF121
 1824 0354 58       		.byte	0x58
 1825 0355 08       		.uleb128 0x8
 1826 0356 B1200000 		.4byte	.LASF122
 1827 035a 59       		.byte	0x59
 1828 035b 08       		.uleb128 0x8
 1829 035c DF1D0000 		.4byte	.LASF123
 1830 0360 5A       		.byte	0x5a
 1831 0361 08       		.uleb128 0x8
 1832 0362 DB000000 		.4byte	.LASF124
 1833 0366 5B       		.byte	0x5b
 1834 0367 08       		.uleb128 0x8
 1835 0368 140C0000 		.4byte	.LASF125
 1836 036c 5C       		.byte	0x5c
 1837 036d 08       		.uleb128 0x8
 1838 036e 201D0000 		.4byte	.LASF126
 1839 0372 5D       		.byte	0x5d
 1840 0373 08       		.uleb128 0x8
 1841 0374 BD210000 		.4byte	.LASF127
 1842 0378 5E       		.byte	0x5e
 1843 0379 08       		.uleb128 0x8
 1844 037a 18120000 		.4byte	.LASF128
 1845 037e 5F       		.byte	0x5f
 1846 037f 08       		.uleb128 0x8
 1847 0380 D1030000 		.4byte	.LASF129
 1848 0384 60       		.byte	0x60
 1849 0385 08       		.uleb128 0x8
 1850 0386 59010000 		.4byte	.LASF130
 1851 038a 61       		.byte	0x61
 1852 038b 08       		.uleb128 0x8
 1853 038c 720F0000 		.4byte	.LASF131
 1854 0390 62       		.byte	0x62
 1855 0391 08       		.uleb128 0x8
 1856 0392 62190000 		.4byte	.LASF132
 1857 0396 63       		.byte	0x63
 1858 0397 08       		.uleb128 0x8
 1859 0398 8F0A0000 		.4byte	.LASF133
 1860 039c 64       		.byte	0x64
 1861 039d 08       		.uleb128 0x8
 1862 039e 7A180000 		.4byte	.LASF134
 1863 03a2 65       		.byte	0x65
 1864 03a3 08       		.uleb128 0x8
 1865 03a4 15130000 		.4byte	.LASF135
 1866 03a8 66       		.byte	0x66
 1867 03a9 08       		.uleb128 0x8
ARM GAS  C:\Users\yomat\AppData\Local\Temp\cc0omv11.s 			page 114


 1868 03aa 19100000 		.4byte	.LASF136
 1869 03ae 67       		.byte	0x67
 1870 03af 08       		.uleb128 0x8
 1871 03b0 D8010000 		.4byte	.LASF137
 1872 03b4 68       		.byte	0x68
 1873 03b5 08       		.uleb128 0x8
 1874 03b6 9C1A0000 		.4byte	.LASF138
 1875 03ba 69       		.byte	0x69
 1876 03bb 08       		.uleb128 0x8
 1877 03bc 50170000 		.4byte	.LASF139
 1878 03c0 6A       		.byte	0x6a
 1879 03c1 08       		.uleb128 0x8
 1880 03c2 D2080000 		.4byte	.LASF140
 1881 03c6 6B       		.byte	0x6b
 1882 03c7 08       		.uleb128 0x8
 1883 03c8 7E0B0000 		.4byte	.LASF141
 1884 03cc 6C       		.byte	0x6c
 1885 03cd 08       		.uleb128 0x8
 1886 03ce A00E0000 		.4byte	.LASF142
 1887 03d2 6D       		.byte	0x6d
 1888 03d3 08       		.uleb128 0x8
 1889 03d4 FF130000 		.4byte	.LASF143
 1890 03d8 6E       		.byte	0x6e
 1891 03d9 08       		.uleb128 0x8
 1892 03da 6C050000 		.4byte	.LASF144
 1893 03de 6F       		.byte	0x6f
 1894 03df 08       		.uleb128 0x8
 1895 03e0 08030000 		.4byte	.LASF145
 1896 03e4 70       		.byte	0x70
 1897 03e5 08       		.uleb128 0x8
 1898 03e6 330C0000 		.4byte	.LASF146
 1899 03ea 71       		.byte	0x71
 1900 03eb 08       		.uleb128 0x8
 1901 03ec 4E0C0000 		.4byte	.LASF147
 1902 03f0 72       		.byte	0x72
 1903 03f1 08       		.uleb128 0x8
 1904 03f2 E6090000 		.4byte	.LASF148
 1905 03f6 73       		.byte	0x73
 1906 03f7 08       		.uleb128 0x8
 1907 03f8 E7210000 		.4byte	.LASF149
 1908 03fc 74       		.byte	0x74
 1909 03fd 08       		.uleb128 0x8
 1910 03fe 4E120000 		.4byte	.LASF150
 1911 0402 75       		.byte	0x75
 1912 0403 08       		.uleb128 0x8
 1913 0404 480D0000 		.4byte	.LASF151
 1914 0408 76       		.byte	0x76
 1915 0409 08       		.uleb128 0x8
 1916 040a D9250000 		.4byte	.LASF152
 1917 040e 77       		.byte	0x77
 1918 040f 08       		.uleb128 0x8
 1919 0410 1B160000 		.4byte	.LASF153
 1920 0414 78       		.byte	0x78
 1921 0415 08       		.uleb128 0x8
 1922 0416 8E130000 		.4byte	.LASF154
 1923 041a 79       		.byte	0x79
 1924 041b 08       		.uleb128 0x8
ARM GAS  C:\Users\yomat\AppData\Local\Temp\cc0omv11.s 			page 115


 1925 041c 56050000 		.4byte	.LASF155
 1926 0420 7A       		.byte	0x7a
 1927 0421 08       		.uleb128 0x8
 1928 0422 F91D0000 		.4byte	.LASF156
 1929 0426 7B       		.byte	0x7b
 1930 0427 08       		.uleb128 0x8
 1931 0428 460E0000 		.4byte	.LASF157
 1932 042c 7C       		.byte	0x7c
 1933 042d 08       		.uleb128 0x8
 1934 042e 22000000 		.4byte	.LASF158
 1935 0432 7D       		.byte	0x7d
 1936 0433 08       		.uleb128 0x8
 1937 0434 4D240000 		.4byte	.LASF159
 1938 0438 7E       		.byte	0x7e
 1939 0439 08       		.uleb128 0x8
 1940 043a 5D140000 		.4byte	.LASF160
 1941 043e 7F       		.byte	0x7f
 1942 043f 08       		.uleb128 0x8
 1943 0440 41060000 		.4byte	.LASF161
 1944 0444 80       		.byte	0x80
 1945 0445 08       		.uleb128 0x8
 1946 0446 EB030000 		.4byte	.LASF162
 1947 044a 81       		.byte	0x81
 1948 044b 08       		.uleb128 0x8
 1949 044c 3A1C0000 		.4byte	.LASF163
 1950 0450 82       		.byte	0x82
 1951 0451 08       		.uleb128 0x8
 1952 0452 BF0C0000 		.4byte	.LASF164
 1953 0456 83       		.byte	0x83
 1954 0457 08       		.uleb128 0x8
 1955 0458 8A220000 		.4byte	.LASF165
 1956 045c 84       		.byte	0x84
 1957 045d 08       		.uleb128 0x8
 1958 045e FE120000 		.4byte	.LASF166
 1959 0462 85       		.byte	0x85
 1960 0463 08       		.uleb128 0x8
 1961 0464 02100000 		.4byte	.LASF167
 1962 0468 86       		.byte	0x86
 1963 0469 08       		.uleb128 0x8
 1964 046a C1010000 		.4byte	.LASF168
 1965 046e 87       		.byte	0x87
 1966 046f 08       		.uleb128 0x8
 1967 0470 6D1C0000 		.4byte	.LASF169
 1968 0474 88       		.byte	0x88
 1969 0475 08       		.uleb128 0x8
 1970 0476 13170000 		.4byte	.LASF170
 1971 047a 89       		.byte	0x89
 1972 047b 08       		.uleb128 0x8
 1973 047c 9B160000 		.4byte	.LASF171
 1974 0480 8A       		.byte	0x8a
 1975 0481 08       		.uleb128 0x8
 1976 0482 BB1D0000 		.4byte	.LASF172
 1977 0486 8B       		.byte	0x8b
 1978 0487 08       		.uleb128 0x8
 1979 0488 B4190000 		.4byte	.LASF173
 1980 048c 8C       		.byte	0x8c
 1981 048d 08       		.uleb128 0x8
ARM GAS  C:\Users\yomat\AppData\Local\Temp\cc0omv11.s 			page 116


 1982 048e 91020000 		.4byte	.LASF174
 1983 0492 8D       		.byte	0x8d
 1984 0493 08       		.uleb128 0x8
 1985 0494 F4020000 		.4byte	.LASF175
 1986 0498 8E       		.byte	0x8e
 1987 0499 08       		.uleb128 0x8
 1988 049a 0D1B0000 		.4byte	.LASF176
 1989 049e 8F       		.byte	0x8f
 1990 049f 08       		.uleb128 0x8
 1991 04a0 180A0000 		.4byte	.LASF177
 1992 04a4 90       		.byte	0x90
 1993 04a5 08       		.uleb128 0x8
 1994 04a6 16090000 		.4byte	.LASF178
 1995 04aa 91       		.byte	0x91
 1996 04ab 08       		.uleb128 0x8
 1997 04ac 630D0000 		.4byte	.LASF179
 1998 04b0 92       		.byte	0x92
 1999 04b1 08       		.uleb128 0x8
 2000 04b2 54090000 		.4byte	.LASF180
 2001 04b6 F0       		.byte	0xf0
 2002 04b7 00       		.byte	0
 2003 04b8 03       		.uleb128 0x3
 2004 04b9 500F0000 		.4byte	.LASF181
 2005 04bd 08       		.byte	0x8
 2006 04be F4       		.byte	0xf4
 2007 04bf F7000000 		.4byte	0xf7
 2008 04c3 09       		.uleb128 0x9
 2009 04c4 040E     		.2byte	0xe04
 2010 04c6 02       		.byte	0x2
 2011 04c7 9601     		.2byte	0x196
 2012 04c9 7F050000 		.4byte	0x57f
 2013 04cd 0A       		.uleb128 0xa
 2014 04ce BE100000 		.4byte	.LASF182
 2015 04d2 02       		.byte	0x2
 2016 04d3 9801     		.2byte	0x198
 2017 04d5 94050000 		.4byte	0x594
 2018 04d9 00       		.byte	0
 2019 04da 0A       		.uleb128 0xa
 2020 04db 49080000 		.4byte	.LASF183
 2021 04df 02       		.byte	0x2
 2022 04e0 9901     		.2byte	0x199
 2023 04e2 99050000 		.4byte	0x599
 2024 04e6 20       		.byte	0x20
 2025 04e7 0A       		.uleb128 0xa
 2026 04e8 BA1C0000 		.4byte	.LASF184
 2027 04ec 02       		.byte	0x2
 2028 04ed 9A01     		.2byte	0x19a
 2029 04ef A9050000 		.4byte	0x5a9
 2030 04f3 80       		.byte	0x80
 2031 04f4 0A       		.uleb128 0xa
 2032 04f5 00000000 		.4byte	.LASF185
 2033 04f9 02       		.byte	0x2
 2034 04fa 9B01     		.2byte	0x19b
 2035 04fc 99050000 		.4byte	0x599
 2036 0500 A0       		.byte	0xa0
 2037 0501 0B       		.uleb128 0xb
 2038 0502 2E0C0000 		.4byte	.LASF186
ARM GAS  C:\Users\yomat\AppData\Local\Temp\cc0omv11.s 			page 117


 2039 0506 02       		.byte	0x2
 2040 0507 9C01     		.2byte	0x19c
 2041 0509 AE050000 		.4byte	0x5ae
 2042 050d 0001     		.2byte	0x100
 2043 050f 0B       		.uleb128 0xb
 2044 0510 1F0B0000 		.4byte	.LASF187
 2045 0514 02       		.byte	0x2
 2046 0515 9D01     		.2byte	0x19d
 2047 0517 99050000 		.4byte	0x599
 2048 051b 2001     		.2byte	0x120
 2049 051d 0B       		.uleb128 0xb
 2050 051e 61030000 		.4byte	.LASF188
 2051 0522 02       		.byte	0x2
 2052 0523 9E01     		.2byte	0x19e
 2053 0525 B3050000 		.4byte	0x5b3
 2054 0529 8001     		.2byte	0x180
 2055 052b 0B       		.uleb128 0xb
 2056 052c CC090000 		.4byte	.LASF189
 2057 0530 02       		.byte	0x2
 2058 0531 9F01     		.2byte	0x19f
 2059 0533 99050000 		.4byte	0x599
 2060 0537 A001     		.2byte	0x1a0
 2061 0539 0B       		.uleb128 0xb
 2062 053a CD080000 		.4byte	.LASF190
 2063 053e 02       		.byte	0x2
 2064 053f A001     		.2byte	0x1a0
 2065 0541 B8050000 		.4byte	0x5b8
 2066 0545 0002     		.2byte	0x200
 2067 0547 0B       		.uleb128 0xb
 2068 0548 78080000 		.4byte	.LASF191
 2069 054c 02       		.byte	0x2
 2070 054d A101     		.2byte	0x1a1
 2071 054f BD050000 		.4byte	0x5bd
 2072 0553 2002     		.2byte	0x220
 2073 0555 0C       		.uleb128 0xc
 2074 0556 495000   		.ascii	"IP\000"
 2075 0559 02       		.byte	0x2
 2076 055a A201     		.2byte	0x1a2
 2077 055c E2050000 		.4byte	0x5e2
 2078 0560 0003     		.2byte	0x300
 2079 0562 0B       		.uleb128 0xb
 2080 0563 82080000 		.4byte	.LASF192
 2081 0567 02       		.byte	0x2
 2082 0568 A301     		.2byte	0x1a3
 2083 056a E7050000 		.4byte	0x5e7
 2084 056e F003     		.2byte	0x3f0
 2085 0570 0B       		.uleb128 0xb
 2086 0571 0A0D0000 		.4byte	.LASF193
 2087 0575 02       		.byte	0x2
 2088 0576 A401     		.2byte	0x1a4
 2089 0578 8F050000 		.4byte	0x58f
 2090 057c 000E     		.2byte	0xe00
 2091 057e 00       		.byte	0
 2092 057f 0D       		.uleb128 0xd
 2093 0580 8F050000 		.4byte	0x58f
 2094 0584 8F050000 		.4byte	0x58f
 2095 0588 0E       		.uleb128 0xe
ARM GAS  C:\Users\yomat\AppData\Local\Temp\cc0omv11.s 			page 118


 2096 0589 B2000000 		.4byte	0xb2
 2097 058d 07       		.byte	0x7
 2098 058e 00       		.byte	0
 2099 058f 0F       		.uleb128 0xf
 2100 0590 EC000000 		.4byte	0xec
 2101 0594 0F       		.uleb128 0xf
 2102 0595 7F050000 		.4byte	0x57f
 2103 0599 0D       		.uleb128 0xd
 2104 059a EC000000 		.4byte	0xec
 2105 059e A9050000 		.4byte	0x5a9
 2106 05a2 0E       		.uleb128 0xe
 2107 05a3 B2000000 		.4byte	0xb2
 2108 05a7 17       		.byte	0x17
 2109 05a8 00       		.byte	0
 2110 05a9 0F       		.uleb128 0xf
 2111 05aa 7F050000 		.4byte	0x57f
 2112 05ae 0F       		.uleb128 0xf
 2113 05af 7F050000 		.4byte	0x57f
 2114 05b3 0F       		.uleb128 0xf
 2115 05b4 7F050000 		.4byte	0x57f
 2116 05b8 0F       		.uleb128 0xf
 2117 05b9 7F050000 		.4byte	0x57f
 2118 05bd 0D       		.uleb128 0xd
 2119 05be EC000000 		.4byte	0xec
 2120 05c2 CD050000 		.4byte	0x5cd
 2121 05c6 0E       		.uleb128 0xe
 2122 05c7 B2000000 		.4byte	0xb2
 2123 05cb 37       		.byte	0x37
 2124 05cc 00       		.byte	0
 2125 05cd 0D       		.uleb128 0xd
 2126 05ce DD050000 		.4byte	0x5dd
 2127 05d2 DD050000 		.4byte	0x5dd
 2128 05d6 0E       		.uleb128 0xe
 2129 05d7 B2000000 		.4byte	0xb2
 2130 05db EF       		.byte	0xef
 2131 05dc 00       		.byte	0
 2132 05dd 0F       		.uleb128 0xf
 2133 05de C0000000 		.4byte	0xc0
 2134 05e2 0F       		.uleb128 0xf
 2135 05e3 CD050000 		.4byte	0x5cd
 2136 05e7 0D       		.uleb128 0xd
 2137 05e8 EC000000 		.4byte	0xec
 2138 05ec F8050000 		.4byte	0x5f8
 2139 05f0 10       		.uleb128 0x10
 2140 05f1 B2000000 		.4byte	0xb2
 2141 05f5 8302     		.2byte	0x283
 2142 05f7 00       		.byte	0
 2143 05f8 11       		.uleb128 0x11
 2144 05f9 511A0000 		.4byte	.LASF194
 2145 05fd 02       		.byte	0x2
 2146 05fe A501     		.2byte	0x1a5
 2147 0600 C3040000 		.4byte	0x4c3
 2148 0604 12       		.uleb128 0x12
 2149 0605 8F050000 		.4byte	0x58f
 2150 0609 0D       		.uleb128 0xd
 2151 060a 04060000 		.4byte	0x604
 2152 060e 19060000 		.4byte	0x619
ARM GAS  C:\Users\yomat\AppData\Local\Temp\cc0omv11.s 			page 119


 2153 0612 0E       		.uleb128 0xe
 2154 0613 B2000000 		.4byte	0xb2
 2155 0617 03       		.byte	0x3
 2156 0618 00       		.byte	0
 2157 0619 0D       		.uleb128 0xd
 2158 061a 04060000 		.4byte	0x604
 2159 061e 29060000 		.4byte	0x629
 2160 0622 0E       		.uleb128 0xe
 2161 0623 B2000000 		.4byte	0xb2
 2162 0627 05       		.byte	0x5
 2163 0628 00       		.byte	0
 2164 0629 0D       		.uleb128 0xd
 2165 062a 04060000 		.4byte	0x604
 2166 062e 39060000 		.4byte	0x639
 2167 0632 0E       		.uleb128 0xe
 2168 0633 B2000000 		.4byte	0xb2
 2169 0637 7F       		.byte	0x7f
 2170 0638 00       		.byte	0
 2171 0639 0D       		.uleb128 0xd
 2172 063a 04060000 		.4byte	0x604
 2173 063e 49060000 		.4byte	0x649
 2174 0642 0E       		.uleb128 0xe
 2175 0643 B2000000 		.4byte	0xb2
 2176 0647 0C       		.byte	0xc
 2177 0648 00       		.byte	0
 2178 0649 0D       		.uleb128 0xd
 2179 064a 04060000 		.4byte	0x604
 2180 064e 59060000 		.4byte	0x659
 2181 0652 0E       		.uleb128 0xe
 2182 0653 B2000000 		.4byte	0xb2
 2183 0657 0F       		.byte	0xf
 2184 0658 00       		.byte	0
 2185 0659 0D       		.uleb128 0xd
 2186 065a 04060000 		.4byte	0x604
 2187 065e 69060000 		.4byte	0x669
 2188 0662 0E       		.uleb128 0xe
 2189 0663 B2000000 		.4byte	0xb2
 2190 0667 1E       		.byte	0x1e
 2191 0668 00       		.byte	0
 2192 0669 0D       		.uleb128 0xd
 2193 066a 04060000 		.4byte	0x604
 2194 066e 79060000 		.4byte	0x679
 2195 0672 0E       		.uleb128 0xe
 2196 0673 B2000000 		.4byte	0xb2
 2197 0677 02       		.byte	0x2
 2198 0678 00       		.byte	0
 2199 0679 0D       		.uleb128 0xd
 2200 067a 04060000 		.4byte	0x604
 2201 067e 89060000 		.4byte	0x689
 2202 0682 0E       		.uleb128 0xe
 2203 0683 B2000000 		.4byte	0xb2
 2204 0687 0B       		.byte	0xb
 2205 0688 00       		.byte	0
 2206 0689 13       		.uleb128 0x13
 2207 068a 80       		.byte	0x80
 2208 068b 09       		.byte	0x9
 2209 068c 22       		.byte	0x22
ARM GAS  C:\Users\yomat\AppData\Local\Temp\cc0omv11.s 			page 120


 2210 068d 5D070000 		.4byte	0x75d
 2211 0691 14       		.uleb128 0x14
 2212 0692 4F555400 		.ascii	"OUT\000"
 2213 0696 09       		.byte	0x9
 2214 0697 23       		.byte	0x23
 2215 0698 8F050000 		.4byte	0x58f
 2216 069c 00       		.byte	0
 2217 069d 15       		.uleb128 0x15
 2218 069e 52020000 		.4byte	.LASF195
 2219 06a2 09       		.byte	0x9
 2220 06a3 24       		.byte	0x24
 2221 06a4 8F050000 		.4byte	0x58f
 2222 06a8 04       		.byte	0x4
 2223 06a9 15       		.uleb128 0x15
 2224 06aa 34020000 		.4byte	.LASF196
 2225 06ae 09       		.byte	0x9
 2226 06af 25       		.byte	0x25
 2227 06b0 8F050000 		.4byte	0x58f
 2228 06b4 08       		.byte	0x8
 2229 06b5 15       		.uleb128 0x15
 2230 06b6 48170000 		.4byte	.LASF197
 2231 06ba 09       		.byte	0x9
 2232 06bb 26       		.byte	0x26
 2233 06bc 8F050000 		.4byte	0x58f
 2234 06c0 0C       		.byte	0xc
 2235 06c1 14       		.uleb128 0x14
 2236 06c2 494E00   		.ascii	"IN\000"
 2237 06c5 09       		.byte	0x9
 2238 06c6 27       		.byte	0x27
 2239 06c7 04060000 		.4byte	0x604
 2240 06cb 10       		.byte	0x10
 2241 06cc 15       		.uleb128 0x15
 2242 06cd 74060000 		.4byte	.LASF198
 2243 06d1 09       		.byte	0x9
 2244 06d2 28       		.byte	0x28
 2245 06d3 8F050000 		.4byte	0x58f
 2246 06d7 14       		.byte	0x14
 2247 06d8 15       		.uleb128 0x15
 2248 06d9 23030000 		.4byte	.LASF199
 2249 06dd 09       		.byte	0x9
 2250 06de 29       		.byte	0x29
 2251 06df 8F050000 		.4byte	0x58f
 2252 06e3 18       		.byte	0x18
 2253 06e4 15       		.uleb128 0x15
 2254 06e5 56190000 		.4byte	.LASF200
 2255 06e9 09       		.byte	0x9
 2256 06ea 2A       		.byte	0x2a
 2257 06eb 04060000 		.4byte	0x604
 2258 06ef 1C       		.byte	0x1c
 2259 06f0 15       		.uleb128 0x15
 2260 06f1 C4180000 		.4byte	.LASF201
 2261 06f5 09       		.byte	0x9
 2262 06f6 2B       		.byte	0x2b
 2263 06f7 8F050000 		.4byte	0x58f
 2264 06fb 20       		.byte	0x20
 2265 06fc 15       		.uleb128 0x15
 2266 06fd DE1A0000 		.4byte	.LASF202
ARM GAS  C:\Users\yomat\AppData\Local\Temp\cc0omv11.s 			page 121


 2267 0701 09       		.byte	0x9
 2268 0702 2C       		.byte	0x2c
 2269 0703 8F050000 		.4byte	0x58f
 2270 0707 24       		.byte	0x24
 2271 0708 14       		.uleb128 0x14
 2272 0709 43464700 		.ascii	"CFG\000"
 2273 070d 09       		.byte	0x9
 2274 070e 2D       		.byte	0x2d
 2275 070f 8F050000 		.4byte	0x58f
 2276 0713 28       		.byte	0x28
 2277 0714 15       		.uleb128 0x15
 2278 0715 B60B0000 		.4byte	.LASF203
 2279 0719 09       		.byte	0x9
 2280 071a 2E       		.byte	0x2e
 2281 071b 8F050000 		.4byte	0x58f
 2282 071f 2C       		.byte	0x2c
 2283 0720 15       		.uleb128 0x15
 2284 0721 72120000 		.4byte	.LASF204
 2285 0725 09       		.byte	0x9
 2286 0726 2F       		.byte	0x2f
 2287 0727 8F050000 		.4byte	0x58f
 2288 072b 30       		.byte	0x30
 2289 072c 15       		.uleb128 0x15
 2290 072d B31D0000 		.4byte	.LASF205
 2291 0731 09       		.byte	0x9
 2292 0732 30       		.byte	0x30
 2293 0733 8F050000 		.4byte	0x58f
 2294 0737 34       		.byte	0x34
 2295 0738 15       		.uleb128 0x15
 2296 0739 7C0D0000 		.4byte	.LASF206
 2297 073d 09       		.byte	0x9
 2298 073e 31       		.byte	0x31
 2299 073f 04060000 		.4byte	0x604
 2300 0743 38       		.byte	0x38
 2301 0744 15       		.uleb128 0x15
 2302 0745 03070000 		.4byte	.LASF207
 2303 0749 09       		.byte	0x9
 2304 074a 32       		.byte	0x32
 2305 074b 8F050000 		.4byte	0x58f
 2306 074f 3C       		.byte	0x3c
 2307 0750 15       		.uleb128 0x15
 2308 0751 53080000 		.4byte	.LASF208
 2309 0755 09       		.byte	0x9
 2310 0756 33       		.byte	0x33
 2311 0757 62070000 		.4byte	0x762
 2312 075b 40       		.byte	0x40
 2313 075c 00       		.byte	0
 2314 075d 0F       		.uleb128 0xf
 2315 075e 49060000 		.4byte	0x649
 2316 0762 12       		.uleb128 0x12
 2317 0763 5D070000 		.4byte	0x75d
 2318 0767 03       		.uleb128 0x3
 2319 0768 231B0000 		.4byte	.LASF209
 2320 076c 09       		.byte	0x9
 2321 076d 34       		.byte	0x34
 2322 076e 89060000 		.4byte	0x689
 2323 0772 16       		.uleb128 0x16
ARM GAS  C:\Users\yomat\AppData\Local\Temp\cc0omv11.s 			page 122


 2324 0773 2440     		.2byte	0x4024
 2325 0775 09       		.byte	0x9
 2326 0776 39       		.byte	0x39
 2327 0777 FD070000 		.4byte	0x7fd
 2328 077b 14       		.uleb128 0x14
 2329 077c 50525400 		.ascii	"PRT\000"
 2330 0780 09       		.byte	0x9
 2331 0781 3A       		.byte	0x3a
 2332 0782 FD070000 		.4byte	0x7fd
 2333 0786 00       		.byte	0
 2334 0787 17       		.uleb128 0x17
 2335 0788 F1040000 		.4byte	.LASF210
 2336 078c 09       		.byte	0x9
 2337 078d 3B       		.byte	0x3b
 2338 078e 04060000 		.4byte	0x604
 2339 0792 0040     		.2byte	0x4000
 2340 0794 17       		.uleb128 0x17
 2341 0795 FD040000 		.4byte	.LASF211
 2342 0799 09       		.byte	0x9
 2343 079a 3C       		.byte	0x3c
 2344 079b 04060000 		.4byte	0x604
 2345 079f 0440     		.2byte	0x4004
 2346 07a1 17       		.uleb128 0x17
 2347 07a2 09050000 		.4byte	.LASF212
 2348 07a6 09       		.byte	0x9
 2349 07a7 3D       		.byte	0x3d
 2350 07a8 04060000 		.4byte	0x604
 2351 07ac 0840     		.2byte	0x4008
 2352 07ae 17       		.uleb128 0x17
 2353 07af 15050000 		.4byte	.LASF213
 2354 07b3 09       		.byte	0x9
 2355 07b4 3E       		.byte	0x3e
 2356 07b5 04060000 		.4byte	0x604
 2357 07b9 0C40     		.2byte	0x400c
 2358 07bb 17       		.uleb128 0x17
 2359 07bc 48210000 		.4byte	.LASF214
 2360 07c0 09       		.byte	0x9
 2361 07c1 3F       		.byte	0x3f
 2362 07c2 04060000 		.4byte	0x604
 2363 07c6 1040     		.2byte	0x4010
 2364 07c8 17       		.uleb128 0x17
 2365 07c9 CD170000 		.4byte	.LASF215
 2366 07cd 09       		.byte	0x9
 2367 07ce 40       		.byte	0x40
 2368 07cf 8F050000 		.4byte	0x58f
 2369 07d3 1440     		.2byte	0x4014
 2370 07d5 17       		.uleb128 0x17
 2371 07d6 060C0000 		.4byte	.LASF216
 2372 07da 09       		.byte	0x9
 2373 07db 41       		.byte	0x41
 2374 07dc 8F050000 		.4byte	0x58f
 2375 07e0 1840     		.2byte	0x4018
 2376 07e2 17       		.uleb128 0x17
 2377 07e3 120E0000 		.4byte	.LASF217
 2378 07e7 09       		.byte	0x9
 2379 07e8 42       		.byte	0x42
 2380 07e9 04060000 		.4byte	0x604
ARM GAS  C:\Users\yomat\AppData\Local\Temp\cc0omv11.s 			page 123


 2381 07ed 1C40     		.2byte	0x401c
 2382 07ef 17       		.uleb128 0x17
 2383 07f0 8C1C0000 		.4byte	.LASF218
 2384 07f4 09       		.byte	0x9
 2385 07f5 43       		.byte	0x43
 2386 07f6 8F050000 		.4byte	0x58f
 2387 07fa 2040     		.2byte	0x4020
 2388 07fc 00       		.byte	0
 2389 07fd 0D       		.uleb128 0xd
 2390 07fe 67070000 		.4byte	0x767
 2391 0802 0D080000 		.4byte	0x80d
 2392 0806 0E       		.uleb128 0xe
 2393 0807 B2000000 		.4byte	0xb2
 2394 080b 7F       		.byte	0x7f
 2395 080c 00       		.byte	0
 2396 080d 03       		.uleb128 0x3
 2397 080e A90A0000 		.4byte	.LASF219
 2398 0812 09       		.byte	0x9
 2399 0813 44       		.byte	0x44
 2400 0814 72070000 		.4byte	0x772
 2401 0818 0D       		.uleb128 0xd
 2402 0819 04060000 		.4byte	0x604
 2403 081d 28080000 		.4byte	0x828
 2404 0821 0E       		.uleb128 0xe
 2405 0822 B2000000 		.4byte	0xb2
 2406 0826 0A       		.byte	0xa
 2407 0827 00       		.byte	0
 2408 0828 0D       		.uleb128 0xd
 2409 0829 04060000 		.4byte	0x604
 2410 082d 38080000 		.4byte	0x838
 2411 0831 0E       		.uleb128 0xe
 2412 0832 B2000000 		.4byte	0xb2
 2413 0836 2E       		.byte	0x2e
 2414 0837 00       		.byte	0
 2415 0838 0D       		.uleb128 0xd
 2416 0839 04060000 		.4byte	0x604
 2417 083d 48080000 		.4byte	0x848
 2418 0841 0E       		.uleb128 0xe
 2419 0842 B2000000 		.4byte	0xb2
 2420 0846 2D       		.byte	0x2d
 2421 0847 00       		.byte	0
 2422 0848 0D       		.uleb128 0xd
 2423 0849 8F050000 		.4byte	0x58f
 2424 084d 59080000 		.4byte	0x859
 2425 0851 10       		.uleb128 0x10
 2426 0852 B2000000 		.4byte	0xb2
 2427 0856 FF01     		.2byte	0x1ff
 2428 0858 00       		.byte	0
 2429 0859 0D       		.uleb128 0xd
 2430 085a 04060000 		.4byte	0x604
 2431 085e 69080000 		.4byte	0x869
 2432 0862 0E       		.uleb128 0xe
 2433 0863 B2000000 		.4byte	0xb2
 2434 0867 62       		.byte	0x62
 2435 0868 00       		.byte	0
 2436 0869 16       		.uleb128 0x16
 2437 086a D00F     		.2byte	0xfd0
ARM GAS  C:\Users\yomat\AppData\Local\Temp\cc0omv11.s 			page 124


 2438 086c 0A       		.byte	0xa
 2439 086d 21       		.byte	0x21
 2440 086e D30B0000 		.4byte	0xbd3
 2441 0872 15       		.uleb128 0x15
 2442 0873 80140000 		.4byte	.LASF220
 2443 0877 0A       		.byte	0xa
 2444 0878 22       		.byte	0x22
 2445 0879 8F050000 		.4byte	0x58f
 2446 087d 00       		.byte	0
 2447 087e 15       		.uleb128 0x15
 2448 087f 871D0000 		.4byte	.LASF221
 2449 0883 0A       		.byte	0xa
 2450 0884 23       		.byte	0x23
 2451 0885 04060000 		.4byte	0x604
 2452 0889 04       		.byte	0x4
 2453 088a 15       		.uleb128 0x15
 2454 088b 791D0000 		.4byte	.LASF222
 2455 088f 0A       		.byte	0xa
 2456 0890 24       		.byte	0x24
 2457 0891 8F050000 		.4byte	0x58f
 2458 0895 08       		.byte	0x8
 2459 0896 15       		.uleb128 0x15
 2460 0897 0A1C0000 		.4byte	.LASF223
 2461 089b 0A       		.byte	0xa
 2462 089c 25       		.byte	0x25
 2463 089d 04060000 		.4byte	0x604
 2464 08a1 0C       		.byte	0xc
 2465 08a2 15       		.uleb128 0x15
 2466 08a3 7C0D0000 		.4byte	.LASF206
 2467 08a7 0A       		.byte	0xa
 2468 08a8 26       		.byte	0x26
 2469 08a9 D80B0000 		.4byte	0xbd8
 2470 08ad 10       		.byte	0x10
 2471 08ae 15       		.uleb128 0x15
 2472 08af 8D050000 		.4byte	.LASF224
 2473 08b3 0A       		.byte	0xa
 2474 08b4 27       		.byte	0x27
 2475 08b5 8F050000 		.4byte	0x58f
 2476 08b9 20       		.byte	0x20
 2477 08ba 15       		.uleb128 0x15
 2478 08bb 20140000 		.4byte	.LASF225
 2479 08bf 0A       		.byte	0xa
 2480 08c0 28       		.byte	0x28
 2481 08c1 04060000 		.4byte	0x604
 2482 08c5 24       		.byte	0x24
 2483 08c6 15       		.uleb128 0x15
 2484 08c7 53080000 		.4byte	.LASF208
 2485 08cb 0A       		.byte	0xa
 2486 08cc 29       		.byte	0x29
 2487 08cd E20B0000 		.4byte	0xbe2
 2488 08d1 28       		.byte	0x28
 2489 08d2 15       		.uleb128 0x15
 2490 08d3 B3000000 		.4byte	.LASF226
 2491 08d7 0A       		.byte	0xa
 2492 08d8 2A       		.byte	0x2a
 2493 08d9 8F050000 		.4byte	0x58f
 2494 08dd 40       		.byte	0x40
ARM GAS  C:\Users\yomat\AppData\Local\Temp\cc0omv11.s 			page 125


 2495 08de 15       		.uleb128 0x15
 2496 08df DC0A0000 		.4byte	.LASF227
 2497 08e3 0A       		.byte	0xa
 2498 08e4 2B       		.byte	0x2b
 2499 08e5 8F050000 		.4byte	0x58f
 2500 08e9 44       		.byte	0x44
 2501 08ea 15       		.uleb128 0x15
 2502 08eb 96060000 		.4byte	.LASF228
 2503 08ef 0A       		.byte	0xa
 2504 08f0 2C       		.byte	0x2c
 2505 08f1 8F050000 		.4byte	0x58f
 2506 08f5 48       		.byte	0x48
 2507 08f6 15       		.uleb128 0x15
 2508 08f7 9A0D0000 		.4byte	.LASF229
 2509 08fb 0A       		.byte	0xa
 2510 08fc 2D       		.byte	0x2d
 2511 08fd 04060000 		.4byte	0x604
 2512 0901 4C       		.byte	0x4c
 2513 0902 15       		.uleb128 0x15
 2514 0903 E9160000 		.4byte	.LASF230
 2515 0907 0A       		.byte	0xa
 2516 0908 2E       		.byte	0x2e
 2517 0909 8F050000 		.4byte	0x58f
 2518 090d 50       		.byte	0x50
 2519 090e 15       		.uleb128 0x15
 2520 090f 1F0B0000 		.4byte	.LASF187
 2521 0913 0A       		.byte	0xa
 2522 0914 2F       		.byte	0x2f
 2523 0915 EC0B0000 		.4byte	0xbec
 2524 0919 54       		.byte	0x54
 2525 091a 15       		.uleb128 0x15
 2526 091b 1A260000 		.4byte	.LASF231
 2527 091f 0A       		.byte	0xa
 2528 0920 30       		.byte	0x30
 2529 0921 8F050000 		.4byte	0x58f
 2530 0925 60       		.byte	0x60
 2531 0926 15       		.uleb128 0x15
 2532 0927 DF220000 		.4byte	.LASF232
 2533 092b 0A       		.byte	0xa
 2534 092c 31       		.byte	0x31
 2535 092d 04060000 		.4byte	0x604
 2536 0931 64       		.byte	0x64
 2537 0932 15       		.uleb128 0x15
 2538 0933 2C070000 		.4byte	.LASF233
 2539 0937 0A       		.byte	0xa
 2540 0938 32       		.byte	0x32
 2541 0939 8F050000 		.4byte	0x58f
 2542 093d 68       		.byte	0x68
 2543 093e 15       		.uleb128 0x15
 2544 093f 060A0000 		.4byte	.LASF234
 2545 0943 0A       		.byte	0xa
 2546 0944 33       		.byte	0x33
 2547 0945 8F050000 		.4byte	0x58f
 2548 0949 6C       		.byte	0x6c
 2549 094a 15       		.uleb128 0x15
 2550 094b 77030000 		.4byte	.LASF235
 2551 094f 0A       		.byte	0xa
ARM GAS  C:\Users\yomat\AppData\Local\Temp\cc0omv11.s 			page 126


 2552 0950 34       		.byte	0x34
 2553 0951 8F050000 		.4byte	0x58f
 2554 0955 70       		.byte	0x70
 2555 0956 15       		.uleb128 0x15
 2556 0957 CC090000 		.4byte	.LASF189
 2557 095b 0A       		.byte	0xa
 2558 095c 35       		.byte	0x35
 2559 095d F60B0000 		.4byte	0xbf6
 2560 0961 74       		.byte	0x74
 2561 0962 17       		.uleb128 0x17
 2562 0963 60160000 		.4byte	.LASF236
 2563 0967 0A       		.byte	0xa
 2564 0968 36       		.byte	0x36
 2565 0969 8F050000 		.4byte	0x58f
 2566 096d 0002     		.2byte	0x200
 2567 096f 17       		.uleb128 0x17
 2568 0970 341B0000 		.4byte	.LASF237
 2569 0974 0A       		.byte	0xa
 2570 0975 37       		.byte	0x37
 2571 0976 8F050000 		.4byte	0x58f
 2572 097a 0402     		.2byte	0x204
 2573 097c 17       		.uleb128 0x17
 2574 097d 00190000 		.4byte	.LASF238
 2575 0981 0A       		.byte	0xa
 2576 0982 38       		.byte	0x38
 2577 0983 04060000 		.4byte	0x604
 2578 0987 0802     		.2byte	0x208
 2579 0989 17       		.uleb128 0x17
 2580 098a 78080000 		.4byte	.LASF191
 2581 098e 0A       		.byte	0xa
 2582 098f 39       		.byte	0x39
 2583 0990 000C0000 		.4byte	0xc00
 2584 0994 0C02     		.2byte	0x20c
 2585 0996 17       		.uleb128 0x17
 2586 0997 050B0000 		.4byte	.LASF239
 2587 099b 0A       		.byte	0xa
 2588 099c 3A       		.byte	0x3a
 2589 099d 8F050000 		.4byte	0x58f
 2590 09a1 4002     		.2byte	0x240
 2591 09a3 17       		.uleb128 0x17
 2592 09a4 82080000 		.4byte	.LASF192
 2593 09a8 0A       		.byte	0xa
 2594 09a9 3B       		.byte	0x3b
 2595 09aa 0A0C0000 		.4byte	0xc0a
 2596 09ae 4402     		.2byte	0x244
 2597 09b0 17       		.uleb128 0x17
 2598 09b1 D9040000 		.4byte	.LASF240
 2599 09b5 0A       		.byte	0xa
 2600 09b6 3C       		.byte	0x3c
 2601 09b7 8F050000 		.4byte	0x58f
 2602 09bb 0003     		.2byte	0x300
 2603 09bd 17       		.uleb128 0x17
 2604 09be A4200000 		.4byte	.LASF241
 2605 09c2 0A       		.byte	0xa
 2606 09c3 3D       		.byte	0x3d
 2607 09c4 8F050000 		.4byte	0x58f
 2608 09c8 0403     		.2byte	0x304
ARM GAS  C:\Users\yomat\AppData\Local\Temp\cc0omv11.s 			page 127


 2609 09ca 17       		.uleb128 0x17
 2610 09cb 30040000 		.4byte	.LASF242
 2611 09cf 0A       		.byte	0xa
 2612 09d0 3E       		.byte	0x3e
 2613 09d1 04060000 		.4byte	0x604
 2614 09d5 0803     		.2byte	0x308
 2615 09d7 17       		.uleb128 0x17
 2616 09d8 8C080000 		.4byte	.LASF243
 2617 09dc 0A       		.byte	0xa
 2618 09dd 3F       		.byte	0x3f
 2619 09de 04060000 		.4byte	0x604
 2620 09e2 0C03     		.2byte	0x30c
 2621 09e4 17       		.uleb128 0x17
 2622 09e5 61000000 		.4byte	.LASF244
 2623 09e9 0A       		.byte	0xa
 2624 09ea 40       		.byte	0x40
 2625 09eb 8F050000 		.4byte	0x58f
 2626 09ef 1003     		.2byte	0x310
 2627 09f1 17       		.uleb128 0x17
 2628 09f2 96080000 		.4byte	.LASF245
 2629 09f6 0A       		.byte	0xa
 2630 09f7 41       		.byte	0x41
 2631 09f8 140C0000 		.4byte	0xc14
 2632 09fc 1403     		.2byte	0x314
 2633 09fe 17       		.uleb128 0x17
 2634 09ff 4F1F0000 		.4byte	.LASF246
 2635 0a03 0A       		.byte	0xa
 2636 0a04 42       		.byte	0x42
 2637 0a05 04060000 		.4byte	0x604
 2638 0a09 4003     		.2byte	0x340
 2639 0a0b 17       		.uleb128 0x17
 2640 0a0c 83230000 		.4byte	.LASF247
 2641 0a10 0A       		.byte	0xa
 2642 0a11 43       		.byte	0x43
 2643 0a12 04060000 		.4byte	0x604
 2644 0a16 4403     		.2byte	0x344
 2645 0a18 17       		.uleb128 0x17
 2646 0a19 A0080000 		.4byte	.LASF248
 2647 0a1d 0A       		.byte	0xa
 2648 0a1e 44       		.byte	0x44
 2649 0a1f 1E0C0000 		.4byte	0xc1e
 2650 0a23 4803     		.2byte	0x348
 2651 0a25 17       		.uleb128 0x17
 2652 0a26 E4110000 		.4byte	.LASF249
 2653 0a2a 0A       		.byte	0xa
 2654 0a2b 45       		.byte	0x45
 2655 0a2c 230C0000 		.4byte	0xc23
 2656 0a30 0004     		.2byte	0x400
 2657 0a32 17       		.uleb128 0x17
 2658 0a33 AA080000 		.4byte	.LASF250
 2659 0a37 0A       		.byte	0xa
 2660 0a38 46       		.byte	0x46
 2661 0a39 2D0C0000 		.4byte	0xc2d
 2662 0a3d 000C     		.2byte	0xc00
 2663 0a3f 17       		.uleb128 0x17
 2664 0a40 9F000000 		.4byte	.LASF251
 2665 0a44 0A       		.byte	0xa
ARM GAS  C:\Users\yomat\AppData\Local\Temp\cc0omv11.s 			page 128


 2666 0a45 47       		.byte	0x47
 2667 0a46 04060000 		.4byte	0x604
 2668 0a4a 000E     		.2byte	0xe00
 2669 0a4c 17       		.uleb128 0x17
 2670 0a4d 4A1B0000 		.4byte	.LASF252
 2671 0a51 0A       		.byte	0xa
 2672 0a52 48       		.byte	0x48
 2673 0a53 370C0000 		.4byte	0xc37
 2674 0a57 040E     		.2byte	0xe04
 2675 0a59 17       		.uleb128 0x17
 2676 0a5a 19200000 		.4byte	.LASF253
 2677 0a5e 0A       		.byte	0xa
 2678 0a5f 49       		.byte	0x49
 2679 0a60 8F050000 		.4byte	0x58f
 2680 0a64 800E     		.2byte	0xe80
 2681 0a66 17       		.uleb128 0x17
 2682 0a67 1F060000 		.4byte	.LASF254
 2683 0a6b 0A       		.byte	0xa
 2684 0a6c 4A       		.byte	0x4a
 2685 0a6d 04060000 		.4byte	0x604
 2686 0a71 840E     		.2byte	0xe84
 2687 0a73 17       		.uleb128 0x17
 2688 0a74 68160000 		.4byte	.LASF255
 2689 0a78 0A       		.byte	0xa
 2690 0a79 4B       		.byte	0x4b
 2691 0a7a 8F050000 		.4byte	0x58f
 2692 0a7e 880E     		.2byte	0xe88
 2693 0a80 17       		.uleb128 0x17
 2694 0a81 67180000 		.4byte	.LASF256
 2695 0a85 0A       		.byte	0xa
 2696 0a86 4C       		.byte	0x4c
 2697 0a87 04060000 		.4byte	0x604
 2698 0a8b 8C0E     		.2byte	0xe8c
 2699 0a8d 17       		.uleb128 0x17
 2700 0a8e 601B0000 		.4byte	.LASF257
 2701 0a92 0A       		.byte	0xa
 2702 0a93 4D       		.byte	0x4d
 2703 0a94 410C0000 		.4byte	0xc41
 2704 0a98 900E     		.2byte	0xe90
 2705 0a9a 17       		.uleb128 0x17
 2706 0a9b 0F190000 		.4byte	.LASF258
 2707 0a9f 0A       		.byte	0xa
 2708 0aa0 4E       		.byte	0x4e
 2709 0aa1 8F050000 		.4byte	0x58f
 2710 0aa5 C00E     		.2byte	0xec0
 2711 0aa7 17       		.uleb128 0x17
 2712 0aa8 6B1B0000 		.4byte	.LASF259
 2713 0aac 0A       		.byte	0xa
 2714 0aad 4F       		.byte	0x4f
 2715 0aae 04060000 		.4byte	0x604
 2716 0ab2 C40E     		.2byte	0xec4
 2717 0ab4 17       		.uleb128 0x17
 2718 0ab5 D6170000 		.4byte	.LASF260
 2719 0ab9 0A       		.byte	0xa
 2720 0aba 50       		.byte	0x50
 2721 0abb 8F050000 		.4byte	0x58f
 2722 0abf C80E     		.2byte	0xec8
ARM GAS  C:\Users\yomat\AppData\Local\Temp\cc0omv11.s 			page 129


 2723 0ac1 17       		.uleb128 0x17
 2724 0ac2 551E0000 		.4byte	.LASF261
 2725 0ac6 0A       		.byte	0xa
 2726 0ac7 51       		.byte	0x51
 2727 0ac8 04060000 		.4byte	0x604
 2728 0acc CC0E     		.2byte	0xecc
 2729 0ace 17       		.uleb128 0x17
 2730 0acf 761B0000 		.4byte	.LASF262
 2731 0ad3 0A       		.byte	0xa
 2732 0ad4 52       		.byte	0x52
 2733 0ad5 4B0C0000 		.4byte	0xc4b
 2734 0ad9 D00E     		.2byte	0xed0
 2735 0adb 17       		.uleb128 0x17
 2736 0adc 5A020000 		.4byte	.LASF263
 2737 0ae0 0A       		.byte	0xa
 2738 0ae1 53       		.byte	0x53
 2739 0ae2 8F050000 		.4byte	0x58f
 2740 0ae6 000F     		.2byte	0xf00
 2741 0ae8 17       		.uleb128 0x17
 2742 0ae9 4A1E0000 		.4byte	.LASF264
 2743 0aed 0A       		.byte	0xa
 2744 0aee 54       		.byte	0x54
 2745 0aef 8F050000 		.4byte	0x58f
 2746 0af3 040F     		.2byte	0xf04
 2747 0af5 17       		.uleb128 0x17
 2748 0af6 2F0F0000 		.4byte	.LASF265
 2749 0afa 0A       		.byte	0xa
 2750 0afb 55       		.byte	0x55
 2751 0afc 8F050000 		.4byte	0x58f
 2752 0b00 080F     		.2byte	0xf08
 2753 0b02 17       		.uleb128 0x17
 2754 0b03 F0120000 		.4byte	.LASF266
 2755 0b07 0A       		.byte	0xa
 2756 0b08 56       		.byte	0x56
 2757 0b09 04060000 		.4byte	0x604
 2758 0b0d 0C0F     		.2byte	0xf0c
 2759 0b0f 17       		.uleb128 0x17
 2760 0b10 811B0000 		.4byte	.LASF267
 2761 0b14 0A       		.byte	0xa
 2762 0b15 57       		.byte	0x57
 2763 0b16 550C0000 		.4byte	0xc55
 2764 0b1a 100F     		.2byte	0xf10
 2765 0b1c 17       		.uleb128 0x17
 2766 0b1d 5F0A0000 		.4byte	.LASF268
 2767 0b21 0A       		.byte	0xa
 2768 0b22 58       		.byte	0x58
 2769 0b23 8F050000 		.4byte	0x58f
 2770 0b27 400F     		.2byte	0xf40
 2771 0b29 17       		.uleb128 0x17
 2772 0b2a D1200000 		.4byte	.LASF269
 2773 0b2e 0A       		.byte	0xa
 2774 0b2f 59       		.byte	0x59
 2775 0b30 8F050000 		.4byte	0x58f
 2776 0b34 440F     		.2byte	0xf44
 2777 0b36 17       		.uleb128 0x17
 2778 0b37 181E0000 		.4byte	.LASF270
 2779 0b3b 0A       		.byte	0xa
ARM GAS  C:\Users\yomat\AppData\Local\Temp\cc0omv11.s 			page 130


 2780 0b3c 5A       		.byte	0x5a
 2781 0b3d 8F050000 		.4byte	0x58f
 2782 0b41 480F     		.2byte	0xf48
 2783 0b43 17       		.uleb128 0x17
 2784 0b44 CD180000 		.4byte	.LASF271
 2785 0b48 0A       		.byte	0xa
 2786 0b49 5B       		.byte	0x5b
 2787 0b4a 04060000 		.4byte	0x604
 2788 0b4e 4C0F     		.2byte	0xf4c
 2789 0b50 17       		.uleb128 0x17
 2790 0b51 8C1B0000 		.4byte	.LASF272
 2791 0b55 0A       		.byte	0xa
 2792 0b56 5C       		.byte	0x5c
 2793 0b57 5F0C0000 		.4byte	0xc5f
 2794 0b5b 500F     		.2byte	0xf50
 2795 0b5d 17       		.uleb128 0x17
 2796 0b5e DE050000 		.4byte	.LASF273
 2797 0b62 0A       		.byte	0xa
 2798 0b63 5D       		.byte	0x5d
 2799 0b64 8F050000 		.4byte	0x58f
 2800 0b68 800F     		.2byte	0xf80
 2801 0b6a 17       		.uleb128 0x17
 2802 0b6b B01B0000 		.4byte	.LASF274
 2803 0b6f 0A       		.byte	0xa
 2804 0b70 5E       		.byte	0x5e
 2805 0b71 8F050000 		.4byte	0x58f
 2806 0b75 840F     		.2byte	0xf84
 2807 0b77 17       		.uleb128 0x17
 2808 0b78 6B080000 		.4byte	.LASF275
 2809 0b7c 0A       		.byte	0xa
 2810 0b7d 5F       		.byte	0x5f
 2811 0b7e 8F050000 		.4byte	0x58f
 2812 0b82 880F     		.2byte	0xf88
 2813 0b84 17       		.uleb128 0x17
 2814 0b85 10060000 		.4byte	.LASF276
 2815 0b89 0A       		.byte	0xa
 2816 0b8a 60       		.byte	0x60
 2817 0b8b 04060000 		.4byte	0x604
 2818 0b8f 8C0F     		.2byte	0xf8c
 2819 0b91 17       		.uleb128 0x17
 2820 0b92 971B0000 		.4byte	.LASF277
 2821 0b96 0A       		.byte	0xa
 2822 0b97 61       		.byte	0x61
 2823 0b98 690C0000 		.4byte	0xc69
 2824 0b9c 900F     		.2byte	0xf90
 2825 0b9e 17       		.uleb128 0x17
 2826 0b9f 59030000 		.4byte	.LASF278
 2827 0ba3 0A       		.byte	0xa
 2828 0ba4 62       		.byte	0x62
 2829 0ba5 8F050000 		.4byte	0x58f
 2830 0ba9 C00F     		.2byte	0xfc0
 2831 0bab 17       		.uleb128 0x17
 2832 0bac BC060000 		.4byte	.LASF279
 2833 0bb0 0A       		.byte	0xa
 2834 0bb1 63       		.byte	0x63
 2835 0bb2 8F050000 		.4byte	0x58f
 2836 0bb6 C40F     		.2byte	0xfc4
ARM GAS  C:\Users\yomat\AppData\Local\Temp\cc0omv11.s 			page 131


 2837 0bb8 17       		.uleb128 0x17
 2838 0bb9 AE040000 		.4byte	.LASF280
 2839 0bbd 0A       		.byte	0xa
 2840 0bbe 64       		.byte	0x64
 2841 0bbf 8F050000 		.4byte	0x58f
 2842 0bc3 C80F     		.2byte	0xfc8
 2843 0bc5 17       		.uleb128 0x17
 2844 0bc6 761E0000 		.4byte	.LASF281
 2845 0bca 0A       		.byte	0xa
 2846 0bcb 65       		.byte	0x65
 2847 0bcc 04060000 		.4byte	0x604
 2848 0bd0 CC0F     		.2byte	0xfcc
 2849 0bd2 00       		.byte	0
 2850 0bd3 0F       		.uleb128 0xf
 2851 0bd4 09060000 		.4byte	0x609
 2852 0bd8 12       		.uleb128 0x12
 2853 0bd9 D30B0000 		.4byte	0xbd3
 2854 0bdd 0F       		.uleb128 0xf
 2855 0bde 19060000 		.4byte	0x619
 2856 0be2 12       		.uleb128 0x12
 2857 0be3 DD0B0000 		.4byte	0xbdd
 2858 0be7 0F       		.uleb128 0xf
 2859 0be8 69060000 		.4byte	0x669
 2860 0bec 12       		.uleb128 0x12
 2861 0bed E70B0000 		.4byte	0xbe7
 2862 0bf1 0F       		.uleb128 0xf
 2863 0bf2 59080000 		.4byte	0x859
 2864 0bf6 12       		.uleb128 0x12
 2865 0bf7 F10B0000 		.4byte	0xbf1
 2866 0bfb 0F       		.uleb128 0xf
 2867 0bfc 39060000 		.4byte	0x639
 2868 0c00 12       		.uleb128 0x12
 2869 0c01 FB0B0000 		.4byte	0xbfb
 2870 0c05 0F       		.uleb128 0xf
 2871 0c06 28080000 		.4byte	0x828
 2872 0c0a 12       		.uleb128 0x12
 2873 0c0b 050C0000 		.4byte	0xc05
 2874 0c0f 0F       		.uleb128 0xf
 2875 0c10 18080000 		.4byte	0x818
 2876 0c14 12       		.uleb128 0x12
 2877 0c15 0F0C0000 		.4byte	0xc0f
 2878 0c19 0F       		.uleb128 0xf
 2879 0c1a 38080000 		.4byte	0x838
 2880 0c1e 12       		.uleb128 0x12
 2881 0c1f 190C0000 		.4byte	0xc19
 2882 0c23 0F       		.uleb128 0xf
 2883 0c24 48080000 		.4byte	0x848
 2884 0c28 0F       		.uleb128 0xf
 2885 0c29 29060000 		.4byte	0x629
 2886 0c2d 12       		.uleb128 0x12
 2887 0c2e 280C0000 		.4byte	0xc28
 2888 0c32 0F       		.uleb128 0xf
 2889 0c33 59060000 		.4byte	0x659
 2890 0c37 12       		.uleb128 0x12
 2891 0c38 320C0000 		.4byte	0xc32
 2892 0c3c 0F       		.uleb128 0xf
 2893 0c3d 79060000 		.4byte	0x679
ARM GAS  C:\Users\yomat\AppData\Local\Temp\cc0omv11.s 			page 132


 2894 0c41 12       		.uleb128 0x12
 2895 0c42 3C0C0000 		.4byte	0xc3c
 2896 0c46 0F       		.uleb128 0xf
 2897 0c47 79060000 		.4byte	0x679
 2898 0c4b 12       		.uleb128 0x12
 2899 0c4c 460C0000 		.4byte	0xc46
 2900 0c50 0F       		.uleb128 0xf
 2901 0c51 79060000 		.4byte	0x679
 2902 0c55 12       		.uleb128 0x12
 2903 0c56 500C0000 		.4byte	0xc50
 2904 0c5a 0F       		.uleb128 0xf
 2905 0c5b 79060000 		.4byte	0x679
 2906 0c5f 12       		.uleb128 0x12
 2907 0c60 5A0C0000 		.4byte	0xc5a
 2908 0c64 0F       		.uleb128 0xf
 2909 0c65 79060000 		.4byte	0x679
 2910 0c69 12       		.uleb128 0x12
 2911 0c6a 640C0000 		.4byte	0xc64
 2912 0c6e 03       		.uleb128 0x3
 2913 0c6f A21B0000 		.4byte	.LASF282
 2914 0c73 0A       		.byte	0xa
 2915 0c74 66       		.byte	0x66
 2916 0c75 69080000 		.4byte	0x869
 2917 0c79 11       		.uleb128 0x11
 2918 0c7a 8F1E0000 		.4byte	.LASF283
 2919 0c7e 0B       		.byte	0xb
 2920 0c7f 3106     		.2byte	0x631
 2921 0c81 67070000 		.4byte	0x767
 2922 0c85 11       		.uleb128 0x11
 2923 0c86 F2190000 		.4byte	.LASF284
 2924 0c8a 0B       		.byte	0xb
 2925 0c8b 3206     		.2byte	0x632
 2926 0c8d 0D080000 		.4byte	0x80d
 2927 0c91 11       		.uleb128 0x11
 2928 0c92 94170000 		.4byte	.LASF285
 2929 0c96 0B       		.byte	0xb
 2930 0c97 4F06     		.2byte	0x64f
 2931 0c99 6E0C0000 		.4byte	0xc6e
 2932 0c9d 13       		.uleb128 0x13
 2933 0c9e B8       		.byte	0xb8
 2934 0c9f 0C       		.byte	0xc
 2935 0ca0 34       		.byte	0x34
 2936 0ca1 AE100000 		.4byte	0x10ae
 2937 0ca5 15       		.uleb128 0x15
 2938 0ca6 91110000 		.4byte	.LASF286
 2939 0caa 0C       		.byte	0xc
 2940 0cab 37       		.byte	0x37
 2941 0cac EC000000 		.4byte	0xec
 2942 0cb0 00       		.byte	0
 2943 0cb1 15       		.uleb128 0x15
 2944 0cb2 61020000 		.4byte	.LASF287
 2945 0cb6 0C       		.byte	0xc
 2946 0cb7 38       		.byte	0x38
 2947 0cb8 EC000000 		.4byte	0xec
 2948 0cbc 04       		.byte	0x4
 2949 0cbd 15       		.uleb128 0x15
 2950 0cbe 650E0000 		.4byte	.LASF288
ARM GAS  C:\Users\yomat\AppData\Local\Temp\cc0omv11.s 			page 133


 2951 0cc2 0C       		.byte	0xc
 2952 0cc3 39       		.byte	0x39
 2953 0cc4 EC000000 		.4byte	0xec
 2954 0cc8 08       		.byte	0x8
 2955 0cc9 15       		.uleb128 0x15
 2956 0cca E20B0000 		.4byte	.LASF289
 2957 0cce 0C       		.byte	0xc
 2958 0ccf 3A       		.byte	0x3a
 2959 0cd0 EC000000 		.4byte	0xec
 2960 0cd4 0C       		.byte	0xc
 2961 0cd5 15       		.uleb128 0x15
 2962 0cd6 9B110000 		.4byte	.LASF290
 2963 0cda 0C       		.byte	0xc
 2964 0cdb 3B       		.byte	0x3b
 2965 0cdc EC000000 		.4byte	0xec
 2966 0ce0 10       		.byte	0x10
 2967 0ce1 15       		.uleb128 0x15
 2968 0ce2 D1000000 		.4byte	.LASF291
 2969 0ce6 0C       		.byte	0xc
 2970 0ce7 3C       		.byte	0x3c
 2971 0ce8 EC000000 		.4byte	0xec
 2972 0cec 14       		.byte	0x14
 2973 0ced 15       		.uleb128 0x15
 2974 0cee D61D0000 		.4byte	.LASF292
 2975 0cf2 0C       		.byte	0xc
 2976 0cf3 3D       		.byte	0x3d
 2977 0cf4 EC000000 		.4byte	0xec
 2978 0cf8 18       		.byte	0x18
 2979 0cf9 15       		.uleb128 0x15
 2980 0cfa 7C090000 		.4byte	.LASF293
 2981 0cfe 0C       		.byte	0xc
 2982 0cff 3E       		.byte	0x3e
 2983 0d00 EC000000 		.4byte	0xec
 2984 0d04 1C       		.byte	0x1c
 2985 0d05 15       		.uleb128 0x15
 2986 0d06 7B230000 		.4byte	.LASF294
 2987 0d0a 0C       		.byte	0xc
 2988 0d0b 3F       		.byte	0x3f
 2989 0d0c EC000000 		.4byte	0xec
 2990 0d10 20       		.byte	0x20
 2991 0d11 15       		.uleb128 0x15
 2992 0d12 38000000 		.4byte	.LASF295
 2993 0d16 0C       		.byte	0xc
 2994 0d17 40       		.byte	0x40
 2995 0d18 EC000000 		.4byte	0xec
 2996 0d1c 24       		.byte	0x24
 2997 0d1d 15       		.uleb128 0x15
 2998 0d1e 650F0000 		.4byte	.LASF296
 2999 0d22 0C       		.byte	0xc
 3000 0d23 43       		.byte	0x43
 3001 0d24 C0000000 		.4byte	0xc0
 3002 0d28 28       		.byte	0x28
 3003 0d29 15       		.uleb128 0x15
 3004 0d2a 42130000 		.4byte	.LASF297
 3005 0d2e 0C       		.byte	0xc
 3006 0d2f 44       		.byte	0x44
 3007 0d30 C0000000 		.4byte	0xc0
ARM GAS  C:\Users\yomat\AppData\Local\Temp\cc0omv11.s 			page 134


 3008 0d34 29       		.byte	0x29
 3009 0d35 15       		.uleb128 0x15
 3010 0d36 A91D0000 		.4byte	.LASF298
 3011 0d3a 0C       		.byte	0xc
 3012 0d3b 45       		.byte	0x45
 3013 0d3c C0000000 		.4byte	0xc0
 3014 0d40 2A       		.byte	0x2a
 3015 0d41 15       		.uleb128 0x15
 3016 0d42 50040000 		.4byte	.LASF299
 3017 0d46 0C       		.byte	0xc
 3018 0d47 46       		.byte	0x46
 3019 0d48 C0000000 		.4byte	0xc0
 3020 0d4c 2B       		.byte	0x2b
 3021 0d4d 15       		.uleb128 0x15
 3022 0d4e 53210000 		.4byte	.LASF300
 3023 0d52 0C       		.byte	0xc
 3024 0d53 47       		.byte	0x47
 3025 0d54 C0000000 		.4byte	0xc0
 3026 0d58 2C       		.byte	0x2c
 3027 0d59 15       		.uleb128 0x15
 3028 0d5a 42260000 		.4byte	.LASF301
 3029 0d5e 0C       		.byte	0xc
 3030 0d5f 48       		.byte	0x48
 3031 0d60 C0000000 		.4byte	0xc0
 3032 0d64 2D       		.byte	0x2d
 3033 0d65 15       		.uleb128 0x15
 3034 0d66 B2110000 		.4byte	.LASF302
 3035 0d6a 0C       		.byte	0xc
 3036 0d6b 49       		.byte	0x49
 3037 0d6c C0000000 		.4byte	0xc0
 3038 0d70 2E       		.byte	0x2e
 3039 0d71 15       		.uleb128 0x15
 3040 0d72 901F0000 		.4byte	.LASF303
 3041 0d76 0C       		.byte	0xc
 3042 0d77 4A       		.byte	0x4a
 3043 0d78 C0000000 		.4byte	0xc0
 3044 0d7c 2F       		.byte	0x2f
 3045 0d7d 15       		.uleb128 0x15
 3046 0d7e 751F0000 		.4byte	.LASF304
 3047 0d82 0C       		.byte	0xc
 3048 0d83 4B       		.byte	0x4b
 3049 0d84 C0000000 		.4byte	0xc0
 3050 0d88 30       		.byte	0x30
 3051 0d89 15       		.uleb128 0x15
 3052 0d8a 2B140000 		.4byte	.LASF305
 3053 0d8e 0C       		.byte	0xc
 3054 0d8f 4E       		.byte	0x4e
 3055 0d90 C0000000 		.4byte	0xc0
 3056 0d94 31       		.byte	0x31
 3057 0d95 15       		.uleb128 0x15
 3058 0d96 681E0000 		.4byte	.LASF306
 3059 0d9a 0C       		.byte	0xc
 3060 0d9b 4F       		.byte	0x4f
 3061 0d9c C0000000 		.4byte	0xc0
 3062 0da0 32       		.byte	0x32
 3063 0da1 15       		.uleb128 0x15
 3064 0da2 991C0000 		.4byte	.LASF307
ARM GAS  C:\Users\yomat\AppData\Local\Temp\cc0omv11.s 			page 135


 3065 0da6 0C       		.byte	0xc
 3066 0da7 50       		.byte	0x50
 3067 0da8 C0000000 		.4byte	0xc0
 3068 0dac 33       		.byte	0x33
 3069 0dad 15       		.uleb128 0x15
 3070 0dae BB0E0000 		.4byte	.LASF308
 3071 0db2 0C       		.byte	0xc
 3072 0db3 51       		.byte	0x51
 3073 0db4 C0000000 		.4byte	0xc0
 3074 0db8 34       		.byte	0x34
 3075 0db9 15       		.uleb128 0x15
 3076 0dba 660B0000 		.4byte	.LASF309
 3077 0dbe 0C       		.byte	0xc
 3078 0dbf 52       		.byte	0x52
 3079 0dc0 CB000000 		.4byte	0xcb
 3080 0dc4 36       		.byte	0x36
 3081 0dc5 15       		.uleb128 0x15
 3082 0dc6 AC0F0000 		.4byte	.LASF310
 3083 0dca 0C       		.byte	0xc
 3084 0dcb 53       		.byte	0x53
 3085 0dcc CB000000 		.4byte	0xcb
 3086 0dd0 38       		.byte	0x38
 3087 0dd1 15       		.uleb128 0x15
 3088 0dd2 220E0000 		.4byte	.LASF311
 3089 0dd6 0C       		.byte	0xc
 3090 0dd7 54       		.byte	0x54
 3091 0dd8 CB000000 		.4byte	0xcb
 3092 0ddc 3A       		.byte	0x3a
 3093 0ddd 15       		.uleb128 0x15
 3094 0dde 030E0000 		.4byte	.LASF312
 3095 0de2 0C       		.byte	0xc
 3096 0de3 55       		.byte	0x55
 3097 0de4 C0000000 		.4byte	0xc0
 3098 0de8 3C       		.byte	0x3c
 3099 0de9 15       		.uleb128 0x15
 3100 0dea 5A0F0000 		.4byte	.LASF313
 3101 0dee 0C       		.byte	0xc
 3102 0def 56       		.byte	0x56
 3103 0df0 C0000000 		.4byte	0xc0
 3104 0df4 3D       		.byte	0x3d
 3105 0df5 15       		.uleb128 0x15
 3106 0df6 7E020000 		.4byte	.LASF314
 3107 0dfa 0C       		.byte	0xc
 3108 0dfb 57       		.byte	0x57
 3109 0dfc C0000000 		.4byte	0xc0
 3110 0e00 3E       		.byte	0x3e
 3111 0e01 15       		.uleb128 0x15
 3112 0e02 63070000 		.4byte	.LASF315
 3113 0e06 0C       		.byte	0xc
 3114 0e07 58       		.byte	0x58
 3115 0e08 C0000000 		.4byte	0xc0
 3116 0e0c 3F       		.byte	0x3f
 3117 0e0d 15       		.uleb128 0x15
 3118 0e0e 4F100000 		.4byte	.LASF316
 3119 0e12 0C       		.byte	0xc
 3120 0e13 59       		.byte	0x59
 3121 0e14 C0000000 		.4byte	0xc0
ARM GAS  C:\Users\yomat\AppData\Local\Temp\cc0omv11.s 			page 136


 3122 0e18 40       		.byte	0x40
 3123 0e19 15       		.uleb128 0x15
 3124 0e1a 08120000 		.4byte	.LASF317
 3125 0e1e 0C       		.byte	0xc
 3126 0e1f 5A       		.byte	0x5a
 3127 0e20 C0000000 		.4byte	0xc0
 3128 0e24 41       		.byte	0x41
 3129 0e25 15       		.uleb128 0x15
 3130 0e26 FD0E0000 		.4byte	.LASF318
 3131 0e2a 0C       		.byte	0xc
 3132 0e2b 5B       		.byte	0x5b
 3133 0e2c C0000000 		.4byte	0xc0
 3134 0e30 42       		.byte	0x42
 3135 0e31 15       		.uleb128 0x15
 3136 0e32 96050000 		.4byte	.LASF319
 3137 0e36 0C       		.byte	0xc
 3138 0e37 5C       		.byte	0x5c
 3139 0e38 C0000000 		.4byte	0xc0
 3140 0e3c 43       		.byte	0x43
 3141 0e3d 15       		.uleb128 0x15
 3142 0e3e 311E0000 		.4byte	.LASF320
 3143 0e42 0C       		.byte	0xc
 3144 0e43 5D       		.byte	0x5d
 3145 0e44 C0000000 		.4byte	0xc0
 3146 0e48 44       		.byte	0x44
 3147 0e49 15       		.uleb128 0x15
 3148 0e4a C30F0000 		.4byte	.LASF321
 3149 0e4e 0C       		.byte	0xc
 3150 0e4f 5E       		.byte	0x5e
 3151 0e50 EC000000 		.4byte	0xec
 3152 0e54 48       		.byte	0x48
 3153 0e55 15       		.uleb128 0x15
 3154 0e56 C3000000 		.4byte	.LASF322
 3155 0e5a 0C       		.byte	0xc
 3156 0e5b 5F       		.byte	0x5f
 3157 0e5c EC000000 		.4byte	0xec
 3158 0e60 4C       		.byte	0x4c
 3159 0e61 15       		.uleb128 0x15
 3160 0e62 69130000 		.4byte	.LASF323
 3161 0e66 0C       		.byte	0xc
 3162 0e67 60       		.byte	0x60
 3163 0e68 C0000000 		.4byte	0xc0
 3164 0e6c 50       		.byte	0x50
 3165 0e6d 15       		.uleb128 0x15
 3166 0e6e C5020000 		.4byte	.LASF324
 3167 0e72 0C       		.byte	0xc
 3168 0e73 61       		.byte	0x61
 3169 0e74 C0000000 		.4byte	0xc0
 3170 0e78 51       		.byte	0x51
 3171 0e79 15       		.uleb128 0x15
 3172 0e7a 59130000 		.4byte	.LASF325
 3173 0e7e 0C       		.byte	0xc
 3174 0e7f 62       		.byte	0x62
 3175 0e80 C0000000 		.4byte	0xc0
 3176 0e84 52       		.byte	0x52
 3177 0e85 15       		.uleb128 0x15
 3178 0e86 27210000 		.4byte	.LASF326
ARM GAS  C:\Users\yomat\AppData\Local\Temp\cc0omv11.s 			page 137


 3179 0e8a 0C       		.byte	0xc
 3180 0e8b 63       		.byte	0x63
 3181 0e8c C0000000 		.4byte	0xc0
 3182 0e90 53       		.byte	0x53
 3183 0e91 15       		.uleb128 0x15
 3184 0e92 9F170000 		.4byte	.LASF327
 3185 0e96 0C       		.byte	0xc
 3186 0e97 64       		.byte	0x64
 3187 0e98 C0000000 		.4byte	0xc0
 3188 0e9c 54       		.byte	0x54
 3189 0e9d 15       		.uleb128 0x15
 3190 0e9e 2E260000 		.4byte	.LASF328
 3191 0ea2 0C       		.byte	0xc
 3192 0ea3 65       		.byte	0x65
 3193 0ea4 C0000000 		.4byte	0xc0
 3194 0ea8 55       		.byte	0x55
 3195 0ea9 15       		.uleb128 0x15
 3196 0eaa 74200000 		.4byte	.LASF329
 3197 0eae 0C       		.byte	0xc
 3198 0eaf 66       		.byte	0x66
 3199 0eb0 C0000000 		.4byte	0xc0
 3200 0eb4 56       		.byte	0x56
 3201 0eb5 15       		.uleb128 0x15
 3202 0eb6 681A0000 		.4byte	.LASF330
 3203 0eba 0C       		.byte	0xc
 3204 0ebb 67       		.byte	0x67
 3205 0ebc C0000000 		.4byte	0xc0
 3206 0ec0 57       		.byte	0x57
 3207 0ec1 15       		.uleb128 0x15
 3208 0ec2 7A130000 		.4byte	.LASF331
 3209 0ec6 0C       		.byte	0xc
 3210 0ec7 68       		.byte	0x68
 3211 0ec8 C0000000 		.4byte	0xc0
 3212 0ecc 58       		.byte	0x58
 3213 0ecd 15       		.uleb128 0x15
 3214 0ece EF0D0000 		.4byte	.LASF332
 3215 0ed2 0C       		.byte	0xc
 3216 0ed3 69       		.byte	0x69
 3217 0ed4 C0000000 		.4byte	0xc0
 3218 0ed8 59       		.byte	0x59
 3219 0ed9 15       		.uleb128 0x15
 3220 0eda 83260000 		.4byte	.LASF333
 3221 0ede 0C       		.byte	0xc
 3222 0edf 6E       		.byte	0x6e
 3223 0ee0 D6000000 		.4byte	0xd6
 3224 0ee4 5A       		.byte	0x5a
 3225 0ee5 15       		.uleb128 0x15
 3226 0ee6 DD0F0000 		.4byte	.LASF334
 3227 0eea 0C       		.byte	0xc
 3228 0eeb 6F       		.byte	0x6f
 3229 0eec D6000000 		.4byte	0xd6
 3230 0ef0 5C       		.byte	0x5c
 3231 0ef1 15       		.uleb128 0x15
 3232 0ef2 6C230000 		.4byte	.LASF335
 3233 0ef6 0C       		.byte	0xc
 3234 0ef7 70       		.byte	0x70
 3235 0ef8 C0000000 		.4byte	0xc0
ARM GAS  C:\Users\yomat\AppData\Local\Temp\cc0omv11.s 			page 138


 3236 0efc 5E       		.byte	0x5e
 3237 0efd 15       		.uleb128 0x15
 3238 0efe B2230000 		.4byte	.LASF336
 3239 0f02 0C       		.byte	0xc
 3240 0f03 71       		.byte	0x71
 3241 0f04 C0000000 		.4byte	0xc0
 3242 0f08 5F       		.byte	0x5f
 3243 0f09 15       		.uleb128 0x15
 3244 0f0a 66030000 		.4byte	.LASF337
 3245 0f0e 0C       		.byte	0xc
 3246 0f0f 72       		.byte	0x72
 3247 0f10 C0000000 		.4byte	0xc0
 3248 0f14 60       		.byte	0x60
 3249 0f15 15       		.uleb128 0x15
 3250 0f16 75170000 		.4byte	.LASF338
 3251 0f1a 0C       		.byte	0xc
 3252 0f1b 73       		.byte	0x73
 3253 0f1c EC000000 		.4byte	0xec
 3254 0f20 64       		.byte	0x64
 3255 0f21 15       		.uleb128 0x15
 3256 0f22 A2240000 		.4byte	.LASF339
 3257 0f26 0C       		.byte	0xc
 3258 0f27 76       		.byte	0x76
 3259 0f28 D6000000 		.4byte	0xd6
 3260 0f2c 68       		.byte	0x68
 3261 0f2d 15       		.uleb128 0x15
 3262 0f2e BC050000 		.4byte	.LASF340
 3263 0f32 0C       		.byte	0xc
 3264 0f33 77       		.byte	0x77
 3265 0f34 D6000000 		.4byte	0xd6
 3266 0f38 6A       		.byte	0x6a
 3267 0f39 15       		.uleb128 0x15
 3268 0f3a 8B0C0000 		.4byte	.LASF341
 3269 0f3e 0C       		.byte	0xc
 3270 0f3f 78       		.byte	0x78
 3271 0f40 D6000000 		.4byte	0xd6
 3272 0f44 6C       		.byte	0x6c
 3273 0f45 15       		.uleb128 0x15
 3274 0f46 2F060000 		.4byte	.LASF342
 3275 0f4a 0C       		.byte	0xc
 3276 0f4b 79       		.byte	0x79
 3277 0f4c D6000000 		.4byte	0xd6
 3278 0f50 6E       		.byte	0x6e
 3279 0f51 15       		.uleb128 0x15
 3280 0f52 8E1D0000 		.4byte	.LASF343
 3281 0f56 0C       		.byte	0xc
 3282 0f57 7B       		.byte	0x7b
 3283 0f58 C0000000 		.4byte	0xc0
 3284 0f5c 70       		.byte	0x70
 3285 0f5d 15       		.uleb128 0x15
 3286 0f5e 5F110000 		.4byte	.LASF344
 3287 0f62 0C       		.byte	0xc
 3288 0f63 7C       		.byte	0x7c
 3289 0f64 C0000000 		.4byte	0xc0
 3290 0f68 71       		.byte	0x71
 3291 0f69 15       		.uleb128 0x15
 3292 0f6a B0070000 		.4byte	.LASF345
ARM GAS  C:\Users\yomat\AppData\Local\Temp\cc0omv11.s 			page 139


 3293 0f6e 0C       		.byte	0xc
 3294 0f6f 7D       		.byte	0x7d
 3295 0f70 C0000000 		.4byte	0xc0
 3296 0f74 72       		.byte	0x72
 3297 0f75 15       		.uleb128 0x15
 3298 0f76 36240000 		.4byte	.LASF346
 3299 0f7a 0C       		.byte	0xc
 3300 0f7b 7E       		.byte	0x7e
 3301 0f7c C0000000 		.4byte	0xc0
 3302 0f80 73       		.byte	0x73
 3303 0f81 15       		.uleb128 0x15
 3304 0f82 FE050000 		.4byte	.LASF347
 3305 0f86 0C       		.byte	0xc
 3306 0f87 80       		.byte	0x80
 3307 0f88 D6000000 		.4byte	0xd6
 3308 0f8c 74       		.byte	0x74
 3309 0f8d 15       		.uleb128 0x15
 3310 0f8e C3100000 		.4byte	.LASF348
 3311 0f92 0C       		.byte	0xc
 3312 0f93 81       		.byte	0x81
 3313 0f94 D6000000 		.4byte	0xd6
 3314 0f98 76       		.byte	0x76
 3315 0f99 15       		.uleb128 0x15
 3316 0f9a CE130000 		.4byte	.LASF349
 3317 0f9e 0C       		.byte	0xc
 3318 0f9f 82       		.byte	0x82
 3319 0fa0 D6000000 		.4byte	0xd6
 3320 0fa4 78       		.byte	0x78
 3321 0fa5 15       		.uleb128 0x15
 3322 0fa6 A51C0000 		.4byte	.LASF350
 3323 0faa 0C       		.byte	0xc
 3324 0fab 83       		.byte	0x83
 3325 0fac D6000000 		.4byte	0xd6
 3326 0fb0 7A       		.byte	0x7a
 3327 0fb1 15       		.uleb128 0x15
 3328 0fb2 ED150000 		.4byte	.LASF351
 3329 0fb6 0C       		.byte	0xc
 3330 0fb7 86       		.byte	0x86
 3331 0fb8 C0000000 		.4byte	0xc0
 3332 0fbc 7C       		.byte	0x7c
 3333 0fbd 15       		.uleb128 0x15
 3334 0fbe 3C020000 		.4byte	.LASF352
 3335 0fc2 0C       		.byte	0xc
 3336 0fc3 87       		.byte	0x87
 3337 0fc4 C0000000 		.4byte	0xc0
 3338 0fc8 7D       		.byte	0x7d
 3339 0fc9 15       		.uleb128 0x15
 3340 0fca 1D040000 		.4byte	.LASF353
 3341 0fce 0C       		.byte	0xc
 3342 0fcf 88       		.byte	0x88
 3343 0fd0 C0000000 		.4byte	0xc0
 3344 0fd4 7E       		.byte	0x7e
 3345 0fd5 15       		.uleb128 0x15
 3346 0fd6 4B0A0000 		.4byte	.LASF354
 3347 0fda 0C       		.byte	0xc
 3348 0fdb 89       		.byte	0x89
 3349 0fdc C0000000 		.4byte	0xc0
ARM GAS  C:\Users\yomat\AppData\Local\Temp\cc0omv11.s 			page 140


 3350 0fe0 7F       		.byte	0x7f
 3351 0fe1 15       		.uleb128 0x15
 3352 0fe2 5F210000 		.4byte	.LASF355
 3353 0fe6 0C       		.byte	0xc
 3354 0fe7 8A       		.byte	0x8a
 3355 0fe8 C0000000 		.4byte	0xc0
 3356 0fec 80       		.byte	0x80
 3357 0fed 15       		.uleb128 0x15
 3358 0fee 690C0000 		.4byte	.LASF356
 3359 0ff2 0C       		.byte	0xc
 3360 0ff3 8D       		.byte	0x8d
 3361 0ff4 EC000000 		.4byte	0xec
 3362 0ff8 84       		.byte	0x84
 3363 0ff9 15       		.uleb128 0x15
 3364 0ffa 2A0D0000 		.4byte	.LASF357
 3365 0ffe 0C       		.byte	0xc
 3366 0fff 8E       		.byte	0x8e
 3367 1000 EC000000 		.4byte	0xec
 3368 1004 88       		.byte	0x88
 3369 1005 15       		.uleb128 0x15
 3370 1006 BD0B0000 		.4byte	.LASF358
 3371 100a 0C       		.byte	0xc
 3372 100b 8F       		.byte	0x8f
 3373 100c EC000000 		.4byte	0xec
 3374 1010 8C       		.byte	0x8c
 3375 1011 15       		.uleb128 0x15
 3376 1012 43000000 		.4byte	.LASF359
 3377 1016 0C       		.byte	0xc
 3378 1017 90       		.byte	0x90
 3379 1018 EC000000 		.4byte	0xec
 3380 101c 90       		.byte	0x90
 3381 101d 15       		.uleb128 0x15
 3382 101e 850D0000 		.4byte	.LASF360
 3383 1022 0C       		.byte	0xc
 3384 1023 91       		.byte	0x91
 3385 1024 EC000000 		.4byte	0xec
 3386 1028 94       		.byte	0x94
 3387 1029 15       		.uleb128 0x15
 3388 102a 2C090000 		.4byte	.LASF361
 3389 102e 0C       		.byte	0xc
 3390 102f 92       		.byte	0x92
 3391 1030 EC000000 		.4byte	0xec
 3392 1034 98       		.byte	0x98
 3393 1035 15       		.uleb128 0x15
 3394 1036 85090000 		.4byte	.LASF362
 3395 103a 0C       		.byte	0xc
 3396 103b 93       		.byte	0x93
 3397 103c EC000000 		.4byte	0xec
 3398 1040 9C       		.byte	0x9c
 3399 1041 15       		.uleb128 0x15
 3400 1042 F3100000 		.4byte	.LASF363
 3401 1046 0C       		.byte	0xc
 3402 1047 94       		.byte	0x94
 3403 1048 EC000000 		.4byte	0xec
 3404 104c A0       		.byte	0xa0
 3405 104d 15       		.uleb128 0x15
 3406 104e 331A0000 		.4byte	.LASF364
ARM GAS  C:\Users\yomat\AppData\Local\Temp\cc0omv11.s 			page 141


 3407 1052 0C       		.byte	0xc
 3408 1053 95       		.byte	0x95
 3409 1054 D6000000 		.4byte	0xd6
 3410 1058 A4       		.byte	0xa4
 3411 1059 15       		.uleb128 0x15
 3412 105a FC190000 		.4byte	.LASF365
 3413 105e 0C       		.byte	0xc
 3414 105f 96       		.byte	0x96
 3415 1060 D6000000 		.4byte	0xd6
 3416 1064 A6       		.byte	0xa6
 3417 1065 15       		.uleb128 0x15
 3418 1066 C6070000 		.4byte	.LASF366
 3419 106a 0C       		.byte	0xc
 3420 106b 97       		.byte	0x97
 3421 106c D6000000 		.4byte	0xd6
 3422 1070 A8       		.byte	0xa8
 3423 1071 15       		.uleb128 0x15
 3424 1072 BF1C0000 		.4byte	.LASF367
 3425 1076 0C       		.byte	0xc
 3426 1077 98       		.byte	0x98
 3427 1078 D6000000 		.4byte	0xd6
 3428 107c AA       		.byte	0xaa
 3429 107d 15       		.uleb128 0x15
 3430 107e 02160000 		.4byte	.LASF368
 3431 1082 0C       		.byte	0xc
 3432 1083 99       		.byte	0x99
 3433 1084 D6000000 		.4byte	0xd6
 3434 1088 AC       		.byte	0xac
 3435 1089 15       		.uleb128 0x15
 3436 108a 210F0000 		.4byte	.LASF369
 3437 108e 0C       		.byte	0xc
 3438 108f 9A       		.byte	0x9a
 3439 1090 D6000000 		.4byte	0xd6
 3440 1094 AE       		.byte	0xae
 3441 1095 15       		.uleb128 0x15
 3442 1096 7F240000 		.4byte	.LASF370
 3443 109a 0C       		.byte	0xc
 3444 109b 9D       		.byte	0x9d
 3445 109c D6000000 		.4byte	0xd6
 3446 10a0 B0       		.byte	0xb0
 3447 10a1 15       		.uleb128 0x15
 3448 10a2 AB0C0000 		.4byte	.LASF371
 3449 10a6 0C       		.byte	0xc
 3450 10a7 9E       		.byte	0x9e
 3451 10a8 EC000000 		.4byte	0xec
 3452 10ac B4       		.byte	0xb4
 3453 10ad 00       		.byte	0
 3454 10ae 03       		.uleb128 0x3
 3455 10af A6120000 		.4byte	.LASF372
 3456 10b3 0C       		.byte	0xc
 3457 10b4 9F       		.byte	0x9f
 3458 10b5 9D0C0000 		.4byte	0xc9d
 3459 10b9 11       		.uleb128 0x11
 3460 10ba C01A0000 		.4byte	.LASF373
 3461 10be 0D       		.byte	0xd
 3462 10bf F601     		.2byte	0x1f6
 3463 10c1 B9000000 		.4byte	0xb9
ARM GAS  C:\Users\yomat\AppData\Local\Temp\cc0omv11.s 			page 142


 3464 10c5 02       		.uleb128 0x2
 3465 10c6 04       		.byte	0x4
 3466 10c7 04       		.byte	0x4
 3467 10c8 1A140000 		.4byte	.LASF374
 3468 10cc 11       		.uleb128 0x11
 3469 10cd 6F1F0000 		.4byte	.LASF375
 3470 10d1 0D       		.byte	0xd
 3471 10d2 EA03     		.2byte	0x3ea
 3472 10d4 C0000000 		.4byte	0xc0
 3473 10d8 18       		.uleb128 0x18
 3474 10d9 08       		.byte	0x8
 3475 10da 0E       		.byte	0xe
 3476 10db 2D01     		.2byte	0x12d
 3477 10dd FC100000 		.4byte	0x10fc
 3478 10e1 0A       		.uleb128 0xa
 3479 10e2 3F040000 		.4byte	.LASF376
 3480 10e6 0E       		.byte	0xe
 3481 10e7 2E01     		.2byte	0x12e
 3482 10e9 B8040000 		.4byte	0x4b8
 3483 10ed 00       		.byte	0
 3484 10ee 0A       		.uleb128 0xa
 3485 10ef 241E0000 		.4byte	.LASF377
 3486 10f3 0E       		.byte	0xe
 3487 10f4 3201     		.2byte	0x132
 3488 10f6 EC000000 		.4byte	0xec
 3489 10fa 04       		.byte	0x4
 3490 10fb 00       		.byte	0
 3491 10fc 11       		.uleb128 0x11
 3492 10fd 0F0D0000 		.4byte	.LASF378
 3493 1101 0E       		.byte	0xe
 3494 1102 3301     		.2byte	0x133
 3495 1104 D8100000 		.4byte	0x10d8
 3496 1108 19       		.uleb128 0x19
 3497 1109 01       		.byte	0x1
 3498 110a 3E000000 		.4byte	0x3e
 3499 110e 0F       		.byte	0xf
 3500 110f 2305     		.2byte	0x523
 3501 1111 22110000 		.4byte	0x1122
 3502 1115 08       		.uleb128 0x8
 3503 1116 E60F0000 		.4byte	.LASF379
 3504 111a 00       		.byte	0
 3505 111b 08       		.uleb128 0x8
 3506 111c 4F260000 		.4byte	.LASF380
 3507 1120 01       		.byte	0x1
 3508 1121 00       		.byte	0
 3509 1122 02       		.uleb128 0x2
 3510 1123 01       		.byte	0x1
 3511 1124 02       		.byte	0x2
 3512 1125 76090000 		.4byte	.LASF381
 3513 1129 19       		.uleb128 0x19
 3514 112a 01       		.byte	0x1
 3515 112b 3E000000 		.4byte	0x3e
 3516 112f 10       		.byte	0x10
 3517 1130 2402     		.2byte	0x224
 3518 1132 43110000 		.4byte	0x1143
 3519 1136 08       		.uleb128 0x8
 3520 1137 D00D0000 		.4byte	.LASF382
ARM GAS  C:\Users\yomat\AppData\Local\Temp\cc0omv11.s 			page 143


 3521 113b 00       		.byte	0
 3522 113c 08       		.uleb128 0x8
 3523 113d 5D230000 		.4byte	.LASF383
 3524 1141 01       		.byte	0x1
 3525 1142 00       		.byte	0
 3526 1143 11       		.uleb128 0x11
 3527 1144 090F0000 		.4byte	.LASF384
 3528 1148 10       		.byte	0x10
 3529 1149 2702     		.2byte	0x227
 3530 114b 29110000 		.4byte	0x1129
 3531 114f 11       		.uleb128 0x11
 3532 1150 2A170000 		.4byte	.LASF385
 3533 1154 10       		.byte	0x10
 3534 1155 3902     		.2byte	0x239
 3535 1157 5B110000 		.4byte	0x115b
 3536 115b 1A       		.uleb128 0x1a
 3537 115c 04       		.byte	0x4
 3538 115d 61110000 		.4byte	0x1161
 3539 1161 1B       		.uleb128 0x1b
 3540 1162 6C110000 		.4byte	0x116c
 3541 1166 1C       		.uleb128 0x1c
 3542 1167 EC000000 		.4byte	0xec
 3543 116b 00       		.byte	0
 3544 116c 11       		.uleb128 0x11
 3545 116d 67260000 		.4byte	.LASF386
 3546 1171 10       		.byte	0x10
 3547 1172 4402     		.2byte	0x244
 3548 1174 78110000 		.4byte	0x1178
 3549 1178 1A       		.uleb128 0x1a
 3550 1179 04       		.byte	0x4
 3551 117a 7E110000 		.4byte	0x117e
 3552 117e 1D       		.uleb128 0x1d
 3553 117f 43110000 		.4byte	0x1143
 3554 1183 8D110000 		.4byte	0x118d
 3555 1187 1C       		.uleb128 0x1c
 3556 1188 EC000000 		.4byte	0xec
 3557 118c 00       		.byte	0
 3558 118d 1E       		.uleb128 0x1e
 3559 118e FE250000 		.4byte	.LASF410
 3560 1192 4C       		.byte	0x4c
 3561 1193 10       		.byte	0x10
 3562 1194 C302     		.2byte	0x2c3
 3563 1196 AC120000 		.4byte	0x12ac
 3564 119a 0A       		.uleb128 0xa
 3565 119b BB040000 		.4byte	.LASF387
 3566 119f 10       		.byte	0x10
 3567 11a0 C602     		.2byte	0x2c6
 3568 11a2 22110000 		.4byte	0x1122
 3569 11a6 00       		.byte	0
 3570 11a7 0A       		.uleb128 0xa
 3571 11a8 B61A0000 		.4byte	.LASF388
 3572 11ac 10       		.byte	0x10
 3573 11ad C702     		.2byte	0x2c7
 3574 11af 22110000 		.4byte	0x1122
 3575 11b3 01       		.byte	0x1
 3576 11b4 0A       		.uleb128 0xa
 3577 11b5 0A020000 		.4byte	.LASF389
ARM GAS  C:\Users\yomat\AppData\Local\Temp\cc0omv11.s 			page 144


 3578 11b9 10       		.byte	0x10
 3579 11ba C902     		.2byte	0x2c9
 3580 11bc 8F050000 		.4byte	0x58f
 3581 11c0 04       		.byte	0x4
 3582 11c1 0A       		.uleb128 0xa
 3583 11c2 1A210000 		.4byte	.LASF390
 3584 11c6 10       		.byte	0x10
 3585 11c7 CB02     		.2byte	0x2cb
 3586 11c9 8F050000 		.4byte	0x58f
 3587 11cd 08       		.byte	0x8
 3588 11ce 0A       		.uleb128 0xa
 3589 11cf 29230000 		.4byte	.LASF391
 3590 11d3 10       		.byte	0x10
 3591 11d4 CC02     		.2byte	0x2cc
 3592 11d6 22110000 		.4byte	0x1122
 3593 11da 0C       		.byte	0xc
 3594 11db 0A       		.uleb128 0xa
 3595 11dc 51230000 		.4byte	.LASF392
 3596 11e0 10       		.byte	0x10
 3597 11e1 CD02     		.2byte	0x2cd
 3598 11e3 22110000 		.4byte	0x1122
 3599 11e7 0D       		.byte	0xd
 3600 11e8 0A       		.uleb128 0xa
 3601 11e9 EB1E0000 		.4byte	.LASF393
 3602 11ed 10       		.byte	0x10
 3603 11ee CF02     		.2byte	0x2cf
 3604 11f0 AC120000 		.4byte	0x12ac
 3605 11f4 10       		.byte	0x10
 3606 11f5 0A       		.uleb128 0xa
 3607 11f6 6E0E0000 		.4byte	.LASF394
 3608 11fa 10       		.byte	0x10
 3609 11fb D002     		.2byte	0x2d0
 3610 11fd EC000000 		.4byte	0xec
 3611 1201 14       		.byte	0x14
 3612 1202 0A       		.uleb128 0xa
 3613 1203 DC200000 		.4byte	.LASF395
 3614 1207 10       		.byte	0x10
 3615 1208 D102     		.2byte	0x2d1
 3616 120a 8F050000 		.4byte	0x58f
 3617 120e 18       		.byte	0x18
 3618 120f 0A       		.uleb128 0xa
 3619 1210 7A120000 		.4byte	.LASF396
 3620 1214 10       		.byte	0x10
 3621 1215 D202     		.2byte	0x2d2
 3622 1217 8F050000 		.4byte	0x58f
 3623 121b 1C       		.byte	0x1c
 3624 121c 0A       		.uleb128 0xa
 3625 121d B70F0000 		.4byte	.LASF397
 3626 1221 10       		.byte	0x10
 3627 1222 D402     		.2byte	0x2d4
 3628 1224 8F050000 		.4byte	0x58f
 3629 1228 20       		.byte	0x20
 3630 1229 0A       		.uleb128 0xa
 3631 122a D20B0000 		.4byte	.LASF398
 3632 122e 10       		.byte	0x10
 3633 122f D502     		.2byte	0x2d5
 3634 1231 B2120000 		.4byte	0x12b2
ARM GAS  C:\Users\yomat\AppData\Local\Temp\cc0omv11.s 			page 145


 3635 1235 24       		.byte	0x24
 3636 1236 0A       		.uleb128 0xa
 3637 1237 EA220000 		.4byte	.LASF399
 3638 123b 10       		.byte	0x10
 3639 123c D702     		.2byte	0x2d7
 3640 123e AC120000 		.4byte	0x12ac
 3641 1242 28       		.byte	0x28
 3642 1243 0A       		.uleb128 0xa
 3643 1244 31110000 		.4byte	.LASF400
 3644 1248 10       		.byte	0x10
 3645 1249 D802     		.2byte	0x2d8
 3646 124b EC000000 		.4byte	0xec
 3647 124f 2C       		.byte	0x2c
 3648 1250 0A       		.uleb128 0xa
 3649 1251 EE070000 		.4byte	.LASF401
 3650 1255 10       		.byte	0x10
 3651 1256 D902     		.2byte	0x2d9
 3652 1258 8F050000 		.4byte	0x58f
 3653 125c 30       		.byte	0x30
 3654 125d 0A       		.uleb128 0xa
 3655 125e 9A0C0000 		.4byte	.LASF402
 3656 1262 10       		.byte	0x10
 3657 1263 DA02     		.2byte	0x2da
 3658 1265 8F050000 		.4byte	0x58f
 3659 1269 34       		.byte	0x34
 3660 126a 0A       		.uleb128 0xa
 3661 126b 3B080000 		.4byte	.LASF403
 3662 126f 10       		.byte	0x10
 3663 1270 DC02     		.2byte	0x2dc
 3664 1272 AC120000 		.4byte	0x12ac
 3665 1276 38       		.byte	0x38
 3666 1277 0A       		.uleb128 0xa
 3667 1278 F8160000 		.4byte	.LASF404
 3668 127c 10       		.byte	0x10
 3669 127d DD02     		.2byte	0x2dd
 3670 127f EC000000 		.4byte	0xec
 3671 1283 3C       		.byte	0x3c
 3672 1284 0A       		.uleb128 0xa
 3673 1285 FC230000 		.4byte	.LASF405
 3674 1289 10       		.byte	0x10
 3675 128a DE02     		.2byte	0x2de
 3676 128c 8F050000 		.4byte	0x58f
 3677 1290 40       		.byte	0x40
 3678 1291 0A       		.uleb128 0xa
 3679 1292 CC0E0000 		.4byte	.LASF406
 3680 1296 10       		.byte	0x10
 3681 1297 E402     		.2byte	0x2e4
 3682 1299 4F110000 		.4byte	0x114f
 3683 129d 44       		.byte	0x44
 3684 129e 0A       		.uleb128 0xa
 3685 129f F81E0000 		.4byte	.LASF407
 3686 12a3 10       		.byte	0x10
 3687 12a4 EB02     		.2byte	0x2eb
 3688 12a6 6C110000 		.4byte	0x116c
 3689 12aa 48       		.byte	0x48
 3690 12ab 00       		.byte	0
 3691 12ac 1A       		.uleb128 0x1a
ARM GAS  C:\Users\yomat\AppData\Local\Temp\cc0omv11.s 			page 146


 3692 12ad 04       		.byte	0x4
 3693 12ae C0000000 		.4byte	0xc0
 3694 12b2 0F       		.uleb128 0xf
 3695 12b3 22110000 		.4byte	0x1122
 3696 12b7 11       		.uleb128 0x11
 3697 12b8 B4080000 		.4byte	.LASF408
 3698 12bc 10       		.byte	0x10
 3699 12bd EE02     		.2byte	0x2ee
 3700 12bf 8D110000 		.4byte	0x118d
 3701 12c3 11       		.uleb128 0x11
 3702 12c4 E1180000 		.4byte	.LASF409
 3703 12c8 11       		.byte	0x11
 3704 12c9 D901     		.2byte	0x1d9
 3705 12cb 5B110000 		.4byte	0x115b
 3706 12cf 1E       		.uleb128 0x1e
 3707 12d0 6A000000 		.4byte	.LASF411
 3708 12d4 38       		.byte	0x38
 3709 12d5 11       		.byte	0x11
 3710 12d6 7502     		.2byte	0x275
 3711 12d8 93130000 		.4byte	0x1393
 3712 12dc 0A       		.uleb128 0xa
 3713 12dd B8010000 		.4byte	.LASF412
 3714 12e1 11       		.byte	0x11
 3715 12e2 7802     		.2byte	0x278
 3716 12e4 8F050000 		.4byte	0x58f
 3717 12e8 00       		.byte	0
 3718 12e9 0A       		.uleb128 0xa
 3719 12ea E21E0000 		.4byte	.LASF413
 3720 12ee 11       		.byte	0x11
 3721 12ef 7902     		.2byte	0x279
 3722 12f1 8F050000 		.4byte	0x58f
 3723 12f5 04       		.byte	0x4
 3724 12f6 0A       		.uleb128 0xa
 3725 12f7 F4250000 		.4byte	.LASF414
 3726 12fb 11       		.byte	0x11
 3727 12fc 7B02     		.2byte	0x27b
 3728 12fe B0000000 		.4byte	0xb0
 3729 1302 08       		.byte	0x8
 3730 1303 0A       		.uleb128 0xa
 3731 1304 86170000 		.4byte	.LASF415
 3732 1308 11       		.byte	0x11
 3733 1309 7C02     		.2byte	0x27c
 3734 130b EC000000 		.4byte	0xec
 3735 130f 0C       		.byte	0xc
 3736 1310 0A       		.uleb128 0xa
 3737 1311 2D080000 		.4byte	.LASF416
 3738 1315 11       		.byte	0x11
 3739 1316 7D02     		.2byte	0x27d
 3740 1318 8F050000 		.4byte	0x58f
 3741 131c 10       		.byte	0x10
 3742 131d 0A       		.uleb128 0xa
 3743 131e 6E250000 		.4byte	.LASF417
 3744 1322 11       		.byte	0x11
 3745 1323 7E02     		.2byte	0x27e
 3746 1325 8F050000 		.4byte	0x58f
 3747 1329 14       		.byte	0x14
 3748 132a 0A       		.uleb128 0xa
ARM GAS  C:\Users\yomat\AppData\Local\Temp\cc0omv11.s 			page 147


 3749 132b BD000000 		.4byte	.LASF418
 3750 132f 11       		.byte	0x11
 3751 1330 8002     		.2byte	0x280
 3752 1332 B0000000 		.4byte	0xb0
 3753 1336 18       		.byte	0x18
 3754 1337 0A       		.uleb128 0xa
 3755 1338 D20A0000 		.4byte	.LASF419
 3756 133c 11       		.byte	0x11
 3757 133d 8102     		.2byte	0x281
 3758 133f EC000000 		.4byte	0xec
 3759 1343 1C       		.byte	0x1c
 3760 1344 0A       		.uleb128 0xa
 3761 1345 C5130000 		.4byte	.LASF420
 3762 1349 11       		.byte	0x11
 3763 134a 8202     		.2byte	0x282
 3764 134c 8F050000 		.4byte	0x58f
 3765 1350 20       		.byte	0x20
 3766 1351 0A       		.uleb128 0xa
 3767 1352 041C0000 		.4byte	.LASF421
 3768 1356 11       		.byte	0x11
 3769 1357 8402     		.2byte	0x284
 3770 1359 B0000000 		.4byte	0xb0
 3771 135d 24       		.byte	0x24
 3772 135e 0A       		.uleb128 0xa
 3773 135f CF040000 		.4byte	.LASF422
 3774 1363 11       		.byte	0x11
 3775 1364 8502     		.2byte	0x285
 3776 1366 EC000000 		.4byte	0xec
 3777 136a 28       		.byte	0x28
 3778 136b 0A       		.uleb128 0xa
 3779 136c 68040000 		.4byte	.LASF423
 3780 1370 11       		.byte	0x11
 3781 1371 8602     		.2byte	0x286
 3782 1373 8F050000 		.4byte	0x58f
 3783 1377 2C       		.byte	0x2c
 3784 1378 0A       		.uleb128 0xa
 3785 1379 CC0E0000 		.4byte	.LASF406
 3786 137d 11       		.byte	0x11
 3787 137e 8B02     		.2byte	0x28b
 3788 1380 C3120000 		.4byte	0x12c3
 3789 1384 30       		.byte	0x30
 3790 1385 0A       		.uleb128 0xa
 3791 1386 881F0000 		.4byte	.LASF424
 3792 138a 11       		.byte	0x11
 3793 138b 8E02     		.2byte	0x28e
 3794 138d EC000000 		.4byte	0xec
 3795 1391 34       		.byte	0x34
 3796 1392 00       		.byte	0
 3797 1393 11       		.uleb128 0x11
 3798 1394 49070000 		.4byte	.LASF425
 3799 1398 11       		.byte	0x11
 3800 1399 9102     		.2byte	0x291
 3801 139b CF120000 		.4byte	0x12cf
 3802 139f 1F       		.uleb128 0x1f
 3803 13a0 D50C0000 		.4byte	.LASF426
 3804 13a4 64       		.byte	0x64
 3805 13a5 12       		.byte	0x12
ARM GAS  C:\Users\yomat\AppData\Local\Temp\cc0omv11.s 			page 148


 3806 13a6 2F       		.byte	0x2f
 3807 13a7 D8140000 		.4byte	0x14d8
 3808 13ab 15       		.uleb128 0x15
 3809 13ac 8E150000 		.4byte	.LASF427
 3810 13b0 12       		.byte	0x12
 3811 13b1 31       		.byte	0x31
 3812 13b2 EC000000 		.4byte	0xec
 3813 13b6 00       		.byte	0
 3814 13b7 15       		.uleb128 0x15
 3815 13b8 100B0000 		.4byte	.LASF428
 3816 13bc 12       		.byte	0x12
 3817 13bd 33       		.byte	0x33
 3818 13be EC000000 		.4byte	0xec
 3819 13c2 04       		.byte	0x4
 3820 13c3 15       		.uleb128 0x15
 3821 13c4 1C230000 		.4byte	.LASF429
 3822 13c8 12       		.byte	0x12
 3823 13c9 34       		.byte	0x34
 3824 13ca EC000000 		.4byte	0xec
 3825 13ce 08       		.byte	0x8
 3826 13cf 15       		.uleb128 0x15
 3827 13d0 39210000 		.4byte	.LASF430
 3828 13d4 12       		.byte	0x12
 3829 13d5 35       		.byte	0x35
 3830 13d6 EC000000 		.4byte	0xec
 3831 13da 0C       		.byte	0xc
 3832 13db 15       		.uleb128 0x15
 3833 13dc 870A0000 		.4byte	.LASF431
 3834 13e0 12       		.byte	0x12
 3835 13e1 36       		.byte	0x36
 3836 13e2 EC000000 		.4byte	0xec
 3837 13e6 10       		.byte	0x10
 3838 13e7 15       		.uleb128 0x15
 3839 13e8 83070000 		.4byte	.LASF432
 3840 13ec 12       		.byte	0x12
 3841 13ed 37       		.byte	0x37
 3842 13ee EC000000 		.4byte	0xec
 3843 13f2 14       		.byte	0x14
 3844 13f3 15       		.uleb128 0x15
 3845 13f4 8B070000 		.4byte	.LASF433
 3846 13f8 12       		.byte	0x12
 3847 13f9 38       		.byte	0x38
 3848 13fa EC000000 		.4byte	0xec
 3849 13fe 18       		.byte	0x18
 3850 13ff 15       		.uleb128 0x15
 3851 1400 D1240000 		.4byte	.LASF434
 3852 1404 12       		.byte	0x12
 3853 1405 39       		.byte	0x39
 3854 1406 22110000 		.4byte	0x1122
 3855 140a 1C       		.byte	0x1c
 3856 140b 15       		.uleb128 0x15
 3857 140c 6C020000 		.4byte	.LASF435
 3858 1410 12       		.byte	0x12
 3859 1411 3A       		.byte	0x3a
 3860 1412 EC000000 		.4byte	0xec
 3861 1416 20       		.byte	0x20
 3862 1417 15       		.uleb128 0x15
ARM GAS  C:\Users\yomat\AppData\Local\Temp\cc0omv11.s 			page 149


 3863 1418 75020000 		.4byte	.LASF436
 3864 141c 12       		.byte	0x12
 3865 141d 3B       		.byte	0x3b
 3866 141e EC000000 		.4byte	0xec
 3867 1422 24       		.byte	0x24
 3868 1423 15       		.uleb128 0x15
 3869 1424 D1150000 		.4byte	.LASF437
 3870 1428 12       		.byte	0x12
 3871 1429 3C       		.byte	0x3c
 3872 142a 22110000 		.4byte	0x1122
 3873 142e 28       		.byte	0x28
 3874 142f 15       		.uleb128 0x15
 3875 1430 09110000 		.4byte	.LASF438
 3876 1434 12       		.byte	0x12
 3877 1435 3E       		.byte	0x3e
 3878 1436 EC000000 		.4byte	0xec
 3879 143a 2C       		.byte	0x2c
 3880 143b 15       		.uleb128 0x15
 3881 143c 7F0E0000 		.4byte	.LASF439
 3882 1440 12       		.byte	0x12
 3883 1441 3F       		.byte	0x3f
 3884 1442 EC000000 		.4byte	0xec
 3885 1446 30       		.byte	0x30
 3886 1447 15       		.uleb128 0x15
 3887 1448 BC240000 		.4byte	.LASF440
 3888 144c 12       		.byte	0x12
 3889 144d 40       		.byte	0x40
 3890 144e EC000000 		.4byte	0xec
 3891 1452 34       		.byte	0x34
 3892 1453 15       		.uleb128 0x15
 3893 1454 5C0E0000 		.4byte	.LASF441
 3894 1458 12       		.byte	0x12
 3895 1459 41       		.byte	0x41
 3896 145a EC000000 		.4byte	0xec
 3897 145e 38       		.byte	0x38
 3898 145f 15       		.uleb128 0x15
 3899 1460 A4110000 		.4byte	.LASF442
 3900 1464 12       		.byte	0x12
 3901 1465 42       		.byte	0x42
 3902 1466 EC000000 		.4byte	0xec
 3903 146a 3C       		.byte	0x3c
 3904 146b 15       		.uleb128 0x15
 3905 146c C5040000 		.4byte	.LASF443
 3906 1470 12       		.byte	0x12
 3907 1471 44       		.byte	0x44
 3908 1472 EC000000 		.4byte	0xec
 3909 1476 40       		.byte	0x40
 3910 1477 15       		.uleb128 0x15
 3911 1478 CE050000 		.4byte	.LASF444
 3912 147c 12       		.byte	0x12
 3913 147d 45       		.byte	0x45
 3914 147e EC000000 		.4byte	0xec
 3915 1482 44       		.byte	0x44
 3916 1483 15       		.uleb128 0x15
 3917 1484 13250000 		.4byte	.LASF445
 3918 1488 12       		.byte	0x12
 3919 1489 47       		.byte	0x47
ARM GAS  C:\Users\yomat\AppData\Local\Temp\cc0omv11.s 			page 150


 3920 148a EC000000 		.4byte	0xec
 3921 148e 48       		.byte	0x48
 3922 148f 15       		.uleb128 0x15
 3923 1490 C81E0000 		.4byte	.LASF446
 3924 1494 12       		.byte	0x12
 3925 1495 48       		.byte	0x48
 3926 1496 EC000000 		.4byte	0xec
 3927 149a 4C       		.byte	0x4c
 3928 149b 15       		.uleb128 0x15
 3929 149c 23260000 		.4byte	.LASF447
 3930 14a0 12       		.byte	0x12
 3931 14a1 4A       		.byte	0x4a
 3932 14a2 EC000000 		.4byte	0xec
 3933 14a6 50       		.byte	0x50
 3934 14a7 15       		.uleb128 0x15
 3935 14a8 02220000 		.4byte	.LASF448
 3936 14ac 12       		.byte	0x12
 3937 14ad 4B       		.byte	0x4b
 3938 14ae EC000000 		.4byte	0xec
 3939 14b2 54       		.byte	0x54
 3940 14b3 15       		.uleb128 0x15
 3941 14b4 E3150000 		.4byte	.LASF449
 3942 14b8 12       		.byte	0x12
 3943 14b9 4D       		.byte	0x4d
 3944 14ba EC000000 		.4byte	0xec
 3945 14be 58       		.byte	0x58
 3946 14bf 15       		.uleb128 0x15
 3947 14c0 4A030000 		.4byte	.LASF450
 3948 14c4 12       		.byte	0x12
 3949 14c5 4E       		.byte	0x4e
 3950 14c6 EC000000 		.4byte	0xec
 3951 14ca 5C       		.byte	0x5c
 3952 14cb 15       		.uleb128 0x15
 3953 14cc 10160000 		.4byte	.LASF451
 3954 14d0 12       		.byte	0x12
 3955 14d1 50       		.byte	0x50
 3956 14d2 EC000000 		.4byte	0xec
 3957 14d6 60       		.byte	0x60
 3958 14d7 00       		.byte	0
 3959 14d8 03       		.uleb128 0x3
 3960 14d9 7F030000 		.4byte	.LASF452
 3961 14dd 12       		.byte	0x12
 3962 14de 51       		.byte	0x51
 3963 14df 9F130000 		.4byte	0x139f
 3964 14e3 12       		.uleb128 0x12
 3965 14e4 C0000000 		.4byte	0xc0
 3966 14e8 18       		.uleb128 0x18
 3967 14e9 02       		.byte	0x2
 3968 14ea 13       		.byte	0x13
 3969 14eb 6401     		.2byte	0x164
 3970 14ed 0C150000 		.4byte	0x150c
 3971 14f1 0A       		.uleb128 0xa
 3972 14f2 47040000 		.4byte	.LASF453
 3973 14f6 13       		.byte	0x13
 3974 14f7 6E01     		.2byte	0x16e
 3975 14f9 C0000000 		.4byte	0xc0
 3976 14fd 00       		.byte	0
ARM GAS  C:\Users\yomat\AppData\Local\Temp\cc0omv11.s 			page 151


 3977 14fe 0A       		.uleb128 0xa
 3978 14ff 0D250000 		.4byte	.LASF454
 3979 1503 13       		.byte	0x13
 3980 1504 7201     		.2byte	0x172
 3981 1506 C0000000 		.4byte	0xc0
 3982 150a 01       		.byte	0x1
 3983 150b 00       		.byte	0
 3984 150c 11       		.uleb128 0x11
 3985 150d 9D1E0000 		.4byte	.LASF455
 3986 1511 13       		.byte	0x13
 3987 1512 7401     		.2byte	0x174
 3988 1514 E8140000 		.4byte	0x14e8
 3989 1518 11       		.uleb128 0x11
 3990 1519 93070000 		.4byte	.LASF456
 3991 151d 14       		.byte	0x14
 3992 151e 7F01     		.2byte	0x17f
 3993 1520 D6000000 		.4byte	0xd6
 3994 1524 18       		.uleb128 0x18
 3995 1525 08       		.byte	0x8
 3996 1526 14       		.byte	0x14
 3997 1527 9401     		.2byte	0x194
 3998 1529 55150000 		.4byte	0x1555
 3999 152d 20       		.uleb128 0x20
 4000 152e 76616C00 		.ascii	"val\000"
 4001 1532 14       		.byte	0x14
 4002 1533 9701     		.2byte	0x197
 4003 1535 AC120000 		.4byte	0x12ac
 4004 1539 00       		.byte	0
 4005 153a 20       		.uleb128 0x20
 4006 153b 6C656E00 		.ascii	"len\000"
 4007 153f 14       		.byte	0x14
 4008 1540 9A01     		.2byte	0x19a
 4009 1542 D6000000 		.4byte	0xd6
 4010 1546 04       		.byte	0x4
 4011 1547 0A       		.uleb128 0xa
 4012 1548 8D240000 		.4byte	.LASF457
 4013 154c 14       		.byte	0x14
 4014 154d A101     		.2byte	0x1a1
 4015 154f D6000000 		.4byte	0xd6
 4016 1553 06       		.byte	0x6
 4017 1554 00       		.byte	0
 4018 1555 11       		.uleb128 0x11
 4019 1556 E6050000 		.4byte	.LASF458
 4020 155a 14       		.byte	0x14
 4021 155b A301     		.2byte	0x1a3
 4022 155d 24150000 		.4byte	0x1524
 4023 1561 18       		.uleb128 0x18
 4024 1562 0C       		.byte	0xc
 4025 1563 14       		.byte	0x14
 4026 1564 A601     		.2byte	0x1a6
 4027 1566 85150000 		.4byte	0x1585
 4028 156a 0A       		.uleb128 0xa
 4029 156b 87050000 		.4byte	.LASF459
 4030 156f 14       		.byte	0x14
 4031 1570 A901     		.2byte	0x1a9
 4032 1572 55150000 		.4byte	0x1555
 4033 1576 00       		.byte	0
ARM GAS  C:\Users\yomat\AppData\Local\Temp\cc0omv11.s 			page 152


 4034 1577 0A       		.uleb128 0xa
 4035 1578 52140000 		.4byte	.LASF460
 4036 157c 14       		.byte	0x14
 4037 157d AC01     		.2byte	0x1ac
 4038 157f 18150000 		.4byte	0x1518
 4039 1583 08       		.byte	0x8
 4040 1584 00       		.byte	0
 4041 1585 11       		.uleb128 0x11
 4042 1586 10020000 		.4byte	.LASF461
 4043 158a 14       		.byte	0x14
 4044 158b AE01     		.2byte	0x1ae
 4045 158d 61150000 		.4byte	0x1561
 4046 1591 06       		.uleb128 0x6
 4047 1592 01       		.byte	0x1
 4048 1593 3E000000 		.4byte	0x3e
 4049 1597 15       		.byte	0x15
 4050 1598 7E       		.byte	0x7e
 4051 1599 B6150000 		.4byte	0x15b6
 4052 159d 08       		.uleb128 0x8
 4053 159e 82160000 		.4byte	.LASF462
 4054 15a2 00       		.byte	0
 4055 15a3 08       		.uleb128 0x8
 4056 15a4 C8060000 		.4byte	.LASF463
 4057 15a8 01       		.byte	0x1
 4058 15a9 08       		.uleb128 0x8
 4059 15aa 20010000 		.4byte	.LASF464
 4060 15ae 02       		.byte	0x2
 4061 15af 08       		.uleb128 0x8
 4062 15b0 1A1C0000 		.4byte	.LASF465
 4063 15b4 03       		.byte	0x3
 4064 15b5 00       		.byte	0
 4065 15b6 03       		.uleb128 0x3
 4066 15b7 B3160000 		.4byte	.LASF466
 4067 15bb 15       		.byte	0x15
 4068 15bc 83       		.byte	0x83
 4069 15bd 91150000 		.4byte	0x1591
 4070 15c1 06       		.uleb128 0x6
 4071 15c2 01       		.byte	0x1
 4072 15c3 3E000000 		.4byte	0x3e
 4073 15c7 15       		.byte	0x15
 4074 15c8 87       		.byte	0x87
 4075 15c9 FE150000 		.4byte	0x15fe
 4076 15cd 08       		.uleb128 0x8
 4077 15ce 96150000 		.4byte	.LASF467
 4078 15d2 00       		.byte	0
 4079 15d3 08       		.uleb128 0x8
 4080 15d4 AA140000 		.4byte	.LASF468
 4081 15d8 01       		.byte	0x1
 4082 15d9 08       		.uleb128 0x8
 4083 15da 1C1F0000 		.4byte	.LASF469
 4084 15de 02       		.byte	0x2
 4085 15df 08       		.uleb128 0x8
 4086 15e0 8D100000 		.4byte	.LASF470
 4087 15e4 03       		.byte	0x3
 4088 15e5 08       		.uleb128 0x8
 4089 15e6 36160000 		.4byte	.LASF471
 4090 15ea 04       		.byte	0x4
ARM GAS  C:\Users\yomat\AppData\Local\Temp\cc0omv11.s 			page 153


 4091 15eb 08       		.uleb128 0x8
 4092 15ec EC080000 		.4byte	.LASF472
 4093 15f0 05       		.byte	0x5
 4094 15f1 08       		.uleb128 0x8
 4095 15f2 F5000000 		.4byte	.LASF473
 4096 15f6 06       		.byte	0x6
 4097 15f7 08       		.uleb128 0x8
 4098 15f8 21050000 		.4byte	.LASF474
 4099 15fc 07       		.byte	0x7
 4100 15fd 00       		.byte	0
 4101 15fe 03       		.uleb128 0x3
 4102 15ff D11B0000 		.4byte	.LASF475
 4103 1603 15       		.byte	0x15
 4104 1604 90       		.byte	0x90
 4105 1605 C1150000 		.4byte	0x15c1
 4106 1609 12       		.uleb128 0x12
 4107 160a FC100000 		.4byte	0x10fc
 4108 160e 1F       		.uleb128 0x1f
 4109 160f 79040000 		.4byte	.LASF476
 4110 1613 08       		.byte	0x8
 4111 1614 16       		.byte	0x16
 4112 1615 7C       		.byte	0x7c
 4113 1616 33160000 		.4byte	0x1633
 4114 161a 14       		.uleb128 0x14
 4115 161b 72656700 		.ascii	"reg\000"
 4116 161f 16       		.byte	0x16
 4117 1620 7D       		.byte	0x7d
 4118 1621 C0000000 		.4byte	0xc0
 4119 1625 00       		.byte	0
 4120 1626 14       		.uleb128 0x14
 4121 1627 76616C00 		.ascii	"val\000"
 4122 162b 16       		.byte	0x16
 4123 162c 7E       		.byte	0x7e
 4124 162d EC000000 		.4byte	0xec
 4125 1631 04       		.byte	0x4
 4126 1632 00       		.byte	0
 4127 1633 03       		.uleb128 0x3
 4128 1634 1E070000 		.4byte	.LASF477
 4129 1638 16       		.byte	0x16
 4130 1639 7F       		.byte	0x7f
 4131 163a 0E160000 		.4byte	0x160e
 4132 163e 21       		.uleb128 0x21
 4133 163f D51F0000 		.4byte	.LASF561
 4134 1643 01       		.byte	0x1
 4135 1644 3E000000 		.4byte	0x3e
 4136 1648 17       		.byte	0x17
 4137 1649 0E       		.byte	0xe
 4138 164a 67160000 		.4byte	0x1667
 4139 164e 08       		.uleb128 0x8
 4140 164f BC180000 		.4byte	.LASF478
 4141 1653 00       		.byte	0
 4142 1654 08       		.uleb128 0x8
 4143 1655 F01C0000 		.4byte	.LASF479
 4144 1659 01       		.byte	0x1
 4145 165a 08       		.uleb128 0x8
 4146 165b 4F200000 		.4byte	.LASF480
 4147 165f 02       		.byte	0x2
ARM GAS  C:\Users\yomat\AppData\Local\Temp\cc0omv11.s 			page 154


 4148 1660 08       		.uleb128 0x8
 4149 1661 800C0000 		.4byte	.LASF481
 4150 1665 03       		.byte	0x3
 4151 1666 00       		.byte	0
 4152 1667 03       		.uleb128 0x3
 4153 1668 481A0000 		.4byte	.LASF482
 4154 166c 17       		.byte	0x17
 4155 166d 13       		.byte	0x13
 4156 166e 3E160000 		.4byte	0x163e
 4157 1672 1F       		.uleb128 0x1f
 4158 1673 A2140000 		.4byte	.LASF483
 4159 1677 24       		.byte	0x24
 4160 1678 17       		.byte	0x17
 4161 1679 1C       		.byte	0x1c
 4162 167a A3160000 		.4byte	0x16a3
 4163 167e 14       		.uleb128 0x14
 4164 167f 656E6100 		.ascii	"ena\000"
 4165 1683 17       		.byte	0x17
 4166 1684 1D       		.byte	0x1d
 4167 1685 B2120000 		.4byte	0x12b2
 4168 1689 00       		.byte	0
 4169 168a 14       		.uleb128 0x14
 4170 168b 72647900 		.ascii	"rdy\000"
 4171 168f 17       		.byte	0x17
 4172 1690 1E       		.byte	0x1e
 4173 1691 B2120000 		.4byte	0x12b2
 4174 1695 01       		.byte	0x1
 4175 1696 15       		.uleb128 0x15
 4176 1697 15260000 		.4byte	.LASF484
 4177 169b 17       		.byte	0x17
 4178 169c 1F       		.byte	0x1f
 4179 169d A3160000 		.4byte	0x16a3
 4180 16a1 04       		.byte	0x4
 4181 16a2 00       		.byte	0
 4182 16a3 0D       		.uleb128 0xd
 4183 16a4 0E160000 		.4byte	0x160e
 4184 16a8 B3160000 		.4byte	0x16b3
 4185 16ac 0E       		.uleb128 0xe
 4186 16ad B2000000 		.4byte	0xb2
 4187 16b1 03       		.byte	0x3
 4188 16b2 00       		.byte	0
 4189 16b3 1F       		.uleb128 0x1f
 4190 16b4 B3050000 		.4byte	.LASF485
 4191 16b8 80       		.byte	0x80
 4192 16b9 17       		.byte	0x17
 4193 16ba 23       		.byte	0x23
 4194 16bb 8A170000 		.4byte	0x178a
 4195 16bf 15       		.uleb128 0x15
 4196 16c0 660A0000 		.4byte	.LASF486
 4197 16c4 17       		.byte	0x17
 4198 16c5 24       		.byte	0x24
 4199 16c6 25000000 		.4byte	0x25
 4200 16ca 00       		.byte	0
 4201 16cb 15       		.uleb128 0x15
 4202 16cc DB180000 		.4byte	.LASF487
 4203 16d0 17       		.byte	0x17
 4204 16d1 24       		.byte	0x24
ARM GAS  C:\Users\yomat\AppData\Local\Temp\cc0omv11.s 			page 155


 4205 16d2 25000000 		.4byte	0x25
 4206 16d6 08       		.byte	0x8
 4207 16d7 15       		.uleb128 0x15
 4208 16d8 9D240000 		.4byte	.LASF488
 4209 16dc 17       		.byte	0x17
 4210 16dd 25       		.byte	0x25
 4211 16de 25000000 		.4byte	0x25
 4212 16e2 10       		.byte	0x10
 4213 16e3 15       		.uleb128 0x15
 4214 16e4 3A1D0000 		.4byte	.LASF489
 4215 16e8 17       		.byte	0x17
 4216 16e9 25       		.byte	0x25
 4217 16ea 25000000 		.4byte	0x25
 4218 16ee 18       		.byte	0x18
 4219 16ef 15       		.uleb128 0x15
 4220 16f0 730B0000 		.4byte	.LASF490
 4221 16f4 17       		.byte	0x17
 4222 16f5 26       		.byte	0x26
 4223 16f6 D6000000 		.4byte	0xd6
 4224 16fa 20       		.byte	0x20
 4225 16fb 15       		.uleb128 0x15
 4226 16fc FF070000 		.4byte	.LASF491
 4227 1700 17       		.byte	0x17
 4228 1701 27       		.byte	0x27
 4229 1702 CC100000 		.4byte	0x10cc
 4230 1706 22       		.byte	0x22
 4231 1707 15       		.uleb128 0x15
 4232 1708 7B210000 		.4byte	.LASF492
 4233 170c 17       		.byte	0x17
 4234 170d 28       		.byte	0x28
 4235 170e 25000000 		.4byte	0x25
 4236 1712 28       		.byte	0x28
 4237 1713 15       		.uleb128 0x15
 4238 1714 0A170000 		.4byte	.LASF493
 4239 1718 17       		.byte	0x17
 4240 1719 28       		.byte	0x28
 4241 171a 25000000 		.4byte	0x25
 4242 171e 30       		.byte	0x30
 4243 171f 15       		.uleb128 0x15
 4244 1720 AA000000 		.4byte	.LASF494
 4245 1724 17       		.byte	0x17
 4246 1725 29       		.byte	0x29
 4247 1726 25000000 		.4byte	0x25
 4248 172a 38       		.byte	0x38
 4249 172b 15       		.uleb128 0x15
 4250 172c 0F1E0000 		.4byte	.LASF495
 4251 1730 17       		.byte	0x17
 4252 1731 29       		.byte	0x29
 4253 1732 25000000 		.4byte	0x25
 4254 1736 40       		.byte	0x40
 4255 1737 15       		.uleb128 0x15
 4256 1738 28110000 		.4byte	.LASF496
 4257 173c 17       		.byte	0x17
 4258 173d 2A       		.byte	0x2a
 4259 173e 25000000 		.4byte	0x25
 4260 1742 48       		.byte	0x48
 4261 1743 15       		.uleb128 0x15
ARM GAS  C:\Users\yomat\AppData\Local\Temp\cc0omv11.s 			page 156


 4262 1744 C4170000 		.4byte	.LASF497
 4263 1748 17       		.byte	0x17
 4264 1749 2A       		.byte	0x2a
 4265 174a 25000000 		.4byte	0x25
 4266 174e 50       		.byte	0x50
 4267 174f 15       		.uleb128 0x15
 4268 1750 73210000 		.4byte	.LASF498
 4269 1754 17       		.byte	0x17
 4270 1755 2B       		.byte	0x2b
 4271 1756 25000000 		.4byte	0x25
 4272 175a 58       		.byte	0x58
 4273 175b 15       		.uleb128 0x15
 4274 175c 421E0000 		.4byte	.LASF499
 4275 1760 17       		.byte	0x17
 4276 1761 2B       		.byte	0x2b
 4277 1762 25000000 		.4byte	0x25
 4278 1766 60       		.byte	0x60
 4279 1767 15       		.uleb128 0x15
 4280 1768 DF0D0000 		.4byte	.LASF500
 4281 176c 17       		.byte	0x17
 4282 176d 2C       		.byte	0x2c
 4283 176e 25000000 		.4byte	0x25
 4284 1772 68       		.byte	0x68
 4285 1773 15       		.uleb128 0x15
 4286 1774 100A0000 		.4byte	.LASF501
 4287 1778 17       		.byte	0x17
 4288 1779 2C       		.byte	0x2c
 4289 177a 25000000 		.4byte	0x25
 4290 177e 70       		.byte	0x70
 4291 177f 14       		.uleb128 0x14
 4292 1780 5200     		.ascii	"R\000"
 4293 1782 17       		.byte	0x17
 4294 1783 2D       		.byte	0x2d
 4295 1784 25000000 		.4byte	0x25
 4296 1788 78       		.byte	0x78
 4297 1789 00       		.byte	0
 4298 178a 22       		.uleb128 0x22
 4299 178b 600B0000 		.4byte	.LASF502
 4300 178f 03       		.byte	0x3
 4301 1790 6503     		.2byte	0x365
 4302 1792 03       		.byte	0x3
 4303 1793 22       		.uleb128 0x22
 4304 1794 290B0000 		.4byte	.LASF503
 4305 1798 03       		.byte	0x3
 4306 1799 7003     		.2byte	0x370
 4307 179b 03       		.byte	0x3
 4308 179c 23       		.uleb128 0x23
 4309 179d 9B090000 		.4byte	.LASF504
 4310 17a1 05       		.byte	0x5
 4311 17a2 0E03     		.2byte	0x30e
 4312 17a4 EC000000 		.4byte	0xec
 4313 17a8 03       		.byte	0x3
 4314 17a9 BA170000 		.4byte	0x17ba
 4315 17ad 24       		.uleb128 0x24
 4316 17ae F7230000 		.4byte	.LASF506
 4317 17b2 05       		.byte	0x5
 4318 17b3 0E03     		.2byte	0x30e
ARM GAS  C:\Users\yomat\AppData\Local\Temp\cc0omv11.s 			page 157


 4319 17b5 BA170000 		.4byte	0x17ba
 4320 17b9 00       		.byte	0
 4321 17ba 1A       		.uleb128 0x1a
 4322 17bb 04       		.byte	0x4
 4323 17bc C0170000 		.4byte	0x17c0
 4324 17c0 12       		.uleb128 0x12
 4325 17c1 910C0000 		.4byte	0xc91
 4326 17c5 23       		.uleb128 0x23
 4327 17c6 37190000 		.4byte	.LASF505
 4328 17ca 05       		.byte	0x5
 4329 17cb FB02     		.2byte	0x2fb
 4330 17cd EC000000 		.4byte	0xec
 4331 17d1 03       		.byte	0x3
 4332 17d2 E3170000 		.4byte	0x17e3
 4333 17d6 24       		.uleb128 0x24
 4334 17d7 F7230000 		.4byte	.LASF506
 4335 17db 05       		.byte	0x5
 4336 17dc FB02     		.2byte	0x2fb
 4337 17de BA170000 		.4byte	0x17ba
 4338 17e2 00       		.byte	0
 4339 17e3 23       		.uleb128 0x23
 4340 17e4 3D250000 		.4byte	.LASF507
 4341 17e8 05       		.byte	0x5
 4342 17e9 2103     		.2byte	0x321
 4343 17eb 22110000 		.4byte	0x1122
 4344 17ef 03       		.byte	0x3
 4345 17f0 01180000 		.4byte	0x1801
 4346 17f4 24       		.uleb128 0x24
 4347 17f5 F7230000 		.4byte	.LASF506
 4348 17f9 05       		.byte	0x5
 4349 17fa 2103     		.2byte	0x321
 4350 17fc BA170000 		.4byte	0x17ba
 4351 1800 00       		.byte	0
 4352 1801 23       		.uleb128 0x23
 4353 1802 09000000 		.4byte	.LASF508
 4354 1806 11       		.byte	0x11
 4355 1807 FF05     		.2byte	0x5ff
 4356 1809 22110000 		.4byte	0x1122
 4357 180d 03       		.byte	0x3
 4358 180e 1F180000 		.4byte	0x181f
 4359 1812 24       		.uleb128 0x24
 4360 1813 F7230000 		.4byte	.LASF506
 4361 1817 11       		.byte	0x11
 4362 1818 FF05     		.2byte	0x5ff
 4363 181a BA170000 		.4byte	0x17ba
 4364 181e 00       		.byte	0
 4365 181f 25       		.uleb128 0x25
 4366 1820 45050000 		.4byte	.LASF510
 4367 1824 02       		.byte	0x2
 4368 1825 8D06     		.2byte	0x68d
 4369 1827 03       		.byte	0x3
 4370 1828 39180000 		.4byte	0x1839
 4371 182c 24       		.uleb128 0x24
 4372 182d 2A060000 		.4byte	.LASF509
 4373 1831 02       		.byte	0x2
 4374 1832 8D06     		.2byte	0x68d
 4375 1834 B8040000 		.4byte	0x4b8
ARM GAS  C:\Users\yomat\AppData\Local\Temp\cc0omv11.s 			page 158


 4376 1838 00       		.byte	0
 4377 1839 25       		.uleb128 0x25
 4378 183a B6120000 		.4byte	.LASF511
 4379 183e 02       		.byte	0x2
 4380 183f B106     		.2byte	0x6b1
 4381 1841 03       		.byte	0x3
 4382 1842 53180000 		.4byte	0x1853
 4383 1846 24       		.uleb128 0x24
 4384 1847 2A060000 		.4byte	.LASF509
 4385 184b 02       		.byte	0x2
 4386 184c B106     		.2byte	0x6b1
 4387 184e B8040000 		.4byte	0x4b8
 4388 1852 00       		.byte	0
 4389 1853 25       		.uleb128 0x25
 4390 1854 CB250000 		.4byte	.LASF512
 4391 1858 04       		.byte	0x4
 4392 1859 2503     		.2byte	0x325
 4393 185b 03       		.byte	0x3
 4394 185c 85180000 		.4byte	0x1885
 4395 1860 24       		.uleb128 0x24
 4396 1861 F7230000 		.4byte	.LASF506
 4397 1865 04       		.byte	0x4
 4398 1866 2503     		.2byte	0x325
 4399 1868 85180000 		.4byte	0x1885
 4400 186c 24       		.uleb128 0x24
 4401 186d E2160000 		.4byte	.LASF513
 4402 1871 04       		.byte	0x4
 4403 1872 2503     		.2byte	0x325
 4404 1874 EC000000 		.4byte	0xec
 4405 1878 24       		.uleb128 0x24
 4406 1879 87050000 		.4byte	.LASF459
 4407 187d 04       		.byte	0x4
 4408 187e 2503     		.2byte	0x325
 4409 1880 EC000000 		.4byte	0xec
 4410 1884 00       		.byte	0
 4411 1885 1A       		.uleb128 0x1a
 4412 1886 04       		.byte	0x4
 4413 1887 790C0000 		.4byte	0xc79
 4414 188b 26       		.uleb128 0x26
 4415 188c A1050000 		.4byte	.LASF562
 4416 1890 18       		.byte	0x18
 4417 1891 FB01     		.2byte	0x1fb
 4418 1893 22110000 		.4byte	0x1122
 4419 1897 03       		.byte	0x3
 4420 1898 27       		.uleb128 0x27
 4421 1899 C70D0000 		.4byte	.LASF514
 4422 189d 01       		.byte	0x1
 4423 189e 64       		.byte	0x64
 4424 189f 00000000 		.4byte	.LFB694
 4425 18a3 20000000 		.4byte	.LFE694-.LFB694
 4426 18a7 01       		.uleb128 0x1
 4427 18a8 9C       		.byte	0x9c
 4428 18a9 CC180000 		.4byte	0x18cc
 4429 18ad 28       		.uleb128 0x28
 4430 18ae 10000000 		.4byte	.LVL0
 4431 18b2 CF210000 		.4byte	0x21cf
 4432 18b6 29       		.uleb128 0x29
ARM GAS  C:\Users\yomat\AppData\Local\Temp\cc0omv11.s 			page 159


 4433 18b7 01       		.uleb128 0x1
 4434 18b8 50       		.byte	0x50
 4435 18b9 05       		.uleb128 0x5
 4436 18ba 0C       		.byte	0xc
 4437 18bb 00006340 		.4byte	0x40630000
 4438 18bf 29       		.uleb128 0x29
 4439 18c0 01       		.uleb128 0x1
 4440 18c1 51       		.byte	0x51
 4441 18c2 02       		.uleb128 0x2
 4442 18c3 74       		.byte	0x74
 4443 18c4 28       		.sleb128 40
 4444 18c5 29       		.uleb128 0x29
 4445 18c6 01       		.uleb128 0x1
 4446 18c7 52       		.byte	0x52
 4447 18c8 01       		.uleb128 0x1
 4448 18c9 34       		.byte	0x34
 4449 18ca 00       		.byte	0
 4450 18cb 00       		.byte	0
 4451 18cc 27       		.uleb128 0x27
 4452 18cd 50130000 		.4byte	.LASF515
 4453 18d1 01       		.byte	0x1
 4454 18d2 5C       		.byte	0x5c
 4455 18d3 00000000 		.4byte	.LFB693
 4456 18d7 1C000000 		.4byte	.LFE693-.LFB693
 4457 18db 01       		.uleb128 0x1
 4458 18dc 9C       		.byte	0x9c
 4459 18dd 00190000 		.4byte	0x1900
 4460 18e1 28       		.uleb128 0x28
 4461 18e2 0E000000 		.4byte	.LVL1
 4462 18e6 CF210000 		.4byte	0x21cf
 4463 18ea 29       		.uleb128 0x29
 4464 18eb 01       		.uleb128 0x1
 4465 18ec 50       		.byte	0x50
 4466 18ed 05       		.uleb128 0x5
 4467 18ee 0C       		.byte	0xc
 4468 18ef 00006240 		.4byte	0x40620000
 4469 18f3 29       		.uleb128 0x29
 4470 18f4 01       		.uleb128 0x1
 4471 18f5 51       		.byte	0x51
 4472 18f6 02       		.uleb128 0x2
 4473 18f7 74       		.byte	0x74
 4474 18f8 04       		.sleb128 4
 4475 18f9 29       		.uleb128 0x29
 4476 18fa 01       		.uleb128 0x1
 4477 18fb 52       		.byte	0x52
 4478 18fc 01       		.uleb128 0x1
 4479 18fd 34       		.byte	0x34
 4480 18fe 00       		.byte	0
 4481 18ff 00       		.byte	0
 4482 1900 2A       		.uleb128 0x2a
 4483 1901 24080000 		.4byte	.LASF563
 4484 1905 01       		.byte	0x1
 4485 1906 B1       		.byte	0xb1
 4486 1907 22110000 		.4byte	0x1122
 4487 190b 00000000 		.4byte	.LFB698
 4488 190f E8020000 		.4byte	.LFE698-.LFB698
 4489 1913 01       		.uleb128 0x1
ARM GAS  C:\Users\yomat\AppData\Local\Temp\cc0omv11.s 			page 160


 4490 1914 9C       		.byte	0x9c
 4491 1915 201A0000 		.4byte	0x1a20
 4492 1919 2B       		.uleb128 0x2b
 4493 191a CA240000 		.4byte	.LASF519
 4494 191e 01       		.byte	0x1
 4495 191f B1       		.byte	0xb1
 4496 1920 67160000 		.4byte	0x1667
 4497 1924 00000000 		.4byte	.LLST0
 4498 1928 2C       		.uleb128 0x2c
 4499 1929 B7100000 		.4byte	.LASF516
 4500 192d 01       		.byte	0x1
 4501 192e B3       		.byte	0xb3
 4502 192f 22110000 		.4byte	0x1122
 4503 1933 21000000 		.4byte	.LLST1
 4504 1937 2C       		.uleb128 0x2c
 4505 1938 15260000 		.4byte	.LASF484
 4506 193c 01       		.byte	0x1
 4507 193d B4       		.byte	0xb4
 4508 193e 201A0000 		.4byte	0x1a20
 4509 1942 58000000 		.4byte	.LLST2
 4510 1946 2C       		.uleb128 0x2c
 4511 1947 8C020000 		.4byte	.LASF517
 4512 194b 01       		.byte	0x1
 4513 194c B5       		.byte	0xb5
 4514 194d 261A0000 		.4byte	0x1a26
 4515 1951 7A000000 		.4byte	.LLST3
 4516 1955 2D       		.uleb128 0x2d
 4517 1956 42010000 		.4byte	.LBB63
 4518 195a 60010000 		.4byte	.LBE63-.LBB63
 4519 195e 2E       		.uleb128 0x2e
 4520 195f A2040000 		.4byte	.LASF518
 4521 1963 01       		.byte	0x1
 4522 1964 E8       		.byte	0xe8
 4523 1965 85150000 		.4byte	0x1585
 4524 1969 03       		.uleb128 0x3
 4525 196a 91       		.byte	0x91
 4526 196b AC7F     		.sleb128 -84
 4527 196d 2F       		.uleb128 0x2f
 4528 196e 4A010000 		.4byte	.LVL18
 4529 1972 DA210000 		.4byte	0x21da
 4530 1976 8A190000 		.4byte	0x198a
 4531 197a 29       		.uleb128 0x29
 4532 197b 01       		.uleb128 0x1
 4533 197c 50       		.byte	0x50
 4534 197d 05       		.uleb128 0x5
 4535 197e 03       		.byte	0x3
 4536 197f 00000000 		.4byte	.LC0
 4537 1983 29       		.uleb128 0x29
 4538 1984 01       		.uleb128 0x1
 4539 1985 51       		.byte	0x51
 4540 1986 02       		.uleb128 0x2
 4541 1987 74       		.byte	0x74
 4542 1988 00       		.sleb128 0
 4543 1989 00       		.byte	0
 4544 198a 2F       		.uleb128 0x2f
 4545 198b 62010000 		.4byte	.LVL20
 4546 198f DA210000 		.4byte	0x21da
ARM GAS  C:\Users\yomat\AppData\Local\Temp\cc0omv11.s 			page 161


 4547 1993 A1190000 		.4byte	0x19a1
 4548 1997 29       		.uleb128 0x29
 4549 1998 01       		.uleb128 0x1
 4550 1999 50       		.byte	0x50
 4551 199a 05       		.uleb128 0x5
 4552 199b 03       		.byte	0x3
 4553 199c 08000000 		.4byte	.LC1
 4554 19a0 00       		.byte	0
 4555 19a1 2F       		.uleb128 0x2f
 4556 19a2 16020000 		.4byte	.LVL31
 4557 19a6 DA210000 		.4byte	0x21da
 4558 19aa CD190000 		.4byte	0x19cd
 4559 19ae 29       		.uleb128 0x29
 4560 19af 01       		.uleb128 0x1
 4561 19b0 50       		.byte	0x50
 4562 19b1 02       		.uleb128 0x2
 4563 19b2 75       		.byte	0x75
 4564 19b3 00       		.sleb128 0
 4565 19b4 29       		.uleb128 0x29
 4566 19b5 02       		.uleb128 0x2
 4567 19b6 7D       		.byte	0x7d
 4568 19b7 00       		.sleb128 0
 4569 19b8 03       		.uleb128 0x3
 4570 19b9 F5       		.byte	0xf5
 4571 19ba 0A       		.uleb128 0xa
 4572 19bb 25       		.uleb128 0x25
 4573 19bc 29       		.uleb128 0x29
 4574 19bd 02       		.uleb128 0x2
 4575 19be 7D       		.byte	0x7d
 4576 19bf 08       		.sleb128 8
 4577 19c0 03       		.uleb128 0x3
 4578 19c1 F5       		.byte	0xf5
 4579 19c2 50       		.uleb128 0x50
 4580 19c3 25       		.uleb128 0x25
 4581 19c4 29       		.uleb128 0x29
 4582 19c5 02       		.uleb128 0x2
 4583 19c6 7D       		.byte	0x7d
 4584 19c7 10       		.sleb128 16
 4585 19c8 03       		.uleb128 0x3
 4586 19c9 F5       		.byte	0xf5
 4587 19ca 52       		.uleb128 0x52
 4588 19cb 25       		.uleb128 0x25
 4589 19cc 00       		.byte	0
 4590 19cd 2F       		.uleb128 0x2f
 4591 19ce 38020000 		.4byte	.LVL32
 4592 19d2 DA210000 		.4byte	0x21da
 4593 19d6 E1190000 		.4byte	0x19e1
 4594 19da 29       		.uleb128 0x29
 4595 19db 01       		.uleb128 0x1
 4596 19dc 50       		.byte	0x50
 4597 19dd 02       		.uleb128 0x2
 4598 19de 75       		.byte	0x75
 4599 19df 00       		.sleb128 0
 4600 19e0 00       		.byte	0
 4601 19e1 2F       		.uleb128 0x2f
 4602 19e2 5A020000 		.4byte	.LVL35
 4603 19e6 DA210000 		.4byte	0x21da
ARM GAS  C:\Users\yomat\AppData\Local\Temp\cc0omv11.s 			page 162


 4604 19ea F8190000 		.4byte	0x19f8
 4605 19ee 29       		.uleb128 0x29
 4606 19ef 01       		.uleb128 0x1
 4607 19f0 50       		.byte	0x50
 4608 19f1 05       		.uleb128 0x5
 4609 19f2 03       		.byte	0x3
 4610 19f3 20000000 		.4byte	.LC3
 4611 19f7 00       		.byte	0
 4612 19f8 2F       		.uleb128 0x2f
 4613 19f9 96020000 		.4byte	.LVL39
 4614 19fd E5210000 		.4byte	0x21e5
 4615 1a01 0D1A0000 		.4byte	0x1a0d
 4616 1a05 29       		.uleb128 0x29
 4617 1a06 01       		.uleb128 0x1
 4618 1a07 50       		.byte	0x50
 4619 1a08 03       		.uleb128 0x3
 4620 1a09 91       		.byte	0x91
 4621 1a0a AC7F     		.sleb128 -84
 4622 1a0c 00       		.byte	0
 4623 1a0d 28       		.uleb128 0x28
 4624 1a0e 9E020000 		.4byte	.LVL40
 4625 1a12 F0210000 		.4byte	0x21f0
 4626 1a16 29       		.uleb128 0x29
 4627 1a17 01       		.uleb128 0x1
 4628 1a18 51       		.byte	0x51
 4629 1a19 03       		.uleb128 0x3
 4630 1a1a 91       		.byte	0x91
 4631 1a1b AC7F     		.sleb128 -84
 4632 1a1d 00       		.byte	0
 4633 1a1e 00       		.byte	0
 4634 1a1f 00       		.byte	0
 4635 1a20 1A       		.uleb128 0x1a
 4636 1a21 04       		.byte	0x4
 4637 1a22 0E160000 		.4byte	0x160e
 4638 1a26 1A       		.uleb128 0x1a
 4639 1a27 04       		.byte	0x4
 4640 1a28 B3160000 		.4byte	0x16b3
 4641 1a2c 30       		.uleb128 0x30
 4642 1a2d DD190000 		.4byte	.LASF522
 4643 1a31 01       		.byte	0x1
 4644 1a32 6B       		.byte	0x6b
 4645 1a33 00000000 		.4byte	.LFB695
 4646 1a37 58010000 		.4byte	.LFE695-.LFB695
 4647 1a3b 01       		.uleb128 0x1
 4648 1a3c 9C       		.byte	0x9c
 4649 1a3d 871C0000 		.4byte	0x1c87
 4650 1a41 2B       		.uleb128 0x2b
 4651 1a42 CA240000 		.4byte	.LASF519
 4652 1a46 01       		.byte	0x1
 4653 1a47 6B       		.byte	0x6b
 4654 1a48 67160000 		.4byte	0x1667
 4655 1a4c C1000000 		.4byte	.LLST4
 4656 1a50 2E       		.uleb128 0x2e
 4657 1a51 97240000 		.4byte	.LASF520
 4658 1a55 01       		.byte	0x1
 4659 1a56 6D       		.byte	0x6d
 4660 1a57 EC000000 		.4byte	0xec
ARM GAS  C:\Users\yomat\AppData\Local\Temp\cc0omv11.s 			page 163


 4661 1a5b 02       		.uleb128 0x2
 4662 1a5c 91       		.byte	0x91
 4663 1a5d 74       		.sleb128 -12
 4664 1a5e 2E       		.uleb128 0x2e
 4665 1a5f A21D0000 		.4byte	.LASF521
 4666 1a63 01       		.byte	0x1
 4667 1a64 6E       		.byte	0x6e
 4668 1a65 EC000000 		.4byte	0xec
 4669 1a69 02       		.uleb128 0x2
 4670 1a6a 91       		.byte	0x91
 4671 1a6b 70       		.sleb128 -16
 4672 1a6c 31       		.uleb128 0x31
 4673 1a6d 39180000 		.4byte	0x1839
 4674 1a71 1A000000 		.4byte	.LBB64
 4675 1a75 20000000 		.4byte	.LBE64-.LBB64
 4676 1a79 01       		.byte	0x1
 4677 1a7a 72       		.byte	0x72
 4678 1a7b A91A0000 		.4byte	0x1aa9
 4679 1a7f 32       		.uleb128 0x32
 4680 1a80 46180000 		.4byte	0x1846
 4681 1a84 14010000 		.4byte	.LLST5
 4682 1a88 33       		.uleb128 0x33
 4683 1a89 93170000 		.4byte	0x1793
 4684 1a8d 32000000 		.4byte	.LBB66
 4685 1a91 04000000 		.4byte	.LBE66-.LBB66
 4686 1a95 02       		.byte	0x2
 4687 1a96 B606     		.2byte	0x6b6
 4688 1a98 33       		.uleb128 0x33
 4689 1a99 8A170000 		.4byte	0x178a
 4690 1a9d 36000000 		.4byte	.LBB68
 4691 1aa1 04000000 		.4byte	.LBE68-.LBB68
 4692 1aa5 02       		.byte	0x2
 4693 1aa6 B706     		.2byte	0x6b7
 4694 1aa8 00       		.byte	0
 4695 1aa9 31       		.uleb128 0x31
 4696 1aaa 1F180000 		.4byte	0x181f
 4697 1aae 4C000000 		.4byte	.LBB70
 4698 1ab2 16000000 		.4byte	.LBE70-.LBB70
 4699 1ab6 01       		.byte	0x1
 4700 1ab7 74       		.byte	0x74
 4701 1ab8 C61A0000 		.4byte	0x1ac6
 4702 1abc 32       		.uleb128 0x32
 4703 1abd 2C180000 		.4byte	0x182c
 4704 1ac1 27010000 		.4byte	.LLST6
 4705 1ac5 00       		.byte	0
 4706 1ac6 31       		.uleb128 0x31
 4707 1ac7 39180000 		.4byte	0x1839
 4708 1acb 7A000000 		.4byte	.LBB72
 4709 1acf 20000000 		.4byte	.LBE72-.LBB72
 4710 1ad3 01       		.byte	0x1
 4711 1ad4 79       		.byte	0x79
 4712 1ad5 031B0000 		.4byte	0x1b03
 4713 1ad9 32       		.uleb128 0x32
 4714 1ada 46180000 		.4byte	0x1846
 4715 1ade 3A010000 		.4byte	.LLST7
 4716 1ae2 33       		.uleb128 0x33
 4717 1ae3 93170000 		.4byte	0x1793
ARM GAS  C:\Users\yomat\AppData\Local\Temp\cc0omv11.s 			page 164


 4718 1ae7 92000000 		.4byte	.LBB74
 4719 1aeb 04000000 		.4byte	.LBE74-.LBB74
 4720 1aef 02       		.byte	0x2
 4721 1af0 B606     		.2byte	0x6b6
 4722 1af2 33       		.uleb128 0x33
 4723 1af3 8A170000 		.4byte	0x178a
 4724 1af7 96000000 		.4byte	.LBB76
 4725 1afb 04000000 		.4byte	.LBE76-.LBB76
 4726 1aff 02       		.byte	0x2
 4727 1b00 B706     		.2byte	0x6b7
 4728 1b02 00       		.byte	0
 4729 1b03 31       		.uleb128 0x31
 4730 1b04 1F180000 		.4byte	0x181f
 4731 1b08 AC000000 		.4byte	.LBB78
 4732 1b0c 16000000 		.4byte	.LBE78-.LBB78
 4733 1b10 01       		.byte	0x1
 4734 1b11 7B       		.byte	0x7b
 4735 1b12 201B0000 		.4byte	0x1b20
 4736 1b16 32       		.uleb128 0x32
 4737 1b17 2C180000 		.4byte	0x182c
 4738 1b1b 4D010000 		.4byte	.LLST8
 4739 1b1f 00       		.byte	0
 4740 1b20 31       		.uleb128 0x31
 4741 1b21 39180000 		.4byte	0x1839
 4742 1b25 D6000000 		.4byte	.LBB80
 4743 1b29 20000000 		.4byte	.LBE80-.LBB80
 4744 1b2d 01       		.byte	0x1
 4745 1b2e 80       		.byte	0x80
 4746 1b2f 5D1B0000 		.4byte	0x1b5d
 4747 1b33 32       		.uleb128 0x32
 4748 1b34 46180000 		.4byte	0x1846
 4749 1b38 60010000 		.4byte	.LLST9
 4750 1b3c 33       		.uleb128 0x33
 4751 1b3d 93170000 		.4byte	0x1793
 4752 1b41 EE000000 		.4byte	.LBB82
 4753 1b45 04000000 		.4byte	.LBE82-.LBB82
 4754 1b49 02       		.byte	0x2
 4755 1b4a B606     		.2byte	0x6b6
 4756 1b4c 33       		.uleb128 0x33
 4757 1b4d 8A170000 		.4byte	0x178a
 4758 1b51 F2000000 		.4byte	.LBB84
 4759 1b55 04000000 		.4byte	.LBE84-.LBB84
 4760 1b59 02       		.byte	0x2
 4761 1b5a B706     		.2byte	0x6b7
 4762 1b5c 00       		.byte	0
 4763 1b5d 31       		.uleb128 0x31
 4764 1b5e 39180000 		.4byte	0x1839
 4765 1b62 08010000 		.4byte	.LBB86
 4766 1b66 20000000 		.4byte	.LBE86-.LBB86
 4767 1b6a 01       		.byte	0x1
 4768 1b6b 82       		.byte	0x82
 4769 1b6c 9A1B0000 		.4byte	0x1b9a
 4770 1b70 32       		.uleb128 0x32
 4771 1b71 46180000 		.4byte	0x1846
 4772 1b75 73010000 		.4byte	.LLST10
 4773 1b79 33       		.uleb128 0x33
 4774 1b7a 93170000 		.4byte	0x1793
ARM GAS  C:\Users\yomat\AppData\Local\Temp\cc0omv11.s 			page 165


 4775 1b7e 20010000 		.4byte	.LBB88
 4776 1b82 04000000 		.4byte	.LBE88-.LBB88
 4777 1b86 02       		.byte	0x2
 4778 1b87 B606     		.2byte	0x6b6
 4779 1b89 33       		.uleb128 0x33
 4780 1b8a 8A170000 		.4byte	0x178a
 4781 1b8e 24010000 		.4byte	.LBB90
 4782 1b92 04000000 		.4byte	.LBE90-.LBB90
 4783 1b96 02       		.byte	0x2
 4784 1b97 B706     		.2byte	0x6b7
 4785 1b99 00       		.byte	0
 4786 1b9a 2F       		.uleb128 0x2f
 4787 1b9b 46000000 		.4byte	.LVL49
 4788 1b9f FB210000 		.4byte	0x21fb
 4789 1ba3 C21B0000 		.4byte	0x1bc2
 4790 1ba7 29       		.uleb128 0x29
 4791 1ba8 01       		.uleb128 0x1
 4792 1ba9 50       		.byte	0x50
 4793 1baa 05       		.uleb128 0x5
 4794 1bab 0C       		.byte	0xc
 4795 1bac 00006340 		.4byte	0x40630000
 4796 1bb0 29       		.uleb128 0x29
 4797 1bb1 01       		.uleb128 0x1
 4798 1bb2 51       		.byte	0x51
 4799 1bb3 02       		.uleb128 0x2
 4800 1bb4 08       		.byte	0x8
 4801 1bb5 23       		.byte	0x23
 4802 1bb6 29       		.uleb128 0x29
 4803 1bb7 01       		.uleb128 0x1
 4804 1bb8 52       		.byte	0x52
 4805 1bb9 02       		.uleb128 0x2
 4806 1bba 7D       		.byte	0x7d
 4807 1bbb 00       		.sleb128 0
 4808 1bbc 29       		.uleb128 0x29
 4809 1bbd 01       		.uleb128 0x1
 4810 1bbe 53       		.byte	0x53
 4811 1bbf 01       		.uleb128 0x1
 4812 1bc0 33       		.byte	0x33
 4813 1bc1 00       		.byte	0
 4814 1bc2 2F       		.uleb128 0x2f
 4815 1bc3 6E000000 		.4byte	.LVL53
 4816 1bc7 FB210000 		.4byte	0x21fb
 4817 1bcb EA1B0000 		.4byte	0x1bea
 4818 1bcf 29       		.uleb128 0x29
 4819 1bd0 01       		.uleb128 0x1
 4820 1bd1 50       		.byte	0x50
 4821 1bd2 05       		.uleb128 0x5
 4822 1bd3 0C       		.byte	0xc
 4823 1bd4 00006240 		.4byte	0x40620000
 4824 1bd8 29       		.uleb128 0x29
 4825 1bd9 01       		.uleb128 0x1
 4826 1bda 51       		.byte	0x51
 4827 1bdb 02       		.uleb128 0x2
 4828 1bdc 08       		.byte	0x8
 4829 1bdd 23       		.byte	0x23
 4830 1bde 29       		.uleb128 0x29
 4831 1bdf 01       		.uleb128 0x1
ARM GAS  C:\Users\yomat\AppData\Local\Temp\cc0omv11.s 			page 166


 4832 1be0 52       		.byte	0x52
 4833 1be1 02       		.uleb128 0x2
 4834 1be2 91       		.byte	0x91
 4835 1be3 74       		.sleb128 -12
 4836 1be4 29       		.uleb128 0x29
 4837 1be5 01       		.uleb128 0x1
 4838 1be6 53       		.byte	0x53
 4839 1be7 01       		.uleb128 0x1
 4840 1be8 33       		.byte	0x33
 4841 1be9 00       		.byte	0
 4842 1bea 2F       		.uleb128 0x2f
 4843 1beb A6000000 		.4byte	.LVL59
 4844 1bef FB210000 		.4byte	0x21fb
 4845 1bf3 121C0000 		.4byte	0x1c12
 4846 1bf7 29       		.uleb128 0x29
 4847 1bf8 01       		.uleb128 0x1
 4848 1bf9 50       		.byte	0x50
 4849 1bfa 05       		.uleb128 0x5
 4850 1bfb 0C       		.byte	0xc
 4851 1bfc 00006240 		.4byte	0x40620000
 4852 1c00 29       		.uleb128 0x29
 4853 1c01 01       		.uleb128 0x1
 4854 1c02 51       		.byte	0x51
 4855 1c03 02       		.uleb128 0x2
 4856 1c04 08       		.byte	0x8
 4857 1c05 23       		.byte	0x23
 4858 1c06 29       		.uleb128 0x29
 4859 1c07 01       		.uleb128 0x1
 4860 1c08 52       		.byte	0x52
 4861 1c09 02       		.uleb128 0x2
 4862 1c0a 7D       		.byte	0x7d
 4863 1c0b 00       		.sleb128 0
 4864 1c0c 29       		.uleb128 0x29
 4865 1c0d 01       		.uleb128 0x1
 4866 1c0e 53       		.byte	0x53
 4867 1c0f 01       		.uleb128 0x1
 4868 1c10 33       		.byte	0x33
 4869 1c11 00       		.byte	0
 4870 1c12 2F       		.uleb128 0x2f
 4871 1c13 CE000000 		.4byte	.LVL63
 4872 1c17 FB210000 		.4byte	0x21fb
 4873 1c1b 3A1C0000 		.4byte	0x1c3a
 4874 1c1f 29       		.uleb128 0x29
 4875 1c20 01       		.uleb128 0x1
 4876 1c21 50       		.byte	0x50
 4877 1c22 05       		.uleb128 0x5
 4878 1c23 0C       		.byte	0xc
 4879 1c24 00006340 		.4byte	0x40630000
 4880 1c28 29       		.uleb128 0x29
 4881 1c29 01       		.uleb128 0x1
 4882 1c2a 51       		.byte	0x51
 4883 1c2b 02       		.uleb128 0x2
 4884 1c2c 08       		.byte	0x8
 4885 1c2d 23       		.byte	0x23
 4886 1c2e 29       		.uleb128 0x29
 4887 1c2f 01       		.uleb128 0x1
 4888 1c30 52       		.byte	0x52
ARM GAS  C:\Users\yomat\AppData\Local\Temp\cc0omv11.s 			page 167


 4889 1c31 02       		.uleb128 0x2
 4890 1c32 91       		.byte	0x91
 4891 1c33 74       		.sleb128 -12
 4892 1c34 29       		.uleb128 0x29
 4893 1c35 01       		.uleb128 0x1
 4894 1c36 53       		.byte	0x53
 4895 1c37 01       		.uleb128 0x1
 4896 1c38 33       		.byte	0x33
 4897 1c39 00       		.byte	0
 4898 1c3a 2F       		.uleb128 0x2f
 4899 1c3b 02010000 		.4byte	.LVL69
 4900 1c3f FB210000 		.4byte	0x21fb
 4901 1c43 621C0000 		.4byte	0x1c62
 4902 1c47 29       		.uleb128 0x29
 4903 1c48 01       		.uleb128 0x1
 4904 1c49 50       		.byte	0x50
 4905 1c4a 05       		.uleb128 0x5
 4906 1c4b 0C       		.byte	0xc
 4907 1c4c 00006240 		.4byte	0x40620000
 4908 1c50 29       		.uleb128 0x29
 4909 1c51 01       		.uleb128 0x1
 4910 1c52 51       		.byte	0x51
 4911 1c53 02       		.uleb128 0x2
 4912 1c54 08       		.byte	0x8
 4913 1c55 23       		.byte	0x23
 4914 1c56 29       		.uleb128 0x29
 4915 1c57 01       		.uleb128 0x1
 4916 1c58 52       		.byte	0x52
 4917 1c59 02       		.uleb128 0x2
 4918 1c5a 7D       		.byte	0x7d
 4919 1c5b 00       		.sleb128 0
 4920 1c5c 29       		.uleb128 0x29
 4921 1c5d 01       		.uleb128 0x1
 4922 1c5e 53       		.byte	0x53
 4923 1c5f 01       		.uleb128 0x1
 4924 1c60 33       		.byte	0x33
 4925 1c61 00       		.byte	0
 4926 1c62 28       		.uleb128 0x28
 4927 1c63 34010000 		.4byte	.LVL73
 4928 1c67 FB210000 		.4byte	0x21fb
 4929 1c6b 29       		.uleb128 0x29
 4930 1c6c 01       		.uleb128 0x1
 4931 1c6d 50       		.byte	0x50
 4932 1c6e 05       		.uleb128 0x5
 4933 1c6f 0C       		.byte	0xc
 4934 1c70 00006340 		.4byte	0x40630000
 4935 1c74 29       		.uleb128 0x29
 4936 1c75 01       		.uleb128 0x1
 4937 1c76 51       		.byte	0x51
 4938 1c77 02       		.uleb128 0x2
 4939 1c78 08       		.byte	0x8
 4940 1c79 23       		.byte	0x23
 4941 1c7a 29       		.uleb128 0x29
 4942 1c7b 01       		.uleb128 0x1
 4943 1c7c 52       		.byte	0x52
 4944 1c7d 02       		.uleb128 0x2
 4945 1c7e 7D       		.byte	0x7d
ARM GAS  C:\Users\yomat\AppData\Local\Temp\cc0omv11.s 			page 168


 4946 1c7f 00       		.sleb128 0
 4947 1c80 29       		.uleb128 0x29
 4948 1c81 01       		.uleb128 0x1
 4949 1c82 53       		.byte	0x53
 4950 1c83 01       		.uleb128 0x1
 4951 1c84 33       		.byte	0x33
 4952 1c85 00       		.byte	0
 4953 1c86 00       		.byte	0
 4954 1c87 30       		.uleb128 0x30
 4955 1c88 E70D0000 		.4byte	.LASF523
 4956 1c8c 01       		.byte	0x1
 4957 1c8d 8A       		.byte	0x8a
 4958 1c8e 00000000 		.4byte	.LFB696
 4959 1c92 20000000 		.4byte	.LFE696-.LFB696
 4960 1c96 01       		.uleb128 0x1
 4961 1c97 9C       		.byte	0x9c
 4962 1c98 C71C0000 		.4byte	0x1cc7
 4963 1c9c 2B       		.uleb128 0x2b
 4964 1c9d CA240000 		.4byte	.LASF519
 4965 1ca1 01       		.byte	0x1
 4966 1ca2 8A       		.byte	0x8a
 4967 1ca3 67160000 		.4byte	0x1667
 4968 1ca7 86010000 		.4byte	.LLST11
 4969 1cab 28       		.uleb128 0x28
 4970 1cac 12000000 		.4byte	.LVL76
 4971 1cb0 06220000 		.4byte	0x2206
 4972 1cb4 29       		.uleb128 0x29
 4973 1cb5 01       		.uleb128 0x1
 4974 1cb6 50       		.byte	0x50
 4975 1cb7 02       		.uleb128 0x2
 4976 1cb8 74       		.byte	0x74
 4977 1cb9 00       		.sleb128 0
 4978 1cba 29       		.uleb128 0x29
 4979 1cbb 01       		.uleb128 0x1
 4980 1cbc 51       		.byte	0x51
 4981 1cbd 01       		.uleb128 0x1
 4982 1cbe 30       		.byte	0x30
 4983 1cbf 29       		.uleb128 0x29
 4984 1cc0 01       		.uleb128 0x1
 4985 1cc1 52       		.byte	0x52
 4986 1cc2 02       		.uleb128 0x2
 4987 1cc3 08       		.byte	0x8
 4988 1cc4 80       		.byte	0x80
 4989 1cc5 00       		.byte	0
 4990 1cc6 00       		.byte	0
 4991 1cc7 34       		.uleb128 0x34
 4992 1cc8 4D190000 		.4byte	.LASF524
 4993 1ccc 01       		.byte	0x1
 4994 1ccd 90       		.byte	0x90
 4995 1cce 00000000 		.4byte	.LFB697
 4996 1cd2 50010000 		.4byte	.LFE697-.LFB697
 4997 1cd6 01       		.uleb128 0x1
 4998 1cd7 9C       		.byte	0x9c
 4999 1cd8 F21E0000 		.4byte	0x1ef2
 5000 1cdc 2B       		.uleb128 0x2b
 5001 1cdd CA240000 		.4byte	.LASF519
 5002 1ce1 01       		.byte	0x1
ARM GAS  C:\Users\yomat\AppData\Local\Temp\cc0omv11.s 			page 169


 5003 1ce2 90       		.byte	0x90
 5004 1ce3 67160000 		.4byte	0x1667
 5005 1ce7 A7010000 		.4byte	.LLST12
 5006 1ceb 2E       		.uleb128 0x2e
 5007 1cec 15260000 		.4byte	.LASF484
 5008 1cf0 01       		.byte	0x1
 5009 1cf1 92       		.byte	0x92
 5010 1cf2 EC000000 		.4byte	0xec
 5011 1cf6 02       		.uleb128 0x2
 5012 1cf7 91       		.byte	0x91
 5013 1cf8 6C       		.sleb128 -20
 5014 1cf9 31       		.uleb128 0x31
 5015 1cfa 53180000 		.4byte	0x1853
 5016 1cfe D6000000 		.4byte	.LBB92
 5017 1d02 06000000 		.4byte	.LBE92-.LBB92
 5018 1d06 01       		.byte	0x1
 5019 1d07 AD       		.byte	0xad
 5020 1d08 281D0000 		.4byte	0x1d28
 5021 1d0c 32       		.uleb128 0x32
 5022 1d0d 78180000 		.4byte	0x1878
 5023 1d11 C8010000 		.4byte	.LLST13
 5024 1d15 32       		.uleb128 0x32
 5025 1d16 6C180000 		.4byte	0x186c
 5026 1d1a DC010000 		.4byte	.LLST14
 5027 1d1e 32       		.uleb128 0x32
 5028 1d1f 60180000 		.4byte	0x1860
 5029 1d23 F0010000 		.4byte	.LLST15
 5030 1d27 00       		.byte	0
 5031 1d28 2F       		.uleb128 0x2f
 5032 1d29 10000000 		.4byte	.LVL79
 5033 1d2d 0F220000 		.4byte	0x220f
 5034 1d31 3F1D0000 		.4byte	0x1d3f
 5035 1d35 29       		.uleb128 0x29
 5036 1d36 01       		.uleb128 0x1
 5037 1d37 50       		.byte	0x50
 5038 1d38 05       		.uleb128 0x5
 5039 1d39 03       		.byte	0x3
 5040 1d3a 38000000 		.4byte	.LC6
 5041 1d3e 00       		.byte	0
 5042 1d3f 2F       		.uleb128 0x2f
 5043 1d40 2C000000 		.4byte	.LVL82
 5044 1d44 DA210000 		.4byte	0x21da
 5045 1d48 561D0000 		.4byte	0x1d56
 5046 1d4c 29       		.uleb128 0x29
 5047 1d4d 01       		.uleb128 0x1
 5048 1d4e 50       		.byte	0x50
 5049 1d4f 05       		.uleb128 0x5
 5050 1d50 03       		.byte	0x3
 5051 1d51 4C000000 		.4byte	.LC7
 5052 1d55 00       		.byte	0
 5053 1d56 2F       		.uleb128 0x2f
 5054 1d57 3E000000 		.4byte	.LVL83
 5055 1d5b DA210000 		.4byte	0x21da
 5056 1d5f 6D1D0000 		.4byte	0x1d6d
 5057 1d63 29       		.uleb128 0x29
 5058 1d64 01       		.uleb128 0x1
 5059 1d65 50       		.byte	0x50
ARM GAS  C:\Users\yomat\AppData\Local\Temp\cc0omv11.s 			page 170


 5060 1d66 05       		.uleb128 0x5
 5061 1d67 03       		.byte	0x3
 5062 1d68 6C000000 		.4byte	.LC8
 5063 1d6c 00       		.byte	0
 5064 1d6d 2F       		.uleb128 0x2f
 5065 1d6e 4C000000 		.4byte	.LVL84
 5066 1d72 DA210000 		.4byte	0x21da
 5067 1d76 841D0000 		.4byte	0x1d84
 5068 1d7a 29       		.uleb128 0x29
 5069 1d7b 01       		.uleb128 0x1
 5070 1d7c 50       		.byte	0x50
 5071 1d7d 05       		.uleb128 0x5
 5072 1d7e 03       		.byte	0x3
 5073 1d7f 88000000 		.4byte	.LC9
 5074 1d83 00       		.byte	0
 5075 1d84 2F       		.uleb128 0x2f
 5076 1d85 54000000 		.4byte	.LVL85
 5077 1d89 DA210000 		.4byte	0x21da
 5078 1d8d A01D0000 		.4byte	0x1da0
 5079 1d91 29       		.uleb128 0x29
 5080 1d92 01       		.uleb128 0x1
 5081 1d93 50       		.byte	0x50
 5082 1d94 05       		.uleb128 0x5
 5083 1d95 03       		.byte	0x3
 5084 1d96 A0000000 		.4byte	.LC10
 5085 1d9a 29       		.uleb128 0x29
 5086 1d9b 01       		.uleb128 0x1
 5087 1d9c 51       		.byte	0x51
 5088 1d9d 01       		.uleb128 0x1
 5089 1d9e 3A       		.byte	0x3a
 5090 1d9f 00       		.byte	0
 5091 1da0 2F       		.uleb128 0x2f
 5092 1da1 64000000 		.4byte	.LVL86
 5093 1da5 DA210000 		.4byte	0x21da
 5094 1da9 B71D0000 		.4byte	0x1db7
 5095 1dad 29       		.uleb128 0x29
 5096 1dae 01       		.uleb128 0x1
 5097 1daf 50       		.byte	0x50
 5098 1db0 05       		.uleb128 0x5
 5099 1db1 03       		.byte	0x3
 5100 1db2 BC000000 		.4byte	.LC11
 5101 1db6 00       		.byte	0
 5102 1db7 2F       		.uleb128 0x2f
 5103 1db8 6C000000 		.4byte	.LVL87
 5104 1dbc DA210000 		.4byte	0x21da
 5105 1dc0 D31D0000 		.4byte	0x1dd3
 5106 1dc4 29       		.uleb128 0x29
 5107 1dc5 01       		.uleb128 0x1
 5108 1dc6 50       		.byte	0x50
 5109 1dc7 05       		.uleb128 0x5
 5110 1dc8 03       		.byte	0x3
 5111 1dc9 D8000000 		.4byte	.LC12
 5112 1dcd 29       		.uleb128 0x29
 5113 1dce 01       		.uleb128 0x1
 5114 1dcf 51       		.byte	0x51
 5115 1dd0 01       		.uleb128 0x1
 5116 1dd1 3A       		.byte	0x3a
ARM GAS  C:\Users\yomat\AppData\Local\Temp\cc0omv11.s 			page 171


 5117 1dd2 00       		.byte	0
 5118 1dd3 2F       		.uleb128 0x2f
 5119 1dd4 76000000 		.4byte	.LVL88
 5120 1dd8 DA210000 		.4byte	0x21da
 5121 1ddc EA1D0000 		.4byte	0x1dea
 5122 1de0 29       		.uleb128 0x29
 5123 1de1 01       		.uleb128 0x1
 5124 1de2 50       		.byte	0x50
 5125 1de3 05       		.uleb128 0x5
 5126 1de4 03       		.byte	0x3
 5127 1de5 F4000000 		.4byte	.LC13
 5128 1de9 00       		.byte	0
 5129 1dea 2F       		.uleb128 0x2f
 5130 1deb 7C000000 		.4byte	.LVL89
 5131 1def 0F220000 		.4byte	0x220f
 5132 1df3 011E0000 		.4byte	0x1e01
 5133 1df7 29       		.uleb128 0x29
 5134 1df8 01       		.uleb128 0x1
 5135 1df9 50       		.byte	0x50
 5136 1dfa 05       		.uleb128 0x5
 5137 1dfb 03       		.byte	0x3
 5138 1dfc 14010000 		.4byte	.LC14
 5139 1e00 00       		.byte	0
 5140 1e01 2F       		.uleb128 0x2f
 5141 1e02 82000000 		.4byte	.LVL90
 5142 1e06 0F220000 		.4byte	0x220f
 5143 1e0a 181E0000 		.4byte	0x1e18
 5144 1e0e 29       		.uleb128 0x29
 5145 1e0f 01       		.uleb128 0x1
 5146 1e10 50       		.byte	0x50
 5147 1e11 05       		.uleb128 0x5
 5148 1e12 03       		.byte	0x3
 5149 1e13 40010000 		.4byte	.LC15
 5150 1e17 00       		.byte	0
 5151 1e18 2F       		.uleb128 0x2f
 5152 1e19 88000000 		.4byte	.LVL91
 5153 1e1d 871C0000 		.4byte	0x1c87
 5154 1e21 2C1E0000 		.4byte	0x1e2c
 5155 1e25 29       		.uleb128 0x29
 5156 1e26 01       		.uleb128 0x1
 5157 1e27 50       		.byte	0x50
 5158 1e28 02       		.uleb128 0x2
 5159 1e29 74       		.byte	0x74
 5160 1e2a 00       		.sleb128 0
 5161 1e2b 00       		.byte	0
 5162 1e2c 2F       		.uleb128 0x2f
 5163 1e2d 98000000 		.4byte	.LVL92
 5164 1e31 FB210000 		.4byte	0x21fb
 5165 1e35 501E0000 		.4byte	0x1e50
 5166 1e39 29       		.uleb128 0x29
 5167 1e3a 01       		.uleb128 0x1
 5168 1e3b 50       		.byte	0x50
 5169 1e3c 02       		.uleb128 0x2
 5170 1e3d 74       		.byte	0x74
 5171 1e3e 00       		.sleb128 0
 5172 1e3f 29       		.uleb128 0x29
 5173 1e40 01       		.uleb128 0x1
ARM GAS  C:\Users\yomat\AppData\Local\Temp\cc0omv11.s 			page 172


 5174 1e41 51       		.byte	0x51
 5175 1e42 01       		.uleb128 0x1
 5176 1e43 30       		.byte	0x30
 5177 1e44 29       		.uleb128 0x29
 5178 1e45 01       		.uleb128 0x1
 5179 1e46 52       		.byte	0x52
 5180 1e47 02       		.uleb128 0x2
 5181 1e48 91       		.byte	0x91
 5182 1e49 6C       		.sleb128 -20
 5183 1e4a 29       		.uleb128 0x29
 5184 1e4b 01       		.uleb128 0x1
 5185 1e4c 53       		.byte	0x53
 5186 1e4d 01       		.uleb128 0x1
 5187 1e4e 33       		.byte	0x33
 5188 1e4f 00       		.byte	0
 5189 1e50 2F       		.uleb128 0x2f
 5190 1e51 A2000000 		.4byte	.LVL93
 5191 1e55 1E220000 		.4byte	0x221e
 5192 1e59 731E0000 		.4byte	0x1e73
 5193 1e5d 29       		.uleb128 0x29
 5194 1e5e 01       		.uleb128 0x1
 5195 1e5f 50       		.byte	0x50
 5196 1e60 02       		.uleb128 0x2
 5197 1e61 74       		.byte	0x74
 5198 1e62 00       		.sleb128 0
 5199 1e63 29       		.uleb128 0x29
 5200 1e64 01       		.uleb128 0x1
 5201 1e65 51       		.byte	0x51
 5202 1e66 05       		.uleb128 0x5
 5203 1e67 03       		.byte	0x3
 5204 1e68 00000000 		.4byte	.LANCHOR2
 5205 1e6c 29       		.uleb128 0x29
 5206 1e6d 01       		.uleb128 0x1
 5207 1e6e 52       		.byte	0x52
 5208 1e6f 02       		.uleb128 0x2
 5209 1e70 08       		.byte	0x8
 5210 1e71 2D       		.byte	0x2d
 5211 1e72 00       		.byte	0
 5212 1e73 2F       		.uleb128 0x2f
 5213 1e74 AA000000 		.4byte	.LVL94
 5214 1e78 29220000 		.4byte	0x2229
 5215 1e7c 8A1E0000 		.4byte	0x1e8a
 5216 1e80 29       		.uleb128 0x29
 5217 1e81 01       		.uleb128 0x1
 5218 1e82 51       		.byte	0x51
 5219 1e83 05       		.uleb128 0x5
 5220 1e84 03       		.byte	0x3
 5221 1e85 00000000 		.4byte	AFE0_hdr
 5222 1e89 00       		.byte	0
 5223 1e8a 2F       		.uleb128 0x2f
 5224 1e8b BA000000 		.4byte	.LVL95
 5225 1e8f FB210000 		.4byte	0x21fb
 5226 1e93 AE1E0000 		.4byte	0x1eae
 5227 1e97 29       		.uleb128 0x29
 5228 1e98 01       		.uleb128 0x1
 5229 1e99 50       		.byte	0x50
 5230 1e9a 02       		.uleb128 0x2
ARM GAS  C:\Users\yomat\AppData\Local\Temp\cc0omv11.s 			page 173


 5231 1e9b 74       		.byte	0x74
 5232 1e9c 00       		.sleb128 0
 5233 1e9d 29       		.uleb128 0x29
 5234 1e9e 01       		.uleb128 0x1
 5235 1e9f 51       		.byte	0x51
 5236 1ea0 01       		.uleb128 0x1
 5237 1ea1 30       		.byte	0x30
 5238 1ea2 29       		.uleb128 0x29
 5239 1ea3 01       		.uleb128 0x1
 5240 1ea4 52       		.byte	0x52
 5241 1ea5 02       		.uleb128 0x2
 5242 1ea6 91       		.byte	0x91
 5243 1ea7 6C       		.sleb128 -20
 5244 1ea8 29       		.uleb128 0x29
 5245 1ea9 01       		.uleb128 0x1
 5246 1eaa 53       		.byte	0x53
 5247 1eab 01       		.uleb128 0x1
 5248 1eac 33       		.byte	0x33
 5249 1ead 00       		.byte	0
 5250 1eae 2F       		.uleb128 0x2f
 5251 1eaf C4000000 		.4byte	.LVL96
 5252 1eb3 1E220000 		.4byte	0x221e
 5253 1eb7 D11E0000 		.4byte	0x1ed1
 5254 1ebb 29       		.uleb128 0x29
 5255 1ebc 01       		.uleb128 0x1
 5256 1ebd 50       		.byte	0x50
 5257 1ebe 02       		.uleb128 0x2
 5258 1ebf 74       		.byte	0x74
 5259 1ec0 00       		.sleb128 0
 5260 1ec1 29       		.uleb128 0x29
 5261 1ec2 01       		.uleb128 0x1
 5262 1ec3 51       		.byte	0x51
 5263 1ec4 05       		.uleb128 0x5
 5264 1ec5 03       		.byte	0x3
 5265 1ec6 00000000 		.4byte	.LANCHOR2
 5266 1eca 29       		.uleb128 0x29
 5267 1ecb 01       		.uleb128 0x1
 5268 1ecc 52       		.byte	0x52
 5269 1ecd 02       		.uleb128 0x2
 5270 1ece 08       		.byte	0x8
 5271 1ecf 2D       		.byte	0x2d
 5272 1ed0 00       		.byte	0
 5273 1ed1 2F       		.uleb128 0x2f
 5274 1ed2 CC000000 		.4byte	.LVL97
 5275 1ed6 29220000 		.4byte	0x2229
 5276 1eda E81E0000 		.4byte	0x1ee8
 5277 1ede 29       		.uleb128 0x29
 5278 1edf 01       		.uleb128 0x1
 5279 1ee0 51       		.byte	0x51
 5280 1ee1 05       		.uleb128 0x5
 5281 1ee2 03       		.byte	0x3
 5282 1ee3 00000000 		.4byte	AFE1_hdr
 5283 1ee7 00       		.byte	0
 5284 1ee8 35       		.uleb128 0x35
 5285 1ee9 D6000000 		.4byte	.LVL98
 5286 1eed 2C1A0000 		.4byte	0x1a2c
 5287 1ef1 00       		.byte	0
ARM GAS  C:\Users\yomat\AppData\Local\Temp\cc0omv11.s 			page 174


 5288 1ef2 36       		.uleb128 0x36
 5289 1ef3 79160000 		.4byte	.LASF564
 5290 1ef7 01       		.byte	0x1
 5291 1ef8 FA       		.byte	0xfa
 5292 1ef9 00000000 		.4byte	.LFB699
 5293 1efd 58000000 		.4byte	.LFE699-.LFB699
 5294 1f01 01       		.uleb128 0x1
 5295 1f02 9C       		.byte	0x9c
 5296 1f03 CD1F0000 		.4byte	0x1fcd
 5297 1f07 2B       		.uleb128 0x2b
 5298 1f08 41220000 		.4byte	.LASF525
 5299 1f0c 01       		.byte	0x1
 5300 1f0d FA       		.byte	0xfa
 5301 1f0e B0000000 		.4byte	0xb0
 5302 1f12 08020000 		.4byte	.LLST16
 5303 1f16 37       		.uleb128 0x37
 5304 1f17 8B180000 		.4byte	0x188b
 5305 1f1b 2E000000 		.4byte	.LBB94
 5306 1f1f 12000000 		.4byte	.LBE94-.LBB94
 5307 1f23 01       		.byte	0x1
 5308 1f24 0301     		.2byte	0x103
 5309 1f26 971F0000 		.4byte	0x1f97
 5310 1f2a 38       		.uleb128 0x38
 5311 1f2b 01180000 		.4byte	0x1801
 5312 1f2f 2E000000 		.4byte	.LBB95
 5313 1f33 12000000 		.4byte	.LBE95-.LBB95
 5314 1f37 18       		.byte	0x18
 5315 1f38 FD01     		.2byte	0x1fd
 5316 1f3a 32       		.uleb128 0x32
 5317 1f3b 12180000 		.4byte	0x1812
 5318 1f3f 29020000 		.4byte	.LLST17
 5319 1f43 38       		.uleb128 0x38
 5320 1f44 E3170000 		.4byte	0x17e3
 5321 1f48 2E000000 		.4byte	.LBB96
 5322 1f4c 12000000 		.4byte	.LBE96-.LBB96
 5323 1f50 11       		.byte	0x11
 5324 1f51 0106     		.2byte	0x601
 5325 1f53 32       		.uleb128 0x32
 5326 1f54 F4170000 		.4byte	0x17f4
 5327 1f58 29020000 		.4byte	.LLST17
 5328 1f5c 37       		.uleb128 0x37
 5329 1f5d C5170000 		.4byte	0x17c5
 5330 1f61 2E000000 		.4byte	.LBB98
 5331 1f65 0A000000 		.4byte	.LBE98-.LBB98
 5332 1f69 05       		.byte	0x5
 5333 1f6a 2303     		.2byte	0x323
 5334 1f6c 7A1F0000 		.4byte	0x1f7a
 5335 1f70 32       		.uleb128 0x32
 5336 1f71 D6170000 		.4byte	0x17d6
 5337 1f75 41020000 		.4byte	.LLST19
 5338 1f79 00       		.byte	0
 5339 1f7a 38       		.uleb128 0x38
 5340 1f7b 9C170000 		.4byte	0x179c
 5341 1f7f 38000000 		.4byte	.LBB100
 5342 1f83 08000000 		.4byte	.LBE100-.LBB100
 5343 1f87 05       		.byte	0x5
 5344 1f88 2303     		.2byte	0x323
ARM GAS  C:\Users\yomat\AppData\Local\Temp\cc0omv11.s 			page 175


 5345 1f8a 32       		.uleb128 0x32
 5346 1f8b AD170000 		.4byte	0x17ad
 5347 1f8f 59020000 		.4byte	.LLST20
 5348 1f93 00       		.byte	0
 5349 1f94 00       		.byte	0
 5350 1f95 00       		.byte	0
 5351 1f96 00       		.byte	0
 5352 1f97 2F       		.uleb128 0x2f
 5353 1f98 12000000 		.4byte	.LVL102
 5354 1f9c 00190000 		.4byte	0x1900
 5355 1fa0 AA1F0000 		.4byte	0x1faa
 5356 1fa4 29       		.uleb128 0x29
 5357 1fa5 01       		.uleb128 0x1
 5358 1fa6 50       		.byte	0x50
 5359 1fa7 01       		.uleb128 0x1
 5360 1fa8 30       		.byte	0x30
 5361 1fa9 00       		.byte	0
 5362 1faa 2F       		.uleb128 0x2f
 5363 1fab 24000000 		.4byte	.LVL103
 5364 1faf 00190000 		.4byte	0x1900
 5365 1fb3 BD1F0000 		.4byte	0x1fbd
 5366 1fb7 29       		.uleb128 0x29
 5367 1fb8 01       		.uleb128 0x1
 5368 1fb9 50       		.byte	0x50
 5369 1fba 01       		.uleb128 0x1
 5370 1fbb 31       		.byte	0x31
 5371 1fbc 00       		.byte	0
 5372 1fbd 28       		.uleb128 0x28
 5373 1fbe 4A000000 		.4byte	.LVL107
 5374 1fc2 35220000 		.4byte	0x2235
 5375 1fc6 29       		.uleb128 0x29
 5376 1fc7 01       		.uleb128 0x1
 5377 1fc8 50       		.byte	0x50
 5378 1fc9 01       		.uleb128 0x1
 5379 1fca 30       		.byte	0x30
 5380 1fcb 00       		.byte	0
 5381 1fcc 00       		.byte	0
 5382 1fcd 0D       		.uleb128 0xd
 5383 1fce DD1F0000 		.4byte	0x1fdd
 5384 1fd2 DD1F0000 		.4byte	0x1fdd
 5385 1fd6 0E       		.uleb128 0xe
 5386 1fd7 B2000000 		.4byte	0xb2
 5387 1fdb 06       		.byte	0x6
 5388 1fdc 00       		.byte	0
 5389 1fdd 12       		.uleb128 0x12
 5390 1fde EC000000 		.4byte	0xec
 5391 1fe2 39       		.uleb128 0x39
 5392 1fe3 97250000 		.4byte	.LASF526
 5393 1fe7 17       		.byte	0x17
 5394 1fe8 32       		.byte	0x32
 5395 1fe9 0A200000 		.4byte	0x200a
 5396 1fed 1C       		.byte	0x1c
 5397 1fee 06       		.byte	0x6
 5398 1fef 00       		.byte	0
 5399 1ff0 00       		.byte	0
 5400 1ff1 00       		.byte	0
 5401 1ff2 00       		.byte	0
ARM GAS  C:\Users\yomat\AppData\Local\Temp\cc0omv11.s 			page 176


 5402 1ff3 00       		.byte	0
 5403 1ff4 00       		.byte	0
 5404 1ff5 00       		.byte	0
 5405 1ff6 01       		.byte	0x1
 5406 1ff7 00       		.byte	0
 5407 1ff8 00       		.byte	0
 5408 1ff9 00       		.byte	0
 5409 1ffa 02       		.byte	0x2
 5410 1ffb 00       		.byte	0
 5411 1ffc 00       		.byte	0
 5412 1ffd 00       		.byte	0
 5413 1ffe 03       		.byte	0x3
 5414 1fff 00       		.byte	0
 5415 2000 00       		.byte	0
 5416 2001 00       		.byte	0
 5417 2002 04       		.byte	0x4
 5418 2003 00       		.byte	0
 5419 2004 00       		.byte	0
 5420 2005 00       		.byte	0
 5421 2006 05       		.byte	0x5
 5422 2007 00       		.byte	0
 5423 2008 00       		.byte	0
 5424 2009 00       		.byte	0
 5425 200a 12       		.uleb128 0x12
 5426 200b CD1F0000 		.4byte	0x1fcd
 5427 200f 0D       		.uleb128 0xd
 5428 2010 1F200000 		.4byte	0x201f
 5429 2014 1F200000 		.4byte	0x201f
 5430 2018 0E       		.uleb128 0xe
 5431 2019 B2000000 		.4byte	0xb2
 5432 201d 06       		.byte	0x6
 5433 201e 00       		.byte	0
 5434 201f 12       		.uleb128 0x12
 5435 2020 D6000000 		.4byte	0xd6
 5436 2024 39       		.uleb128 0x39
 5437 2025 D50F0000 		.4byte	.LASF527
 5438 2029 17       		.byte	0x17
 5439 202a 33       		.byte	0x33
 5440 202b 3E200000 		.4byte	0x203e
 5441 202f 0E       		.byte	0xe
 5442 2030 E8       		.byte	0xe8
 5443 2031 03       		.byte	0x3
 5444 2032 F4       		.byte	0xf4
 5445 2033 01       		.byte	0x1
 5446 2034 FA       		.byte	0xfa
 5447 2035 00       		.byte	0
 5448 2036 64       		.byte	0x64
 5449 2037 00       		.byte	0
 5450 2038 32       		.byte	0x32
 5451 2039 00       		.byte	0
 5452 203a 19       		.byte	0x19
 5453 203b 00       		.byte	0
 5454 203c 0A       		.byte	0xa
 5455 203d 00       		.byte	0
 5456 203e 12       		.uleb128 0x12
 5457 203f 0F200000 		.4byte	0x200f
 5458 2043 3A       		.uleb128 0x3a
ARM GAS  C:\Users\yomat\AppData\Local\Temp\cc0omv11.s 			page 177


 5459 2044 0D240000 		.4byte	.LASF528
 5460 2048 17       		.byte	0x17
 5461 2049 35       		.byte	0x35
 5462 204a E3140000 		.4byte	0x14e3
 5463 204e 06       		.byte	0x6
 5464 204f 3A       		.uleb128 0x3a
 5465 2050 5B1A0000 		.4byte	.LASF529
 5466 2054 17       		.byte	0x17
 5467 2055 36       		.byte	0x36
 5468 2056 E3140000 		.4byte	0x14e3
 5469 205a 3F       		.byte	0x3f
 5470 205b 0D       		.uleb128 0xd
 5471 205c 6B200000 		.4byte	0x206b
 5472 2060 6B200000 		.4byte	0x206b
 5473 2064 0E       		.uleb128 0xe
 5474 2065 B2000000 		.4byte	0xb2
 5475 2069 2C       		.byte	0x2c
 5476 206a 00       		.byte	0
 5477 206b 12       		.uleb128 0x12
 5478 206c 0E160000 		.4byte	0x160e
 5479 2070 2E       		.uleb128 0x2e
 5480 2071 69120000 		.4byte	.LASF530
 5481 2075 01       		.byte	0x1
 5482 2076 35       		.byte	0x35
 5483 2077 81200000 		.4byte	0x2081
 5484 207b 05       		.uleb128 0x5
 5485 207c 03       		.byte	0x3
 5486 207d 00000000 		.4byte	afe_init
 5487 2081 12       		.uleb128 0x12
 5488 2082 5B200000 		.4byte	0x205b
 5489 2086 0D       		.uleb128 0xd
 5490 2087 72160000 		.4byte	0x1672
 5491 208b 96200000 		.4byte	0x2096
 5492 208f 0E       		.uleb128 0xe
 5493 2090 B2000000 		.4byte	0xb2
 5494 2094 02       		.byte	0x2
 5495 2095 00       		.byte	0
 5496 2096 2E       		.uleb128 0x2e
 5497 2097 411B0000 		.4byte	.LASF531
 5498 209b 01       		.byte	0x1
 5499 209c 46       		.byte	0x46
 5500 209d 86200000 		.4byte	0x2086
 5501 20a1 05       		.uleb128 0x5
 5502 20a2 03       		.byte	0x3
 5503 20a3 00000000 		.4byte	afe_data
 5504 20a7 0D       		.uleb128 0xd
 5505 20a8 B3160000 		.4byte	0x16b3
 5506 20ac B7200000 		.4byte	0x20b7
 5507 20b0 0E       		.uleb128 0xe
 5508 20b1 B2000000 		.4byte	0xb2
 5509 20b5 02       		.byte	0x2
 5510 20b6 00       		.byte	0
 5511 20b7 2E       		.uleb128 0x2e
 5512 20b8 D71E0000 		.4byte	.LASF532
 5513 20bc 01       		.byte	0x1
 5514 20bd 55       		.byte	0x55
 5515 20be A7200000 		.4byte	0x20a7
ARM GAS  C:\Users\yomat\AppData\Local\Temp\cc0omv11.s 			page 178


 5516 20c2 05       		.uleb128 0x5
 5517 20c3 03       		.byte	0x3
 5518 20c4 00000000 		.4byte	afe_calval
 5519 20c8 3B       		.uleb128 0x3b
 5520 20c9 F2130000 		.4byte	.LASF533
 5521 20cd 02       		.byte	0x2
 5522 20ce F907     		.2byte	0x7f9
 5523 20d0 D4200000 		.4byte	0x20d4
 5524 20d4 0F       		.uleb128 0xf
 5525 20d5 E1000000 		.4byte	0xe1
 5526 20d9 3C       		.uleb128 0x3c
 5527 20da 851E0000 		.4byte	.LASF534
 5528 20de 0C       		.byte	0xc
 5529 20df A7       		.byte	0xa7
 5530 20e0 E4200000 		.4byte	0x20e4
 5531 20e4 1A       		.uleb128 0x1a
 5532 20e5 04       		.byte	0x4
 5533 20e6 EA200000 		.4byte	0x20ea
 5534 20ea 12       		.uleb128 0x12
 5535 20eb AE100000 		.4byte	0x10ae
 5536 20ef 3B       		.uleb128 0x3b
 5537 20f0 D7210000 		.4byte	.LASF535
 5538 20f4 15       		.byte	0x15
 5539 20f5 2202     		.2byte	0x222
 5540 20f7 B6150000 		.4byte	0x15b6
 5541 20fb 0D       		.uleb128 0xd
 5542 20fc 0C150000 		.4byte	0x150c
 5543 2100 0B210000 		.4byte	0x210b
 5544 2104 0E       		.uleb128 0xe
 5545 2105 B2000000 		.4byte	0xb2
 5546 2109 00       		.byte	0
 5547 210a 00       		.byte	0
 5548 210b 3B       		.uleb128 0x3b
 5549 210c 42090000 		.4byte	.LASF536
 5550 2110 15       		.byte	0x15
 5551 2111 2C02     		.2byte	0x22c
 5552 2113 FB200000 		.4byte	0x20fb
 5553 2117 0D       		.uleb128 0xd
 5554 2118 FE150000 		.4byte	0x15fe
 5555 211c 27210000 		.4byte	0x2127
 5556 2120 0E       		.uleb128 0xe
 5557 2121 B2000000 		.4byte	0xb2
 5558 2125 00       		.byte	0
 5559 2126 00       		.byte	0
 5560 2127 3B       		.uleb128 0x3b
 5561 2128 EC200000 		.4byte	.LASF537
 5562 212c 15       		.byte	0x15
 5563 212d 2D02     		.2byte	0x22d
 5564 212f 17210000 		.4byte	0x2117
 5565 2133 3B       		.uleb128 0x3b
 5566 2134 A3060000 		.4byte	.LASF538
 5567 2138 15       		.byte	0x15
 5568 2139 5202     		.2byte	0x252
 5569 213b C0000000 		.4byte	0xc0
 5570 213f 3C       		.uleb128 0x3c
 5571 2140 2D200000 		.4byte	.LASF539
 5572 2144 19       		.byte	0x19
ARM GAS  C:\Users\yomat\AppData\Local\Temp\cc0omv11.s 			page 179


 5573 2145 29       		.byte	0x29
 5574 2146 09160000 		.4byte	0x1609
 5575 214a 3C       		.uleb128 0x3c
 5576 214b 111A0000 		.4byte	.LASF540
 5577 214f 19       		.byte	0x19
 5578 2150 2C       		.byte	0x2c
 5579 2151 09160000 		.4byte	0x1609
 5580 2155 3C       		.uleb128 0x3c
 5581 2156 0F230000 		.4byte	.LASF541
 5582 215a 18       		.byte	0x18
 5583 215b 87       		.byte	0x87
 5584 215c 93130000 		.4byte	0x1393
 5585 2160 3C       		.uleb128 0x3c
 5586 2161 CF190000 		.4byte	.LASF542
 5587 2165 1A       		.byte	0x1a
 5588 2166 7F       		.byte	0x7f
 5589 2167 B7120000 		.4byte	0x12b7
 5590 216b 3C       		.uleb128 0x3c
 5591 216c 4E220000 		.4byte	.LASF543
 5592 2170 1B       		.byte	0x1b
 5593 2171 7F       		.byte	0x7f
 5594 2172 B7120000 		.4byte	0x12b7
 5595 2176 3C       		.uleb128 0x3c
 5596 2177 A61F0000 		.4byte	.LASF544
 5597 217b 1C       		.byte	0x1c
 5598 217c 1F       		.byte	0x1f
 5599 217d 81210000 		.4byte	0x2181
 5600 2181 12       		.uleb128 0x12
 5601 2182 D8140000 		.4byte	0x14d8
 5602 2186 3C       		.uleb128 0x3c
 5603 2187 370E0000 		.4byte	.LASF545
 5604 218b 1D       		.byte	0x1d
 5605 218c 1F       		.byte	0x1f
 5606 218d 81210000 		.4byte	0x2181
 5607 2191 3C       		.uleb128 0x3c
 5608 2192 0A200000 		.4byte	.LASF546
 5609 2196 1E       		.byte	0x1e
 5610 2197 1F       		.byte	0x1f
 5611 2198 81210000 		.4byte	0x2181
 5612 219c 3D       		.uleb128 0x3d
 5613 219d 3C060000 		.4byte	.LASF547
 5614 21a1 01       		.byte	0x1
 5615 21a2 56       		.byte	0x56
 5616 21a3 C0000000 		.4byte	0xc0
 5617 21a7 05       		.uleb128 0x5
 5618 21a8 03       		.byte	0x3
 5619 21a9 00000000 		.4byte	SpO2
 5620 21ad 3D       		.uleb128 0x3d
 5621 21ae 811F0000 		.4byte	.LASF548
 5622 21b2 01       		.byte	0x1
 5623 21b3 58       		.byte	0x58
 5624 21b4 67160000 		.4byte	0x1667
 5625 21b8 05       		.uleb128 0x5
 5626 21b9 03       		.byte	0x3
 5627 21ba 00000000 		.4byte	AFE_id
 5628 21be 3D       		.uleb128 0x3d
 5629 21bf E1040000 		.4byte	.LASF549
ARM GAS  C:\Users\yomat\AppData\Local\Temp\cc0omv11.s 			page 180


 5630 21c3 01       		.byte	0x1
 5631 21c4 59       		.byte	0x59
 5632 21c5 67160000 		.4byte	0x1667
 5633 21c9 05       		.uleb128 0x5
 5634 21ca 03       		.byte	0x3
 5635 21cb 00000000 		.4byte	AFE_st
 5636 21cf 3E       		.uleb128 0x3e
 5637 21d0 65090000 		.4byte	.LASF550
 5638 21d4 65090000 		.4byte	.LASF550
 5639 21d8 16       		.byte	0x16
 5640 21d9 83       		.byte	0x83
 5641 21da 3E       		.uleb128 0x3e
 5642 21db 410D0000 		.4byte	.LASF551
 5643 21df 410D0000 		.4byte	.LASF551
 5644 21e3 1F       		.byte	0x1f
 5645 21e4 BB       		.byte	0xbb
 5646 21e5 3E       		.uleb128 0x3e
 5647 21e6 B9220000 		.4byte	.LASF552
 5648 21ea B9220000 		.4byte	.LASF552
 5649 21ee 20       		.byte	0x20
 5650 21ef D5       		.byte	0xd5
 5651 21f0 3E       		.uleb128 0x3e
 5652 21f1 1F250000 		.4byte	.LASF553
 5653 21f5 1F250000 		.4byte	.LASF553
 5654 21f9 20       		.byte	0x20
 5655 21fa DB       		.byte	0xdb
 5656 21fb 3E       		.uleb128 0x3e
 5657 21fc E5190000 		.4byte	.LASF554
 5658 2200 E5190000 		.4byte	.LASF554
 5659 2204 16       		.byte	0x16
 5660 2205 84       		.byte	0x84
 5661 2206 3F       		.uleb128 0x3f
 5662 2207 CD1C0000 		.4byte	.LASF565
 5663 220b CD1C0000 		.4byte	.LASF565
 5664 220f 40       		.uleb128 0x40
 5665 2210 4D020000 		.4byte	.LASF566
 5666 2214 E3130000 		.4byte	.LASF567
 5667 2218 21       		.byte	0x21
 5668 2219 00       		.byte	0
 5669 221a 4D020000 		.4byte	.LASF566
 5670 221e 3E       		.uleb128 0x3e
 5671 221f 78220000 		.4byte	.LASF555
 5672 2223 78220000 		.4byte	.LASF555
 5673 2227 16       		.byte	0x16
 5674 2228 85       		.byte	0x85
 5675 2229 41       		.uleb128 0x41
 5676 222a FE240000 		.4byte	.LASF556
 5677 222e FE240000 		.4byte	.LASF556
 5678 2232 0E       		.byte	0xe
 5679 2233 6601     		.2byte	0x166
 5680 2235 41       		.uleb128 0x41
 5681 2236 381F0000 		.4byte	.LASF557
 5682 223a 381F0000 		.4byte	.LASF557
 5683 223e 0F       		.byte	0xf
 5684 223f 4706     		.2byte	0x647
 5685 2241 00       		.byte	0
 5686              		.section	.debug_abbrev,"",%progbits
ARM GAS  C:\Users\yomat\AppData\Local\Temp\cc0omv11.s 			page 181


 5687              	.Ldebug_abbrev0:
 5688 0000 01       		.uleb128 0x1
 5689 0001 11       		.uleb128 0x11
 5690 0002 01       		.byte	0x1
 5691 0003 25       		.uleb128 0x25
 5692 0004 0E       		.uleb128 0xe
 5693 0005 13       		.uleb128 0x13
 5694 0006 0B       		.uleb128 0xb
 5695 0007 03       		.uleb128 0x3
 5696 0008 0E       		.uleb128 0xe
 5697 0009 1B       		.uleb128 0x1b
 5698 000a 0E       		.uleb128 0xe
 5699 000b 55       		.uleb128 0x55
 5700 000c 17       		.uleb128 0x17
 5701 000d 11       		.uleb128 0x11
 5702 000e 01       		.uleb128 0x1
 5703 000f 10       		.uleb128 0x10
 5704 0010 17       		.uleb128 0x17
 5705 0011 00       		.byte	0
 5706 0012 00       		.byte	0
 5707 0013 02       		.uleb128 0x2
 5708 0014 24       		.uleb128 0x24
 5709 0015 00       		.byte	0
 5710 0016 0B       		.uleb128 0xb
 5711 0017 0B       		.uleb128 0xb
 5712 0018 3E       		.uleb128 0x3e
 5713 0019 0B       		.uleb128 0xb
 5714 001a 03       		.uleb128 0x3
 5715 001b 0E       		.uleb128 0xe
 5716 001c 00       		.byte	0
 5717 001d 00       		.byte	0
 5718 001e 03       		.uleb128 0x3
 5719 001f 16       		.uleb128 0x16
 5720 0020 00       		.byte	0
 5721 0021 03       		.uleb128 0x3
 5722 0022 0E       		.uleb128 0xe
 5723 0023 3A       		.uleb128 0x3a
 5724 0024 0B       		.uleb128 0xb
 5725 0025 3B       		.uleb128 0x3b
 5726 0026 0B       		.uleb128 0xb
 5727 0027 49       		.uleb128 0x49
 5728 0028 13       		.uleb128 0x13
 5729 0029 00       		.byte	0
 5730 002a 00       		.byte	0
 5731 002b 04       		.uleb128 0x4
 5732 002c 24       		.uleb128 0x24
 5733 002d 00       		.byte	0
 5734 002e 0B       		.uleb128 0xb
 5735 002f 0B       		.uleb128 0xb
 5736 0030 3E       		.uleb128 0x3e
 5737 0031 0B       		.uleb128 0xb
 5738 0032 03       		.uleb128 0x3
 5739 0033 08       		.uleb128 0x8
 5740 0034 00       		.byte	0
 5741 0035 00       		.byte	0
 5742 0036 05       		.uleb128 0x5
 5743 0037 0F       		.uleb128 0xf
ARM GAS  C:\Users\yomat\AppData\Local\Temp\cc0omv11.s 			page 182


 5744 0038 00       		.byte	0
 5745 0039 0B       		.uleb128 0xb
 5746 003a 0B       		.uleb128 0xb
 5747 003b 00       		.byte	0
 5748 003c 00       		.byte	0
 5749 003d 06       		.uleb128 0x6
 5750 003e 04       		.uleb128 0x4
 5751 003f 01       		.byte	0x1
 5752 0040 0B       		.uleb128 0xb
 5753 0041 0B       		.uleb128 0xb
 5754 0042 49       		.uleb128 0x49
 5755 0043 13       		.uleb128 0x13
 5756 0044 3A       		.uleb128 0x3a
 5757 0045 0B       		.uleb128 0xb
 5758 0046 3B       		.uleb128 0x3b
 5759 0047 0B       		.uleb128 0xb
 5760 0048 01       		.uleb128 0x1
 5761 0049 13       		.uleb128 0x13
 5762 004a 00       		.byte	0
 5763 004b 00       		.byte	0
 5764 004c 07       		.uleb128 0x7
 5765 004d 28       		.uleb128 0x28
 5766 004e 00       		.byte	0
 5767 004f 03       		.uleb128 0x3
 5768 0050 0E       		.uleb128 0xe
 5769 0051 1C       		.uleb128 0x1c
 5770 0052 0D       		.uleb128 0xd
 5771 0053 00       		.byte	0
 5772 0054 00       		.byte	0
 5773 0055 08       		.uleb128 0x8
 5774 0056 28       		.uleb128 0x28
 5775 0057 00       		.byte	0
 5776 0058 03       		.uleb128 0x3
 5777 0059 0E       		.uleb128 0xe
 5778 005a 1C       		.uleb128 0x1c
 5779 005b 0B       		.uleb128 0xb
 5780 005c 00       		.byte	0
 5781 005d 00       		.byte	0
 5782 005e 09       		.uleb128 0x9
 5783 005f 13       		.uleb128 0x13
 5784 0060 01       		.byte	0x1
 5785 0061 0B       		.uleb128 0xb
 5786 0062 05       		.uleb128 0x5
 5787 0063 3A       		.uleb128 0x3a
 5788 0064 0B       		.uleb128 0xb
 5789 0065 3B       		.uleb128 0x3b
 5790 0066 05       		.uleb128 0x5
 5791 0067 01       		.uleb128 0x1
 5792 0068 13       		.uleb128 0x13
 5793 0069 00       		.byte	0
 5794 006a 00       		.byte	0
 5795 006b 0A       		.uleb128 0xa
 5796 006c 0D       		.uleb128 0xd
 5797 006d 00       		.byte	0
 5798 006e 03       		.uleb128 0x3
 5799 006f 0E       		.uleb128 0xe
 5800 0070 3A       		.uleb128 0x3a
ARM GAS  C:\Users\yomat\AppData\Local\Temp\cc0omv11.s 			page 183


 5801 0071 0B       		.uleb128 0xb
 5802 0072 3B       		.uleb128 0x3b
 5803 0073 05       		.uleb128 0x5
 5804 0074 49       		.uleb128 0x49
 5805 0075 13       		.uleb128 0x13
 5806 0076 38       		.uleb128 0x38
 5807 0077 0B       		.uleb128 0xb
 5808 0078 00       		.byte	0
 5809 0079 00       		.byte	0
 5810 007a 0B       		.uleb128 0xb
 5811 007b 0D       		.uleb128 0xd
 5812 007c 00       		.byte	0
 5813 007d 03       		.uleb128 0x3
 5814 007e 0E       		.uleb128 0xe
 5815 007f 3A       		.uleb128 0x3a
 5816 0080 0B       		.uleb128 0xb
 5817 0081 3B       		.uleb128 0x3b
 5818 0082 05       		.uleb128 0x5
 5819 0083 49       		.uleb128 0x49
 5820 0084 13       		.uleb128 0x13
 5821 0085 38       		.uleb128 0x38
 5822 0086 05       		.uleb128 0x5
 5823 0087 00       		.byte	0
 5824 0088 00       		.byte	0
 5825 0089 0C       		.uleb128 0xc
 5826 008a 0D       		.uleb128 0xd
 5827 008b 00       		.byte	0
 5828 008c 03       		.uleb128 0x3
 5829 008d 08       		.uleb128 0x8
 5830 008e 3A       		.uleb128 0x3a
 5831 008f 0B       		.uleb128 0xb
 5832 0090 3B       		.uleb128 0x3b
 5833 0091 05       		.uleb128 0x5
 5834 0092 49       		.uleb128 0x49
 5835 0093 13       		.uleb128 0x13
 5836 0094 38       		.uleb128 0x38
 5837 0095 05       		.uleb128 0x5
 5838 0096 00       		.byte	0
 5839 0097 00       		.byte	0
 5840 0098 0D       		.uleb128 0xd
 5841 0099 01       		.uleb128 0x1
 5842 009a 01       		.byte	0x1
 5843 009b 49       		.uleb128 0x49
 5844 009c 13       		.uleb128 0x13
 5845 009d 01       		.uleb128 0x1
 5846 009e 13       		.uleb128 0x13
 5847 009f 00       		.byte	0
 5848 00a0 00       		.byte	0
 5849 00a1 0E       		.uleb128 0xe
 5850 00a2 21       		.uleb128 0x21
 5851 00a3 00       		.byte	0
 5852 00a4 49       		.uleb128 0x49
 5853 00a5 13       		.uleb128 0x13
 5854 00a6 2F       		.uleb128 0x2f
 5855 00a7 0B       		.uleb128 0xb
 5856 00a8 00       		.byte	0
 5857 00a9 00       		.byte	0
ARM GAS  C:\Users\yomat\AppData\Local\Temp\cc0omv11.s 			page 184


 5858 00aa 0F       		.uleb128 0xf
 5859 00ab 35       		.uleb128 0x35
 5860 00ac 00       		.byte	0
 5861 00ad 49       		.uleb128 0x49
 5862 00ae 13       		.uleb128 0x13
 5863 00af 00       		.byte	0
 5864 00b0 00       		.byte	0
 5865 00b1 10       		.uleb128 0x10
 5866 00b2 21       		.uleb128 0x21
 5867 00b3 00       		.byte	0
 5868 00b4 49       		.uleb128 0x49
 5869 00b5 13       		.uleb128 0x13
 5870 00b6 2F       		.uleb128 0x2f
 5871 00b7 05       		.uleb128 0x5
 5872 00b8 00       		.byte	0
 5873 00b9 00       		.byte	0
 5874 00ba 11       		.uleb128 0x11
 5875 00bb 16       		.uleb128 0x16
 5876 00bc 00       		.byte	0
 5877 00bd 03       		.uleb128 0x3
 5878 00be 0E       		.uleb128 0xe
 5879 00bf 3A       		.uleb128 0x3a
 5880 00c0 0B       		.uleb128 0xb
 5881 00c1 3B       		.uleb128 0x3b
 5882 00c2 05       		.uleb128 0x5
 5883 00c3 49       		.uleb128 0x49
 5884 00c4 13       		.uleb128 0x13
 5885 00c5 00       		.byte	0
 5886 00c6 00       		.byte	0
 5887 00c7 12       		.uleb128 0x12
 5888 00c8 26       		.uleb128 0x26
 5889 00c9 00       		.byte	0
 5890 00ca 49       		.uleb128 0x49
 5891 00cb 13       		.uleb128 0x13
 5892 00cc 00       		.byte	0
 5893 00cd 00       		.byte	0
 5894 00ce 13       		.uleb128 0x13
 5895 00cf 13       		.uleb128 0x13
 5896 00d0 01       		.byte	0x1
 5897 00d1 0B       		.uleb128 0xb
 5898 00d2 0B       		.uleb128 0xb
 5899 00d3 3A       		.uleb128 0x3a
 5900 00d4 0B       		.uleb128 0xb
 5901 00d5 3B       		.uleb128 0x3b
 5902 00d6 0B       		.uleb128 0xb
 5903 00d7 01       		.uleb128 0x1
 5904 00d8 13       		.uleb128 0x13
 5905 00d9 00       		.byte	0
 5906 00da 00       		.byte	0
 5907 00db 14       		.uleb128 0x14
 5908 00dc 0D       		.uleb128 0xd
 5909 00dd 00       		.byte	0
 5910 00de 03       		.uleb128 0x3
 5911 00df 08       		.uleb128 0x8
 5912 00e0 3A       		.uleb128 0x3a
 5913 00e1 0B       		.uleb128 0xb
 5914 00e2 3B       		.uleb128 0x3b
ARM GAS  C:\Users\yomat\AppData\Local\Temp\cc0omv11.s 			page 185


 5915 00e3 0B       		.uleb128 0xb
 5916 00e4 49       		.uleb128 0x49
 5917 00e5 13       		.uleb128 0x13
 5918 00e6 38       		.uleb128 0x38
 5919 00e7 0B       		.uleb128 0xb
 5920 00e8 00       		.byte	0
 5921 00e9 00       		.byte	0
 5922 00ea 15       		.uleb128 0x15
 5923 00eb 0D       		.uleb128 0xd
 5924 00ec 00       		.byte	0
 5925 00ed 03       		.uleb128 0x3
 5926 00ee 0E       		.uleb128 0xe
 5927 00ef 3A       		.uleb128 0x3a
 5928 00f0 0B       		.uleb128 0xb
 5929 00f1 3B       		.uleb128 0x3b
 5930 00f2 0B       		.uleb128 0xb
 5931 00f3 49       		.uleb128 0x49
 5932 00f4 13       		.uleb128 0x13
 5933 00f5 38       		.uleb128 0x38
 5934 00f6 0B       		.uleb128 0xb
 5935 00f7 00       		.byte	0
 5936 00f8 00       		.byte	0
 5937 00f9 16       		.uleb128 0x16
 5938 00fa 13       		.uleb128 0x13
 5939 00fb 01       		.byte	0x1
 5940 00fc 0B       		.uleb128 0xb
 5941 00fd 05       		.uleb128 0x5
 5942 00fe 3A       		.uleb128 0x3a
 5943 00ff 0B       		.uleb128 0xb
 5944 0100 3B       		.uleb128 0x3b
 5945 0101 0B       		.uleb128 0xb
 5946 0102 01       		.uleb128 0x1
 5947 0103 13       		.uleb128 0x13
 5948 0104 00       		.byte	0
 5949 0105 00       		.byte	0
 5950 0106 17       		.uleb128 0x17
 5951 0107 0D       		.uleb128 0xd
 5952 0108 00       		.byte	0
 5953 0109 03       		.uleb128 0x3
 5954 010a 0E       		.uleb128 0xe
 5955 010b 3A       		.uleb128 0x3a
 5956 010c 0B       		.uleb128 0xb
 5957 010d 3B       		.uleb128 0x3b
 5958 010e 0B       		.uleb128 0xb
 5959 010f 49       		.uleb128 0x49
 5960 0110 13       		.uleb128 0x13
 5961 0111 38       		.uleb128 0x38
 5962 0112 05       		.uleb128 0x5
 5963 0113 00       		.byte	0
 5964 0114 00       		.byte	0
 5965 0115 18       		.uleb128 0x18
 5966 0116 13       		.uleb128 0x13
 5967 0117 01       		.byte	0x1
 5968 0118 0B       		.uleb128 0xb
 5969 0119 0B       		.uleb128 0xb
 5970 011a 3A       		.uleb128 0x3a
 5971 011b 0B       		.uleb128 0xb
ARM GAS  C:\Users\yomat\AppData\Local\Temp\cc0omv11.s 			page 186


 5972 011c 3B       		.uleb128 0x3b
 5973 011d 05       		.uleb128 0x5
 5974 011e 01       		.uleb128 0x1
 5975 011f 13       		.uleb128 0x13
 5976 0120 00       		.byte	0
 5977 0121 00       		.byte	0
 5978 0122 19       		.uleb128 0x19
 5979 0123 04       		.uleb128 0x4
 5980 0124 01       		.byte	0x1
 5981 0125 0B       		.uleb128 0xb
 5982 0126 0B       		.uleb128 0xb
 5983 0127 49       		.uleb128 0x49
 5984 0128 13       		.uleb128 0x13
 5985 0129 3A       		.uleb128 0x3a
 5986 012a 0B       		.uleb128 0xb
 5987 012b 3B       		.uleb128 0x3b
 5988 012c 05       		.uleb128 0x5
 5989 012d 01       		.uleb128 0x1
 5990 012e 13       		.uleb128 0x13
 5991 012f 00       		.byte	0
 5992 0130 00       		.byte	0
 5993 0131 1A       		.uleb128 0x1a
 5994 0132 0F       		.uleb128 0xf
 5995 0133 00       		.byte	0
 5996 0134 0B       		.uleb128 0xb
 5997 0135 0B       		.uleb128 0xb
 5998 0136 49       		.uleb128 0x49
 5999 0137 13       		.uleb128 0x13
 6000 0138 00       		.byte	0
 6001 0139 00       		.byte	0
 6002 013a 1B       		.uleb128 0x1b
 6003 013b 15       		.uleb128 0x15
 6004 013c 01       		.byte	0x1
 6005 013d 27       		.uleb128 0x27
 6006 013e 19       		.uleb128 0x19
 6007 013f 01       		.uleb128 0x1
 6008 0140 13       		.uleb128 0x13
 6009 0141 00       		.byte	0
 6010 0142 00       		.byte	0
 6011 0143 1C       		.uleb128 0x1c
 6012 0144 05       		.uleb128 0x5
 6013 0145 00       		.byte	0
 6014 0146 49       		.uleb128 0x49
 6015 0147 13       		.uleb128 0x13
 6016 0148 00       		.byte	0
 6017 0149 00       		.byte	0
 6018 014a 1D       		.uleb128 0x1d
 6019 014b 15       		.uleb128 0x15
 6020 014c 01       		.byte	0x1
 6021 014d 27       		.uleb128 0x27
 6022 014e 19       		.uleb128 0x19
 6023 014f 49       		.uleb128 0x49
 6024 0150 13       		.uleb128 0x13
 6025 0151 01       		.uleb128 0x1
 6026 0152 13       		.uleb128 0x13
 6027 0153 00       		.byte	0
 6028 0154 00       		.byte	0
ARM GAS  C:\Users\yomat\AppData\Local\Temp\cc0omv11.s 			page 187


 6029 0155 1E       		.uleb128 0x1e
 6030 0156 13       		.uleb128 0x13
 6031 0157 01       		.byte	0x1
 6032 0158 03       		.uleb128 0x3
 6033 0159 0E       		.uleb128 0xe
 6034 015a 0B       		.uleb128 0xb
 6035 015b 0B       		.uleb128 0xb
 6036 015c 3A       		.uleb128 0x3a
 6037 015d 0B       		.uleb128 0xb
 6038 015e 3B       		.uleb128 0x3b
 6039 015f 05       		.uleb128 0x5
 6040 0160 01       		.uleb128 0x1
 6041 0161 13       		.uleb128 0x13
 6042 0162 00       		.byte	0
 6043 0163 00       		.byte	0
 6044 0164 1F       		.uleb128 0x1f
 6045 0165 13       		.uleb128 0x13
 6046 0166 01       		.byte	0x1
 6047 0167 03       		.uleb128 0x3
 6048 0168 0E       		.uleb128 0xe
 6049 0169 0B       		.uleb128 0xb
 6050 016a 0B       		.uleb128 0xb
 6051 016b 3A       		.uleb128 0x3a
 6052 016c 0B       		.uleb128 0xb
 6053 016d 3B       		.uleb128 0x3b
 6054 016e 0B       		.uleb128 0xb
 6055 016f 01       		.uleb128 0x1
 6056 0170 13       		.uleb128 0x13
 6057 0171 00       		.byte	0
 6058 0172 00       		.byte	0
 6059 0173 20       		.uleb128 0x20
 6060 0174 0D       		.uleb128 0xd
 6061 0175 00       		.byte	0
 6062 0176 03       		.uleb128 0x3
 6063 0177 08       		.uleb128 0x8
 6064 0178 3A       		.uleb128 0x3a
 6065 0179 0B       		.uleb128 0xb
 6066 017a 3B       		.uleb128 0x3b
 6067 017b 05       		.uleb128 0x5
 6068 017c 49       		.uleb128 0x49
 6069 017d 13       		.uleb128 0x13
 6070 017e 38       		.uleb128 0x38
 6071 017f 0B       		.uleb128 0xb
 6072 0180 00       		.byte	0
 6073 0181 00       		.byte	0
 6074 0182 21       		.uleb128 0x21
 6075 0183 04       		.uleb128 0x4
 6076 0184 01       		.byte	0x1
 6077 0185 03       		.uleb128 0x3
 6078 0186 0E       		.uleb128 0xe
 6079 0187 0B       		.uleb128 0xb
 6080 0188 0B       		.uleb128 0xb
 6081 0189 49       		.uleb128 0x49
 6082 018a 13       		.uleb128 0x13
 6083 018b 3A       		.uleb128 0x3a
 6084 018c 0B       		.uleb128 0xb
 6085 018d 3B       		.uleb128 0x3b
ARM GAS  C:\Users\yomat\AppData\Local\Temp\cc0omv11.s 			page 188


 6086 018e 0B       		.uleb128 0xb
 6087 018f 01       		.uleb128 0x1
 6088 0190 13       		.uleb128 0x13
 6089 0191 00       		.byte	0
 6090 0192 00       		.byte	0
 6091 0193 22       		.uleb128 0x22
 6092 0194 2E       		.uleb128 0x2e
 6093 0195 00       		.byte	0
 6094 0196 03       		.uleb128 0x3
 6095 0197 0E       		.uleb128 0xe
 6096 0198 3A       		.uleb128 0x3a
 6097 0199 0B       		.uleb128 0xb
 6098 019a 3B       		.uleb128 0x3b
 6099 019b 05       		.uleb128 0x5
 6100 019c 27       		.uleb128 0x27
 6101 019d 19       		.uleb128 0x19
 6102 019e 20       		.uleb128 0x20
 6103 019f 0B       		.uleb128 0xb
 6104 01a0 00       		.byte	0
 6105 01a1 00       		.byte	0
 6106 01a2 23       		.uleb128 0x23
 6107 01a3 2E       		.uleb128 0x2e
 6108 01a4 01       		.byte	0x1
 6109 01a5 03       		.uleb128 0x3
 6110 01a6 0E       		.uleb128 0xe
 6111 01a7 3A       		.uleb128 0x3a
 6112 01a8 0B       		.uleb128 0xb
 6113 01a9 3B       		.uleb128 0x3b
 6114 01aa 05       		.uleb128 0x5
 6115 01ab 27       		.uleb128 0x27
 6116 01ac 19       		.uleb128 0x19
 6117 01ad 49       		.uleb128 0x49
 6118 01ae 13       		.uleb128 0x13
 6119 01af 20       		.uleb128 0x20
 6120 01b0 0B       		.uleb128 0xb
 6121 01b1 01       		.uleb128 0x1
 6122 01b2 13       		.uleb128 0x13
 6123 01b3 00       		.byte	0
 6124 01b4 00       		.byte	0
 6125 01b5 24       		.uleb128 0x24
 6126 01b6 05       		.uleb128 0x5
 6127 01b7 00       		.byte	0
 6128 01b8 03       		.uleb128 0x3
 6129 01b9 0E       		.uleb128 0xe
 6130 01ba 3A       		.uleb128 0x3a
 6131 01bb 0B       		.uleb128 0xb
 6132 01bc 3B       		.uleb128 0x3b
 6133 01bd 05       		.uleb128 0x5
 6134 01be 49       		.uleb128 0x49
 6135 01bf 13       		.uleb128 0x13
 6136 01c0 00       		.byte	0
 6137 01c1 00       		.byte	0
 6138 01c2 25       		.uleb128 0x25
 6139 01c3 2E       		.uleb128 0x2e
 6140 01c4 01       		.byte	0x1
 6141 01c5 03       		.uleb128 0x3
 6142 01c6 0E       		.uleb128 0xe
ARM GAS  C:\Users\yomat\AppData\Local\Temp\cc0omv11.s 			page 189


 6143 01c7 3A       		.uleb128 0x3a
 6144 01c8 0B       		.uleb128 0xb
 6145 01c9 3B       		.uleb128 0x3b
 6146 01ca 05       		.uleb128 0x5
 6147 01cb 27       		.uleb128 0x27
 6148 01cc 19       		.uleb128 0x19
 6149 01cd 20       		.uleb128 0x20
 6150 01ce 0B       		.uleb128 0xb
 6151 01cf 01       		.uleb128 0x1
 6152 01d0 13       		.uleb128 0x13
 6153 01d1 00       		.byte	0
 6154 01d2 00       		.byte	0
 6155 01d3 26       		.uleb128 0x26
 6156 01d4 2E       		.uleb128 0x2e
 6157 01d5 00       		.byte	0
 6158 01d6 03       		.uleb128 0x3
 6159 01d7 0E       		.uleb128 0xe
 6160 01d8 3A       		.uleb128 0x3a
 6161 01d9 0B       		.uleb128 0xb
 6162 01da 3B       		.uleb128 0x3b
 6163 01db 05       		.uleb128 0x5
 6164 01dc 27       		.uleb128 0x27
 6165 01dd 19       		.uleb128 0x19
 6166 01de 49       		.uleb128 0x49
 6167 01df 13       		.uleb128 0x13
 6168 01e0 20       		.uleb128 0x20
 6169 01e1 0B       		.uleb128 0xb
 6170 01e2 00       		.byte	0
 6171 01e3 00       		.byte	0
 6172 01e4 27       		.uleb128 0x27
 6173 01e5 2E       		.uleb128 0x2e
 6174 01e6 01       		.byte	0x1
 6175 01e7 03       		.uleb128 0x3
 6176 01e8 0E       		.uleb128 0xe
 6177 01e9 3A       		.uleb128 0x3a
 6178 01ea 0B       		.uleb128 0xb
 6179 01eb 3B       		.uleb128 0x3b
 6180 01ec 0B       		.uleb128 0xb
 6181 01ed 11       		.uleb128 0x11
 6182 01ee 01       		.uleb128 0x1
 6183 01ef 12       		.uleb128 0x12
 6184 01f0 06       		.uleb128 0x6
 6185 01f1 40       		.uleb128 0x40
 6186 01f2 18       		.uleb128 0x18
 6187 01f3 9742     		.uleb128 0x2117
 6188 01f5 19       		.uleb128 0x19
 6189 01f6 01       		.uleb128 0x1
 6190 01f7 13       		.uleb128 0x13
 6191 01f8 00       		.byte	0
 6192 01f9 00       		.byte	0
 6193 01fa 28       		.uleb128 0x28
 6194 01fb 898201   		.uleb128 0x4109
 6195 01fe 01       		.byte	0x1
 6196 01ff 11       		.uleb128 0x11
 6197 0200 01       		.uleb128 0x1
 6198 0201 31       		.uleb128 0x31
 6199 0202 13       		.uleb128 0x13
ARM GAS  C:\Users\yomat\AppData\Local\Temp\cc0omv11.s 			page 190


 6200 0203 00       		.byte	0
 6201 0204 00       		.byte	0
 6202 0205 29       		.uleb128 0x29
 6203 0206 8A8201   		.uleb128 0x410a
 6204 0209 00       		.byte	0
 6205 020a 02       		.uleb128 0x2
 6206 020b 18       		.uleb128 0x18
 6207 020c 9142     		.uleb128 0x2111
 6208 020e 18       		.uleb128 0x18
 6209 020f 00       		.byte	0
 6210 0210 00       		.byte	0
 6211 0211 2A       		.uleb128 0x2a
 6212 0212 2E       		.uleb128 0x2e
 6213 0213 01       		.byte	0x1
 6214 0214 03       		.uleb128 0x3
 6215 0215 0E       		.uleb128 0xe
 6216 0216 3A       		.uleb128 0x3a
 6217 0217 0B       		.uleb128 0xb
 6218 0218 3B       		.uleb128 0x3b
 6219 0219 0B       		.uleb128 0xb
 6220 021a 27       		.uleb128 0x27
 6221 021b 19       		.uleb128 0x19
 6222 021c 49       		.uleb128 0x49
 6223 021d 13       		.uleb128 0x13
 6224 021e 11       		.uleb128 0x11
 6225 021f 01       		.uleb128 0x1
 6226 0220 12       		.uleb128 0x12
 6227 0221 06       		.uleb128 0x6
 6228 0222 40       		.uleb128 0x40
 6229 0223 18       		.uleb128 0x18
 6230 0224 9642     		.uleb128 0x2116
 6231 0226 19       		.uleb128 0x19
 6232 0227 01       		.uleb128 0x1
 6233 0228 13       		.uleb128 0x13
 6234 0229 00       		.byte	0
 6235 022a 00       		.byte	0
 6236 022b 2B       		.uleb128 0x2b
 6237 022c 05       		.uleb128 0x5
 6238 022d 00       		.byte	0
 6239 022e 03       		.uleb128 0x3
 6240 022f 0E       		.uleb128 0xe
 6241 0230 3A       		.uleb128 0x3a
 6242 0231 0B       		.uleb128 0xb
 6243 0232 3B       		.uleb128 0x3b
 6244 0233 0B       		.uleb128 0xb
 6245 0234 49       		.uleb128 0x49
 6246 0235 13       		.uleb128 0x13
 6247 0236 02       		.uleb128 0x2
 6248 0237 17       		.uleb128 0x17
 6249 0238 00       		.byte	0
 6250 0239 00       		.byte	0
 6251 023a 2C       		.uleb128 0x2c
 6252 023b 34       		.uleb128 0x34
 6253 023c 00       		.byte	0
 6254 023d 03       		.uleb128 0x3
 6255 023e 0E       		.uleb128 0xe
 6256 023f 3A       		.uleb128 0x3a
ARM GAS  C:\Users\yomat\AppData\Local\Temp\cc0omv11.s 			page 191


 6257 0240 0B       		.uleb128 0xb
 6258 0241 3B       		.uleb128 0x3b
 6259 0242 0B       		.uleb128 0xb
 6260 0243 49       		.uleb128 0x49
 6261 0244 13       		.uleb128 0x13
 6262 0245 02       		.uleb128 0x2
 6263 0246 17       		.uleb128 0x17
 6264 0247 00       		.byte	0
 6265 0248 00       		.byte	0
 6266 0249 2D       		.uleb128 0x2d
 6267 024a 0B       		.uleb128 0xb
 6268 024b 01       		.byte	0x1
 6269 024c 11       		.uleb128 0x11
 6270 024d 01       		.uleb128 0x1
 6271 024e 12       		.uleb128 0x12
 6272 024f 06       		.uleb128 0x6
 6273 0250 00       		.byte	0
 6274 0251 00       		.byte	0
 6275 0252 2E       		.uleb128 0x2e
 6276 0253 34       		.uleb128 0x34
 6277 0254 00       		.byte	0
 6278 0255 03       		.uleb128 0x3
 6279 0256 0E       		.uleb128 0xe
 6280 0257 3A       		.uleb128 0x3a
 6281 0258 0B       		.uleb128 0xb
 6282 0259 3B       		.uleb128 0x3b
 6283 025a 0B       		.uleb128 0xb
 6284 025b 49       		.uleb128 0x49
 6285 025c 13       		.uleb128 0x13
 6286 025d 02       		.uleb128 0x2
 6287 025e 18       		.uleb128 0x18
 6288 025f 00       		.byte	0
 6289 0260 00       		.byte	0
 6290 0261 2F       		.uleb128 0x2f
 6291 0262 898201   		.uleb128 0x4109
 6292 0265 01       		.byte	0x1
 6293 0266 11       		.uleb128 0x11
 6294 0267 01       		.uleb128 0x1
 6295 0268 31       		.uleb128 0x31
 6296 0269 13       		.uleb128 0x13
 6297 026a 01       		.uleb128 0x1
 6298 026b 13       		.uleb128 0x13
 6299 026c 00       		.byte	0
 6300 026d 00       		.byte	0
 6301 026e 30       		.uleb128 0x30
 6302 026f 2E       		.uleb128 0x2e
 6303 0270 01       		.byte	0x1
 6304 0271 3F       		.uleb128 0x3f
 6305 0272 19       		.uleb128 0x19
 6306 0273 03       		.uleb128 0x3
 6307 0274 0E       		.uleb128 0xe
 6308 0275 3A       		.uleb128 0x3a
 6309 0276 0B       		.uleb128 0xb
 6310 0277 3B       		.uleb128 0x3b
 6311 0278 0B       		.uleb128 0xb
 6312 0279 27       		.uleb128 0x27
 6313 027a 19       		.uleb128 0x19
ARM GAS  C:\Users\yomat\AppData\Local\Temp\cc0omv11.s 			page 192


 6314 027b 11       		.uleb128 0x11
 6315 027c 01       		.uleb128 0x1
 6316 027d 12       		.uleb128 0x12
 6317 027e 06       		.uleb128 0x6
 6318 027f 40       		.uleb128 0x40
 6319 0280 18       		.uleb128 0x18
 6320 0281 9742     		.uleb128 0x2117
 6321 0283 19       		.uleb128 0x19
 6322 0284 01       		.uleb128 0x1
 6323 0285 13       		.uleb128 0x13
 6324 0286 00       		.byte	0
 6325 0287 00       		.byte	0
 6326 0288 31       		.uleb128 0x31
 6327 0289 1D       		.uleb128 0x1d
 6328 028a 01       		.byte	0x1
 6329 028b 31       		.uleb128 0x31
 6330 028c 13       		.uleb128 0x13
 6331 028d 11       		.uleb128 0x11
 6332 028e 01       		.uleb128 0x1
 6333 028f 12       		.uleb128 0x12
 6334 0290 06       		.uleb128 0x6
 6335 0291 58       		.uleb128 0x58
 6336 0292 0B       		.uleb128 0xb
 6337 0293 59       		.uleb128 0x59
 6338 0294 0B       		.uleb128 0xb
 6339 0295 01       		.uleb128 0x1
 6340 0296 13       		.uleb128 0x13
 6341 0297 00       		.byte	0
 6342 0298 00       		.byte	0
 6343 0299 32       		.uleb128 0x32
 6344 029a 05       		.uleb128 0x5
 6345 029b 00       		.byte	0
 6346 029c 31       		.uleb128 0x31
 6347 029d 13       		.uleb128 0x13
 6348 029e 02       		.uleb128 0x2
 6349 029f 17       		.uleb128 0x17
 6350 02a0 00       		.byte	0
 6351 02a1 00       		.byte	0
 6352 02a2 33       		.uleb128 0x33
 6353 02a3 1D       		.uleb128 0x1d
 6354 02a4 00       		.byte	0
 6355 02a5 31       		.uleb128 0x31
 6356 02a6 13       		.uleb128 0x13
 6357 02a7 11       		.uleb128 0x11
 6358 02a8 01       		.uleb128 0x1
 6359 02a9 12       		.uleb128 0x12
 6360 02aa 06       		.uleb128 0x6
 6361 02ab 58       		.uleb128 0x58
 6362 02ac 0B       		.uleb128 0xb
 6363 02ad 59       		.uleb128 0x59
 6364 02ae 05       		.uleb128 0x5
 6365 02af 00       		.byte	0
 6366 02b0 00       		.byte	0
 6367 02b1 34       		.uleb128 0x34
 6368 02b2 2E       		.uleb128 0x2e
 6369 02b3 01       		.byte	0x1
 6370 02b4 3F       		.uleb128 0x3f
ARM GAS  C:\Users\yomat\AppData\Local\Temp\cc0omv11.s 			page 193


 6371 02b5 19       		.uleb128 0x19
 6372 02b6 03       		.uleb128 0x3
 6373 02b7 0E       		.uleb128 0xe
 6374 02b8 3A       		.uleb128 0x3a
 6375 02b9 0B       		.uleb128 0xb
 6376 02ba 3B       		.uleb128 0x3b
 6377 02bb 0B       		.uleb128 0xb
 6378 02bc 27       		.uleb128 0x27
 6379 02bd 19       		.uleb128 0x19
 6380 02be 11       		.uleb128 0x11
 6381 02bf 01       		.uleb128 0x1
 6382 02c0 12       		.uleb128 0x12
 6383 02c1 06       		.uleb128 0x6
 6384 02c2 40       		.uleb128 0x40
 6385 02c3 18       		.uleb128 0x18
 6386 02c4 9642     		.uleb128 0x2116
 6387 02c6 19       		.uleb128 0x19
 6388 02c7 01       		.uleb128 0x1
 6389 02c8 13       		.uleb128 0x13
 6390 02c9 00       		.byte	0
 6391 02ca 00       		.byte	0
 6392 02cb 35       		.uleb128 0x35
 6393 02cc 898201   		.uleb128 0x4109
 6394 02cf 00       		.byte	0
 6395 02d0 11       		.uleb128 0x11
 6396 02d1 01       		.uleb128 0x1
 6397 02d2 31       		.uleb128 0x31
 6398 02d3 13       		.uleb128 0x13
 6399 02d4 00       		.byte	0
 6400 02d5 00       		.byte	0
 6401 02d6 36       		.uleb128 0x36
 6402 02d7 2E       		.uleb128 0x2e
 6403 02d8 01       		.byte	0x1
 6404 02d9 3F       		.uleb128 0x3f
 6405 02da 19       		.uleb128 0x19
 6406 02db 03       		.uleb128 0x3
 6407 02dc 0E       		.uleb128 0xe
 6408 02dd 3A       		.uleb128 0x3a
 6409 02de 0B       		.uleb128 0xb
 6410 02df 3B       		.uleb128 0x3b
 6411 02e0 0B       		.uleb128 0xb
 6412 02e1 27       		.uleb128 0x27
 6413 02e2 19       		.uleb128 0x19
 6414 02e3 8701     		.uleb128 0x87
 6415 02e5 19       		.uleb128 0x19
 6416 02e6 11       		.uleb128 0x11
 6417 02e7 01       		.uleb128 0x1
 6418 02e8 12       		.uleb128 0x12
 6419 02e9 06       		.uleb128 0x6
 6420 02ea 40       		.uleb128 0x40
 6421 02eb 18       		.uleb128 0x18
 6422 02ec 9742     		.uleb128 0x2117
 6423 02ee 19       		.uleb128 0x19
 6424 02ef 01       		.uleb128 0x1
 6425 02f0 13       		.uleb128 0x13
 6426 02f1 00       		.byte	0
 6427 02f2 00       		.byte	0
ARM GAS  C:\Users\yomat\AppData\Local\Temp\cc0omv11.s 			page 194


 6428 02f3 37       		.uleb128 0x37
 6429 02f4 1D       		.uleb128 0x1d
 6430 02f5 01       		.byte	0x1
 6431 02f6 31       		.uleb128 0x31
 6432 02f7 13       		.uleb128 0x13
 6433 02f8 11       		.uleb128 0x11
 6434 02f9 01       		.uleb128 0x1
 6435 02fa 12       		.uleb128 0x12
 6436 02fb 06       		.uleb128 0x6
 6437 02fc 58       		.uleb128 0x58
 6438 02fd 0B       		.uleb128 0xb
 6439 02fe 59       		.uleb128 0x59
 6440 02ff 05       		.uleb128 0x5
 6441 0300 01       		.uleb128 0x1
 6442 0301 13       		.uleb128 0x13
 6443 0302 00       		.byte	0
 6444 0303 00       		.byte	0
 6445 0304 38       		.uleb128 0x38
 6446 0305 1D       		.uleb128 0x1d
 6447 0306 01       		.byte	0x1
 6448 0307 31       		.uleb128 0x31
 6449 0308 13       		.uleb128 0x13
 6450 0309 11       		.uleb128 0x11
 6451 030a 01       		.uleb128 0x1
 6452 030b 12       		.uleb128 0x12
 6453 030c 06       		.uleb128 0x6
 6454 030d 58       		.uleb128 0x58
 6455 030e 0B       		.uleb128 0xb
 6456 030f 59       		.uleb128 0x59
 6457 0310 05       		.uleb128 0x5
 6458 0311 00       		.byte	0
 6459 0312 00       		.byte	0
 6460 0313 39       		.uleb128 0x39
 6461 0314 34       		.uleb128 0x34
 6462 0315 00       		.byte	0
 6463 0316 03       		.uleb128 0x3
 6464 0317 0E       		.uleb128 0xe
 6465 0318 3A       		.uleb128 0x3a
 6466 0319 0B       		.uleb128 0xb
 6467 031a 3B       		.uleb128 0x3b
 6468 031b 0B       		.uleb128 0xb
 6469 031c 49       		.uleb128 0x49
 6470 031d 13       		.uleb128 0x13
 6471 031e 1C       		.uleb128 0x1c
 6472 031f 0A       		.uleb128 0xa
 6473 0320 00       		.byte	0
 6474 0321 00       		.byte	0
 6475 0322 3A       		.uleb128 0x3a
 6476 0323 34       		.uleb128 0x34
 6477 0324 00       		.byte	0
 6478 0325 03       		.uleb128 0x3
 6479 0326 0E       		.uleb128 0xe
 6480 0327 3A       		.uleb128 0x3a
 6481 0328 0B       		.uleb128 0xb
 6482 0329 3B       		.uleb128 0x3b
 6483 032a 0B       		.uleb128 0xb
 6484 032b 49       		.uleb128 0x49
ARM GAS  C:\Users\yomat\AppData\Local\Temp\cc0omv11.s 			page 195


 6485 032c 13       		.uleb128 0x13
 6486 032d 1C       		.uleb128 0x1c
 6487 032e 0B       		.uleb128 0xb
 6488 032f 00       		.byte	0
 6489 0330 00       		.byte	0
 6490 0331 3B       		.uleb128 0x3b
 6491 0332 34       		.uleb128 0x34
 6492 0333 00       		.byte	0
 6493 0334 03       		.uleb128 0x3
 6494 0335 0E       		.uleb128 0xe
 6495 0336 3A       		.uleb128 0x3a
 6496 0337 0B       		.uleb128 0xb
 6497 0338 3B       		.uleb128 0x3b
 6498 0339 05       		.uleb128 0x5
 6499 033a 49       		.uleb128 0x49
 6500 033b 13       		.uleb128 0x13
 6501 033c 3F       		.uleb128 0x3f
 6502 033d 19       		.uleb128 0x19
 6503 033e 3C       		.uleb128 0x3c
 6504 033f 19       		.uleb128 0x19
 6505 0340 00       		.byte	0
 6506 0341 00       		.byte	0
 6507 0342 3C       		.uleb128 0x3c
 6508 0343 34       		.uleb128 0x34
 6509 0344 00       		.byte	0
 6510 0345 03       		.uleb128 0x3
 6511 0346 0E       		.uleb128 0xe
 6512 0347 3A       		.uleb128 0x3a
 6513 0348 0B       		.uleb128 0xb
 6514 0349 3B       		.uleb128 0x3b
 6515 034a 0B       		.uleb128 0xb
 6516 034b 49       		.uleb128 0x49
 6517 034c 13       		.uleb128 0x13
 6518 034d 3F       		.uleb128 0x3f
 6519 034e 19       		.uleb128 0x19
 6520 034f 3C       		.uleb128 0x3c
 6521 0350 19       		.uleb128 0x19
 6522 0351 00       		.byte	0
 6523 0352 00       		.byte	0
 6524 0353 3D       		.uleb128 0x3d
 6525 0354 34       		.uleb128 0x34
 6526 0355 00       		.byte	0
 6527 0356 03       		.uleb128 0x3
 6528 0357 0E       		.uleb128 0xe
 6529 0358 3A       		.uleb128 0x3a
 6530 0359 0B       		.uleb128 0xb
 6531 035a 3B       		.uleb128 0x3b
 6532 035b 0B       		.uleb128 0xb
 6533 035c 49       		.uleb128 0x49
 6534 035d 13       		.uleb128 0x13
 6535 035e 3F       		.uleb128 0x3f
 6536 035f 19       		.uleb128 0x19
 6537 0360 02       		.uleb128 0x2
 6538 0361 18       		.uleb128 0x18
 6539 0362 00       		.byte	0
 6540 0363 00       		.byte	0
 6541 0364 3E       		.uleb128 0x3e
ARM GAS  C:\Users\yomat\AppData\Local\Temp\cc0omv11.s 			page 196


 6542 0365 2E       		.uleb128 0x2e
 6543 0366 00       		.byte	0
 6544 0367 3F       		.uleb128 0x3f
 6545 0368 19       		.uleb128 0x19
 6546 0369 3C       		.uleb128 0x3c
 6547 036a 19       		.uleb128 0x19
 6548 036b 6E       		.uleb128 0x6e
 6549 036c 0E       		.uleb128 0xe
 6550 036d 03       		.uleb128 0x3
 6551 036e 0E       		.uleb128 0xe
 6552 036f 3A       		.uleb128 0x3a
 6553 0370 0B       		.uleb128 0xb
 6554 0371 3B       		.uleb128 0x3b
 6555 0372 0B       		.uleb128 0xb
 6556 0373 00       		.byte	0
 6557 0374 00       		.byte	0
 6558 0375 3F       		.uleb128 0x3f
 6559 0376 2E       		.uleb128 0x2e
 6560 0377 00       		.byte	0
 6561 0378 3F       		.uleb128 0x3f
 6562 0379 19       		.uleb128 0x19
 6563 037a 3C       		.uleb128 0x3c
 6564 037b 19       		.uleb128 0x19
 6565 037c 6E       		.uleb128 0x6e
 6566 037d 0E       		.uleb128 0xe
 6567 037e 03       		.uleb128 0x3
 6568 037f 0E       		.uleb128 0xe
 6569 0380 00       		.byte	0
 6570 0381 00       		.byte	0
 6571 0382 40       		.uleb128 0x40
 6572 0383 2E       		.uleb128 0x2e
 6573 0384 00       		.byte	0
 6574 0385 3F       		.uleb128 0x3f
 6575 0386 19       		.uleb128 0x19
 6576 0387 3C       		.uleb128 0x3c
 6577 0388 19       		.uleb128 0x19
 6578 0389 6E       		.uleb128 0x6e
 6579 038a 0E       		.uleb128 0xe
 6580 038b 03       		.uleb128 0x3
 6581 038c 0E       		.uleb128 0xe
 6582 038d 3A       		.uleb128 0x3a
 6583 038e 0B       		.uleb128 0xb
 6584 038f 3B       		.uleb128 0x3b
 6585 0390 0B       		.uleb128 0xb
 6586 0391 6E       		.uleb128 0x6e
 6587 0392 0E       		.uleb128 0xe
 6588 0393 00       		.byte	0
 6589 0394 00       		.byte	0
 6590 0395 41       		.uleb128 0x41
 6591 0396 2E       		.uleb128 0x2e
 6592 0397 00       		.byte	0
 6593 0398 3F       		.uleb128 0x3f
 6594 0399 19       		.uleb128 0x19
 6595 039a 3C       		.uleb128 0x3c
 6596 039b 19       		.uleb128 0x19
 6597 039c 6E       		.uleb128 0x6e
 6598 039d 0E       		.uleb128 0xe
ARM GAS  C:\Users\yomat\AppData\Local\Temp\cc0omv11.s 			page 197


 6599 039e 03       		.uleb128 0x3
 6600 039f 0E       		.uleb128 0xe
 6601 03a0 3A       		.uleb128 0x3a
 6602 03a1 0B       		.uleb128 0xb
 6603 03a2 3B       		.uleb128 0x3b
 6604 03a3 05       		.uleb128 0x5
 6605 03a4 00       		.byte	0
 6606 03a5 00       		.byte	0
 6607 03a6 00       		.byte	0
 6608              		.section	.debug_loc,"",%progbits
 6609              	.Ldebug_loc0:
 6610              	.LLST0:
 6611 0000 00000000 		.4byte	.LVL2
 6612 0004 1C000000 		.4byte	.LVL5
 6613 0008 0100     		.2byte	0x1
 6614 000a 50       		.byte	0x50
 6615 000b 1C000000 		.4byte	.LVL5
 6616 000f E8020000 		.4byte	.LFE698
 6617 0013 0400     		.2byte	0x4
 6618 0015 F3       		.byte	0xf3
 6619 0016 01       		.uleb128 0x1
 6620 0017 50       		.byte	0x50
 6621 0018 9F       		.byte	0x9f
 6622 0019 00000000 		.4byte	0
 6623 001d 00000000 		.4byte	0
 6624              	.LLST1:
 6625 0021 0C000000 		.4byte	.LVL3
 6626 0025 A0020000 		.4byte	.LVL41
 6627 0029 0200     		.2byte	0x2
 6628 002b 30       		.byte	0x30
 6629 002c 9F       		.byte	0x9f
 6630 002d A0020000 		.4byte	.LVL41
 6631 0031 A4020000 		.4byte	.LVL42
 6632 0035 0200     		.2byte	0x2
 6633 0037 31       		.byte	0x31
 6634 0038 9F       		.byte	0x9f
 6635 0039 A4020000 		.4byte	.LVL42
 6636 003d A6020000 		.4byte	.LVL43
 6637 0041 0200     		.2byte	0x2
 6638 0043 30       		.byte	0x30
 6639 0044 9F       		.byte	0x9f
 6640 0045 A6020000 		.4byte	.LVL43
 6641 0049 E8020000 		.4byte	.LFE698
 6642 004d 0100     		.2byte	0x1
 6643 004f 50       		.byte	0x50
 6644 0050 00000000 		.4byte	0
 6645 0054 00000000 		.4byte	0
 6646              	.LLST2:
 6647 0058 16000000 		.4byte	.LVL4
 6648 005c 78010000 		.4byte	.LVL22
 6649 0060 0300     		.2byte	0x3
 6650 0062 76       		.byte	0x76
 6651 0063 04       		.sleb128 4
 6652 0064 9F       		.byte	0x9f
 6653 0065 A4020000 		.4byte	.LVL42
 6654 0069 A6020000 		.4byte	.LVL43
 6655 006d 0300     		.2byte	0x3
ARM GAS  C:\Users\yomat\AppData\Local\Temp\cc0omv11.s 			page 198


 6656 006f 76       		.byte	0x76
 6657 0070 04       		.sleb128 4
 6658 0071 9F       		.byte	0x9f
 6659 0072 00000000 		.4byte	0
 6660 0076 00000000 		.4byte	0
 6661              	.LLST3:
 6662 007a 16000000 		.4byte	.LVL4
 6663 007e 1C000000 		.4byte	.LVL5
 6664 0082 0B00     		.2byte	0xb
 6665 0084 70       		.byte	0x70
 6666 0085 00       		.sleb128 0
 6667 0086 37       		.byte	0x37
 6668 0087 24       		.byte	0x24
 6669 0088 03       		.byte	0x3
 6670 0089 00000000 		.4byte	afe_calval
 6671 008d 22       		.byte	0x22
 6672 008e 9F       		.byte	0x9f
 6673 008f 1C000000 		.4byte	.LVL5
 6674 0093 50010000 		.4byte	.LVL19
 6675 0097 0B00     		.2byte	0xb
 6676 0099 74       		.byte	0x74
 6677 009a 00       		.sleb128 0
 6678 009b 37       		.byte	0x37
 6679 009c 24       		.byte	0x24
 6680 009d 03       		.byte	0x3
 6681 009e 00000000 		.4byte	afe_calval
 6682 00a2 22       		.byte	0x22
 6683 00a3 9F       		.byte	0x9f
 6684 00a4 A4020000 		.4byte	.LVL42
 6685 00a8 A6020000 		.4byte	.LVL43
 6686 00ac 0B00     		.2byte	0xb
 6687 00ae 74       		.byte	0x74
 6688 00af 00       		.sleb128 0
 6689 00b0 37       		.byte	0x37
 6690 00b1 24       		.byte	0x24
 6691 00b2 03       		.byte	0x3
 6692 00b3 00000000 		.4byte	afe_calval
 6693 00b7 22       		.byte	0x22
 6694 00b8 9F       		.byte	0x9f
 6695 00b9 00000000 		.4byte	0
 6696 00bd 00000000 		.4byte	0
 6697              	.LLST4:
 6698 00c1 00000000 		.4byte	.LVL44
 6699 00c5 42000000 		.4byte	.LVL48
 6700 00c9 0100     		.2byte	0x1
 6701 00cb 50       		.byte	0x50
 6702 00cc 42000000 		.4byte	.LVL48
 6703 00d0 70000000 		.4byte	.LVL54
 6704 00d4 0400     		.2byte	0x4
 6705 00d6 F3       		.byte	0xf3
 6706 00d7 01       		.uleb128 0x1
 6707 00d8 50       		.byte	0x50
 6708 00d9 9F       		.byte	0x9f
 6709 00da 70000000 		.4byte	.LVL54
 6710 00de A2000000 		.4byte	.LVL58
 6711 00e2 0100     		.2byte	0x1
 6712 00e4 50       		.byte	0x50
ARM GAS  C:\Users\yomat\AppData\Local\Temp\cc0omv11.s 			page 199


 6713 00e5 A2000000 		.4byte	.LVL58
 6714 00e9 D0000000 		.4byte	.LVL64
 6715 00ed 0400     		.2byte	0x4
 6716 00ef F3       		.byte	0xf3
 6717 00f0 01       		.uleb128 0x1
 6718 00f1 50       		.byte	0x50
 6719 00f2 9F       		.byte	0x9f
 6720 00f3 D0000000 		.4byte	.LVL64
 6721 00f7 FE000000 		.4byte	.LVL68
 6722 00fb 0100     		.2byte	0x1
 6723 00fd 50       		.byte	0x50
 6724 00fe FE000000 		.4byte	.LVL68
 6725 0102 58010000 		.4byte	.LFE695
 6726 0106 0400     		.2byte	0x4
 6727 0108 F3       		.byte	0xf3
 6728 0109 01       		.uleb128 0x1
 6729 010a 50       		.byte	0x50
 6730 010b 9F       		.byte	0x9f
 6731 010c 00000000 		.4byte	0
 6732 0110 00000000 		.4byte	0
 6733              	.LLST5:
 6734 0114 1A000000 		.4byte	.LVL45
 6735 0118 24000000 		.4byte	.LVL46
 6736 011c 0100     		.2byte	0x1
 6737 011e 53       		.byte	0x53
 6738 011f 00000000 		.4byte	0
 6739 0123 00000000 		.4byte	0
 6740              	.LLST6:
 6741 0127 4C000000 		.4byte	.LVL50
 6742 012b 56000000 		.4byte	.LVL51
 6743 012f 0100     		.2byte	0x1
 6744 0131 53       		.byte	0x53
 6745 0132 00000000 		.4byte	0
 6746 0136 00000000 		.4byte	0
 6747              	.LLST7:
 6748 013a 7A000000 		.4byte	.LVL55
 6749 013e 84000000 		.4byte	.LVL56
 6750 0142 0100     		.2byte	0x1
 6751 0144 53       		.byte	0x53
 6752 0145 00000000 		.4byte	0
 6753 0149 00000000 		.4byte	0
 6754              	.LLST8:
 6755 014d AC000000 		.4byte	.LVL60
 6756 0151 B6000000 		.4byte	.LVL61
 6757 0155 0100     		.2byte	0x1
 6758 0157 53       		.byte	0x53
 6759 0158 00000000 		.4byte	0
 6760 015c 00000000 		.4byte	0
 6761              	.LLST9:
 6762 0160 D6000000 		.4byte	.LVL65
 6763 0164 E0000000 		.4byte	.LVL66
 6764 0168 0100     		.2byte	0x1
 6765 016a 53       		.byte	0x53
 6766 016b 00000000 		.4byte	0
 6767 016f 00000000 		.4byte	0
 6768              	.LLST10:
 6769 0173 08010000 		.4byte	.LVL70
ARM GAS  C:\Users\yomat\AppData\Local\Temp\cc0omv11.s 			page 200


 6770 0177 12010000 		.4byte	.LVL71
 6771 017b 0100     		.2byte	0x1
 6772 017d 53       		.byte	0x53
 6773 017e 00000000 		.4byte	0
 6774 0182 00000000 		.4byte	0
 6775              	.LLST11:
 6776 0186 00000000 		.4byte	.LVL74
 6777 018a 0E000000 		.4byte	.LVL75
 6778 018e 0100     		.2byte	0x1
 6779 0190 50       		.byte	0x50
 6780 0191 0E000000 		.4byte	.LVL75
 6781 0195 20000000 		.4byte	.LFE696
 6782 0199 0400     		.2byte	0x4
 6783 019b F3       		.byte	0xf3
 6784 019c 01       		.uleb128 0x1
 6785 019d 50       		.byte	0x50
 6786 019e 9F       		.byte	0x9f
 6787 019f 00000000 		.4byte	0
 6788 01a3 00000000 		.4byte	0
 6789              	.LLST12:
 6790 01a7 00000000 		.4byte	.LVL77
 6791 01ab 0C000000 		.4byte	.LVL78
 6792 01af 0100     		.2byte	0x1
 6793 01b1 50       		.byte	0x50
 6794 01b2 0C000000 		.4byte	.LVL78
 6795 01b6 50010000 		.4byte	.LFE697
 6796 01ba 0400     		.2byte	0x4
 6797 01bc F3       		.byte	0xf3
 6798 01bd 01       		.uleb128 0x1
 6799 01be 50       		.byte	0x50
 6800 01bf 9F       		.byte	0x9f
 6801 01c0 00000000 		.4byte	0
 6802 01c4 00000000 		.4byte	0
 6803              	.LLST13:
 6804 01c8 D6000000 		.4byte	.LVL98
 6805 01cc DC000000 		.4byte	.LVL99
 6806 01d0 0200     		.2byte	0x2
 6807 01d2 30       		.byte	0x30
 6808 01d3 9F       		.byte	0x9f
 6809 01d4 00000000 		.4byte	0
 6810 01d8 00000000 		.4byte	0
 6811              	.LLST14:
 6812 01dc D6000000 		.4byte	.LVL98
 6813 01e0 DC000000 		.4byte	.LVL99
 6814 01e4 0200     		.2byte	0x2
 6815 01e6 31       		.byte	0x31
 6816 01e7 9F       		.byte	0x9f
 6817 01e8 00000000 		.4byte	0
 6818 01ec 00000000 		.4byte	0
 6819              	.LLST15:
 6820 01f0 D6000000 		.4byte	.LVL98
 6821 01f4 DC000000 		.4byte	.LVL99
 6822 01f8 0600     		.2byte	0x6
 6823 01fa 0C       		.byte	0xc
 6824 01fb 80033240 		.4byte	0x40320380
 6825 01ff 9F       		.byte	0x9f
 6826 0200 00000000 		.4byte	0
ARM GAS  C:\Users\yomat\AppData\Local\Temp\cc0omv11.s 			page 201


 6827 0204 00000000 		.4byte	0
 6828              	.LLST16:
 6829 0208 00000000 		.4byte	.LVL100
 6830 020c 02000000 		.4byte	.LVL101
 6831 0210 0100     		.2byte	0x1
 6832 0212 50       		.byte	0x50
 6833 0213 02000000 		.4byte	.LVL101
 6834 0217 58000000 		.4byte	.LFE699
 6835 021b 0400     		.2byte	0x4
 6836 021d F3       		.byte	0xf3
 6837 021e 01       		.uleb128 0x1
 6838 021f 50       		.byte	0x50
 6839 0220 9F       		.byte	0x9f
 6840 0221 00000000 		.4byte	0
 6841 0225 00000000 		.4byte	0
 6842              	.LLST17:
 6843 0229 2E000000 		.4byte	.LVL104
 6844 022d 40000000 		.4byte	.LVL106
 6845 0231 0600     		.2byte	0x6
 6846 0233 0C       		.byte	0xc
 6847 0234 00006640 		.4byte	0x40660000
 6848 0238 9F       		.byte	0x9f
 6849 0239 00000000 		.4byte	0
 6850 023d 00000000 		.4byte	0
 6851              	.LLST19:
 6852 0241 2E000000 		.4byte	.LVL104
 6853 0245 38000000 		.4byte	.LVL105
 6854 0249 0600     		.2byte	0x6
 6855 024b 0C       		.byte	0xc
 6856 024c 00006640 		.4byte	0x40660000
 6857 0250 9F       		.byte	0x9f
 6858 0251 00000000 		.4byte	0
 6859 0255 00000000 		.4byte	0
 6860              	.LLST20:
 6861 0259 38000000 		.4byte	.LVL105
 6862 025d 40000000 		.4byte	.LVL106
 6863 0261 0600     		.2byte	0x6
 6864 0263 0C       		.byte	0xc
 6865 0264 00006640 		.4byte	0x40660000
 6866 0268 9F       		.byte	0x9f
 6867 0269 00000000 		.4byte	0
 6868 026d 00000000 		.4byte	0
 6869              		.section	.debug_aranges,"",%progbits
 6870 0000 4C000000 		.4byte	0x4c
 6871 0004 0200     		.2byte	0x2
 6872 0006 00000000 		.4byte	.Ldebug_info0
 6873 000a 04       		.byte	0x4
 6874 000b 00       		.byte	0
 6875 000c 0000     		.2byte	0
 6876 000e 0000     		.2byte	0
 6877 0010 00000000 		.4byte	.LFB694
 6878 0014 20000000 		.4byte	.LFE694-.LFB694
 6879 0018 00000000 		.4byte	.LFB693
 6880 001c 1C000000 		.4byte	.LFE693-.LFB693
 6881 0020 00000000 		.4byte	.LFB698
 6882 0024 E8020000 		.4byte	.LFE698-.LFB698
 6883 0028 00000000 		.4byte	.LFB695
ARM GAS  C:\Users\yomat\AppData\Local\Temp\cc0omv11.s 			page 202


 6884 002c 58010000 		.4byte	.LFE695-.LFB695
 6885 0030 00000000 		.4byte	.LFB696
 6886 0034 20000000 		.4byte	.LFE696-.LFB696
 6887 0038 00000000 		.4byte	.LFB697
 6888 003c 50010000 		.4byte	.LFE697-.LFB697
 6889 0040 00000000 		.4byte	.LFB699
 6890 0044 58000000 		.4byte	.LFE699-.LFB699
 6891 0048 00000000 		.4byte	0
 6892 004c 00000000 		.4byte	0
 6893              		.section	.debug_ranges,"",%progbits
 6894              	.Ldebug_ranges0:
 6895 0000 00000000 		.4byte	.LFB694
 6896 0004 20000000 		.4byte	.LFE694
 6897 0008 00000000 		.4byte	.LFB693
 6898 000c 1C000000 		.4byte	.LFE693
 6899 0010 00000000 		.4byte	.LFB698
 6900 0014 E8020000 		.4byte	.LFE698
 6901 0018 00000000 		.4byte	.LFB695
 6902 001c 58010000 		.4byte	.LFE695
 6903 0020 00000000 		.4byte	.LFB696
 6904 0024 20000000 		.4byte	.LFE696
 6905 0028 00000000 		.4byte	.LFB697
 6906 002c 50010000 		.4byte	.LFE697
 6907 0030 00000000 		.4byte	.LFB699
 6908 0034 58000000 		.4byte	.LFE699
 6909 0038 00000000 		.4byte	0
 6910 003c 00000000 		.4byte	0
 6911              		.section	.debug_line,"",%progbits
 6912              	.Ldebug_line0:
 6913 0000 2D070000 		.section	.debug_str,"MS",%progbits,1
 6913      02009B05 
 6913      00000201 
 6913      FB0E0D00 
 6913      01010101 
 6914              	.LASF185:
 6915 0000 52534552 		.ascii	"RSERVED1\000"
 6915      56454431 
 6915      00
 6916              	.LASF508:
 6917 0009 43795F53 		.ascii	"Cy_SCB_UART_IsTxComplete\000"
 6917      43425F55 
 6917      4152545F 
 6917      49735478 
 6917      436F6D70 
 6918              	.LASF158:
 6919 0022 7564625F 		.ascii	"udb_interrupts_3_IRQn\000"
 6919      696E7465 
 6919      72727570 
 6919      74735F33 
 6919      5F495251 
 6920              	.LASF295:
 6921 0038 63727970 		.ascii	"cryptoBase\000"
 6921      746F4261 
 6921      736500
 6922              	.LASF359:
 6923 0043 63707573 		.ascii	"cpussCm0StatusOffset\000"
 6923      73436D30 
ARM GAS  C:\Users\yomat\AppData\Local\Temp\cc0omv11.s 			page 203


 6923      53746174 
 6923      75734F66 
 6923      66736574 
 6924              	.LASF16:
 6925 0058 73697A65 		.ascii	"sizetype\000"
 6925      74797065 
 6925      00
 6926              	.LASF244:
 6927 0061 52585F4D 		.ascii	"RX_MATCH\000"
 6927      41544348 
 6927      00
 6928              	.LASF411:
 6929 006a 63795F73 		.ascii	"cy_stc_scb_uart_context\000"
 6929      74635F73 
 6929      63625F75 
 6929      6172745F 
 6929      636F6E74 
 6930              	.LASF46:
 6931 0082 696F7373 		.ascii	"ioss_interrupts_gpio_13_IRQn\000"
 6931      5F696E74 
 6931      65727275 
 6931      7074735F 
 6931      6770696F 
 6932              	.LASF251:
 6933 009f 494E5452 		.ascii	"INTR_CAUSE\000"
 6933      5F434155 
 6933      534500
 6934              	.LASF494:
 6935 00aa 6C656431 		.ascii	"led1_min\000"
 6935      5F6D696E 
 6935      00
 6936              	.LASF226:
 6937 00b3 55415254 		.ascii	"UART_CTRL\000"
 6937      5F435452 
 6937      4C00
 6938              	.LASF418:
 6939 00bd 72784275 		.ascii	"rxBuf\000"
 6939      6600
 6940              	.LASF322:
 6941 00c3 63727970 		.ascii	"cryptoMemSize\000"
 6941      746F4D65 
 6941      6D53697A 
 6941      6500
 6942              	.LASF291:
 6943 00d1 6873696F 		.ascii	"hsiomBase\000"
 6943      6D426173 
 6943      6500
 6944              	.LASF124:
 6945 00db 74637077 		.ascii	"tcpwm_0_interrupts_1_IRQn\000"
 6945      6D5F305F 
 6945      696E7465 
 6945      72727570 
 6945      74735F31 
 6946              	.LASF473:
 6947 00f5 43595F42 		.ascii	"CY_BLE_CONN_STATE_CLIENT_DESCR_DISCOVERING\000"
 6947      4C455F43 
 6947      4F4E4E5F 
ARM GAS  C:\Users\yomat\AppData\Local\Temp\cc0omv11.s 			page 204


 6947      53544154 
 6947      455F434C 
 6948              	.LASF464:
 6949 0120 43595F42 		.ascii	"CY_BLE_ADV_STATE_ADVERTISING\000"
 6949      4C455F41 
 6949      44565F53 
 6949      54415445 
 6949      5F414456 
 6950              	.LASF62:
 6951 013d 63707573 		.ascii	"cpuss_interrupts_ipc_4_IRQn\000"
 6951      735F696E 
 6951      74657272 
 6951      75707473 
 6951      5F697063 
 6952              	.LASF130:
 6953 0159 74637077 		.ascii	"tcpwm_0_interrupts_7_IRQn\000"
 6953      6D5F305F 
 6953      696E7465 
 6953      72727570 
 6953      74735F37 
 6954              	.LASF38:
 6955 0173 696F7373 		.ascii	"ioss_interrupts_gpio_5_IRQn\000"
 6955      5F696E74 
 6955      65727275 
 6955      7074735F 
 6955      6770696F 
 6956              	.LASF79:
 6957 018f 7363625F 		.ascii	"scb_5_interrupt_IRQn\000"
 6957      355F696E 
 6957      74657272 
 6957      7570745F 
 6957      4952516E 
 6958              	.LASF55:
 6959 01a4 73727373 		.ascii	"srss_interrupt_IRQn\000"
 6959      5F696E74 
 6959      65727275 
 6959      70745F49 
 6959      52516E00 
 6960              	.LASF412:
 6961 01b8 74785374 		.ascii	"txStatus\000"
 6961      61747573 
 6961      00
 6962              	.LASF168:
 6963 01c1 7564625F 		.ascii	"udb_interrupts_13_IRQn\000"
 6963      696E7465 
 6963      72727570 
 6963      74735F31 
 6963      335F4952 
 6964              	.LASF137:
 6965 01d8 74637077 		.ascii	"tcpwm_1_interrupts_6_IRQn\000"
 6965      6D5F315F 
 6965      696E7465 
 6965      72727570 
 6965      74735F36 
 6966              	.LASF118:
 6967 01f2 63707573 		.ascii	"cpuss_interrupt_fm_IRQn\000"
 6967      735F696E 
ARM GAS  C:\Users\yomat\AppData\Local\Temp\cc0omv11.s 			page 205


 6967      74657272 
 6967      7570745F 
 6967      666D5F49 
 6968              	.LASF389:
 6969 020a 73746174 		.ascii	"state\000"
 6969      6500
 6970              	.LASF461:
 6971 0210 63795F73 		.ascii	"cy_stc_ble_gatt_handle_value_pair_t\000"
 6971      74635F62 
 6971      6C655F67 
 6971      6174745F 
 6971      68616E64 
 6972              	.LASF196:
 6973 0234 4F55545F 		.ascii	"OUT_SET\000"
 6973      53455400 
 6974              	.LASF352:
 6975 023c 6770696F 		.ascii	"gpioPrtCfgOffset\000"
 6975      50727443 
 6975      66674F66 
 6975      66736574 
 6975      00
 6976              	.LASF566:
 6977 024d 70757473 		.ascii	"puts\000"
 6977      00
 6978              	.LASF195:
 6979 0252 4F55545F 		.ascii	"OUT_CLR\000"
 6979      434C5200 
 6980              	.LASF263:
 6981 025a 494E5452 		.ascii	"INTR_M\000"
 6981      5F4D00
 6982              	.LASF287:
 6983 0261 666C6173 		.ascii	"flashcBase\000"
 6983      68634261 
 6983      736500
 6984              	.LASF435:
 6985 026c 636F6D70 		.ascii	"compare0\000"
 6985      61726530 
 6985      00
 6986              	.LASF436:
 6987 0275 636F6D70 		.ascii	"compare1\000"
 6987      61726531 
 6987      00
 6988              	.LASF314:
 6989 027e 73727373 		.ascii	"srssNumHfroot\000"
 6989      4E756D48 
 6989      66726F6F 
 6989      7400
 6990              	.LASF517:
 6991 028c 6376616C 		.ascii	"cval\000"
 6991      00
 6992              	.LASF174:
 6993 0291 70726F66 		.ascii	"profile_interrupt_IRQn\000"
 6993      696C655F 
 6993      696E7465 
 6993      72727570 
 6993      745F4952 
 6994              	.LASF45:
ARM GAS  C:\Users\yomat\AppData\Local\Temp\cc0omv11.s 			page 206


 6995 02a8 696F7373 		.ascii	"ioss_interrupts_gpio_12_IRQn\000"
 6995      5F696E74 
 6995      65727275 
 6995      7074735F 
 6995      6770696F 
 6996              	.LASF324:
 6997 02c5 666C6173 		.ascii	"flashPipeRequired\000"
 6997      68506970 
 6997      65526571 
 6997      75697265 
 6997      6400
 6998              	.LASF94:
 6999 02d7 63707573 		.ascii	"cpuss_interrupts_dw0_11_IRQn\000"
 6999      735F696E 
 6999      74657272 
 6999      75707473 
 6999      5F647730 
 7000              	.LASF175:
 7001 02f4 736D6966 		.ascii	"smif_interrupt_IRQn\000"
 7001      5F696E74 
 7001      65727275 
 7001      70745F49 
 7001      52516E00 
 7002              	.LASF145:
 7003 0308 74637077 		.ascii	"tcpwm_1_interrupts_14_IRQn\000"
 7003      6D5F315F 
 7003      696E7465 
 7003      72727570 
 7003      74735F31 
 7004              	.LASF199:
 7005 0323 494E5452 		.ascii	"INTR_MASK\000"
 7005      5F4D4153 
 7005      4B00
 7006              	.LASF114:
 7007 032d 63707573 		.ascii	"cpuss_interrupts_dw1_15_IRQn\000"
 7007      735F696E 
 7007      74657272 
 7007      75707473 
 7007      5F647731 
 7008              	.LASF450:
 7009 034a 636F756E 		.ascii	"countInputMode\000"
 7009      74496E70 
 7009      75744D6F 
 7009      646500
 7010              	.LASF278:
 7011 0359 494E5452 		.ascii	"INTR_RX\000"
 7011      5F525800 
 7012              	.LASF188:
 7013 0361 49435052 		.ascii	"ICPR\000"
 7013      00
 7014              	.LASF337:
 7015 0366 64775374 		.ascii	"dwStatusChIdxPos\000"
 7015      61747573 
 7015      43684964 
 7015      78506F73 
 7015      00
 7016              	.LASF235:
ARM GAS  C:\Users\yomat\AppData\Local\Temp\cc0omv11.s 			page 207


 7017 0377 4932435F 		.ascii	"I2C_CFG\000"
 7017      43464700 
 7018              	.LASF452:
 7019 037f 63795F73 		.ascii	"cy_stc_tcpwm_pwm_config_t\000"
 7019      74635F74 
 7019      6370776D 
 7019      5F70776D 
 7019      5F636F6E 
 7020              	.LASF87:
 7021 0399 63707573 		.ascii	"cpuss_interrupts_dw0_4_IRQn\000"
 7021      735F696E 
 7021      74657272 
 7021      75707473 
 7021      5F647730 
 7022              	.LASF61:
 7023 03b5 63707573 		.ascii	"cpuss_interrupts_ipc_3_IRQn\000"
 7023      735F696E 
 7023      74657272 
 7023      75707473 
 7023      5F697063 
 7024              	.LASF129:
 7025 03d1 74637077 		.ascii	"tcpwm_0_interrupts_6_IRQn\000"
 7025      6D5F305F 
 7025      696E7465 
 7025      72727570 
 7025      74735F36 
 7026              	.LASF162:
 7027 03eb 7564625F 		.ascii	"udb_interrupts_7_IRQn\000"
 7027      696E7465 
 7027      72727570 
 7027      74735F37 
 7027      5F495251 
 7028              	.LASF37:
 7029 0401 696F7373 		.ascii	"ioss_interrupts_gpio_4_IRQn\000"
 7029      5F696E74 
 7029      65727275 
 7029      7074735F 
 7029      6770696F 
 7030              	.LASF353:
 7031 041d 6770696F 		.ascii	"gpioPrtCfgInOffset\000"
 7031      50727443 
 7031      6667496E 
 7031      4F666673 
 7031      657400
 7032              	.LASF242:
 7033 0430 52585F46 		.ascii	"RX_FIFO_STATUS\000"
 7033      49464F5F 
 7033      53544154 
 7033      555300
 7034              	.LASF376:
 7035 043f 696E7472 		.ascii	"intrSrc\000"
 7035      53726300 
 7036              	.LASF453:
 7037 0447 62644861 		.ascii	"bdHandle\000"
 7037      6E646C65 
 7037      00
 7038              	.LASF299:
ARM GAS  C:\Users\yomat\AppData\Local\Temp\cc0omv11.s 			page 208


 7039 0450 666C6173 		.ascii	"flashcVersion\000"
 7039      68635665 
 7039      7273696F 
 7039      6E00
 7040              	.LASF3:
 7041 045e 5F5F7569 		.ascii	"__uint8_t\000"
 7041      6E74385F 
 7041      7400
 7042              	.LASF423:
 7043 0468 74784C65 		.ascii	"txLeftToTransmit\000"
 7043      6674546F 
 7043      5472616E 
 7043      736D6974 
 7043      00
 7044              	.LASF476:
 7045 0479 7265675F 		.ascii	"reg_sequence\000"
 7045      73657175 
 7045      656E6365 
 7045      00
 7046              	.LASF102:
 7047 0486 63707573 		.ascii	"cpuss_interrupts_dw1_3_IRQn\000"
 7047      735F696E 
 7047      74657272 
 7047      75707473 
 7047      5F647731 
 7048              	.LASF518:
 7049 04a2 68616E64 		.ascii	"handleValue\000"
 7049      6C655661 
 7049      6C756500 
 7050              	.LASF280:
 7051 04ae 494E5452 		.ascii	"INTR_RX_MASK\000"
 7051      5F52585F 
 7051      4D41534B 
 7051      00
 7052              	.LASF387:
 7053 04bb 75736552 		.ascii	"useRxFifo\000"
 7053      78466966 
 7053      6F00
 7054              	.LASF443:
 7055 04c5 73776170 		.ascii	"swapInput\000"
 7055      496E7075 
 7055      7400
 7056              	.LASF422:
 7057 04cf 74784275 		.ascii	"txBufSize\000"
 7057      6653697A 
 7057      6500
 7058              	.LASF240:
 7059 04d9 52585F43 		.ascii	"RX_CTRL\000"
 7059      54524C00 
 7060              	.LASF549:
 7061 04e1 4146455F 		.ascii	"AFE_st\000"
 7061      737400
 7062              	.LASF9:
 7063 04e8 6C6F6E67 		.ascii	"long int\000"
 7063      20696E74 
 7063      00
 7064              	.LASF210:
ARM GAS  C:\Users\yomat\AppData\Local\Temp\cc0omv11.s 			page 209


 7065 04f1 494E5452 		.ascii	"INTR_CAUSE0\000"
 7065      5F434155 
 7065      53453000 
 7066              	.LASF211:
 7067 04fd 494E5452 		.ascii	"INTR_CAUSE1\000"
 7067      5F434155 
 7067      53453100 
 7068              	.LASF212:
 7069 0509 494E5452 		.ascii	"INTR_CAUSE2\000"
 7069      5F434155 
 7069      53453200 
 7070              	.LASF213:
 7071 0515 494E5452 		.ascii	"INTR_CAUSE3\000"
 7071      5F434155 
 7071      53453300 
 7072              	.LASF474:
 7073 0521 43595F42 		.ascii	"CY_BLE_CONN_STATE_CLIENT_DISCOVERED\000"
 7073      4C455F43 
 7073      4F4E4E5F 
 7073      53544154 
 7073      455F434C 
 7074              	.LASF510:
 7075 0545 5F5F4E56 		.ascii	"__NVIC_EnableIRQ\000"
 7075      49435F45 
 7075      6E61626C 
 7075      65495251 
 7075      00
 7076              	.LASF155:
 7077 0556 7564625F 		.ascii	"udb_interrupts_0_IRQn\000"
 7077      696E7465 
 7077      72727570 
 7077      74735F30 
 7077      5F495251 
 7078              	.LASF144:
 7079 056c 74637077 		.ascii	"tcpwm_1_interrupts_13_IRQn\000"
 7079      6D5F315F 
 7079      696E7465 
 7079      72727570 
 7079      74735F31 
 7080              	.LASF459:
 7081 0587 76616C75 		.ascii	"value\000"
 7081      6500
 7082              	.LASF224:
 7083 058d 5350495F 		.ascii	"SPI_CTRL\000"
 7083      4354524C 
 7083      00
 7084              	.LASF319:
 7085 0596 75646250 		.ascii	"udbPresent\000"
 7085      72657365 
 7085      6E7400
 7086              	.LASF562:
 7087 05a1 55415254 		.ascii	"UART_IsTxComplete\000"
 7087      5F497354 
 7087      78436F6D 
 7087      706C6574 
 7087      6500
 7088              	.LASF485:
ARM GAS  C:\Users\yomat\AppData\Local\Temp\cc0omv11.s 			page 210


 7089 05b3 43616C56 		.ascii	"CalValue\000"
 7089      616C7565 
 7089      00
 7090              	.LASF340:
 7091 05bc 70657269 		.ascii	"periTrCmdGrSelMsk\000"
 7091      5472436D 
 7091      64477253 
 7091      656C4D73 
 7091      6B00
 7092              	.LASF444:
 7093 05ce 72656C6F 		.ascii	"reloadInputMode\000"
 7093      6164496E 
 7093      7075744D 
 7093      6F646500 
 7094              	.LASF273:
 7095 05de 494E5452 		.ascii	"INTR_TX\000"
 7095      5F545800 
 7096              	.LASF458:
 7097 05e6 63795F73 		.ascii	"cy_stc_ble_gatt_value_t\000"
 7097      74635F62 
 7097      6C655F67 
 7097      6174745F 
 7097      76616C75 
 7098              	.LASF347:
 7099 05fe 70657269 		.ascii	"periDiv8CtlOffset\000"
 7099      44697638 
 7099      43746C4F 
 7099      66667365 
 7099      7400
 7100              	.LASF276:
 7101 0610 494E5452 		.ascii	"INTR_TX_MASKED\000"
 7101      5F54585F 
 7101      4D41534B 
 7101      454400
 7102              	.LASF254:
 7103 061f 52455345 		.ascii	"RESERVED11\000"
 7103      52564544 
 7103      313100
 7104              	.LASF509:
 7105 062a 4952516E 		.ascii	"IRQn\000"
 7105      00
 7106              	.LASF342:
 7107 062f 70657269 		.ascii	"periTrGrSize\000"
 7107      54724772 
 7107      53697A65 
 7107      00
 7108              	.LASF547:
 7109 063c 53704F32 		.ascii	"SpO2\000"
 7109      00
 7110              	.LASF161:
 7111 0641 7564625F 		.ascii	"udb_interrupts_6_IRQn\000"
 7111      696E7465 
 7111      72727570 
 7111      74735F36 
 7111      5F495251 
 7112              	.LASF112:
 7113 0657 63707573 		.ascii	"cpuss_interrupts_dw1_13_IRQn\000"
ARM GAS  C:\Users\yomat\AppData\Local\Temp\cc0omv11.s 			page 211


 7113      735F696E 
 7113      74657272 
 7113      75707473 
 7113      5F647731 
 7114              	.LASF198:
 7115 0674 494E5452 		.ascii	"INTR\000"
 7115      00
 7116              	.LASF69:
 7117 0679 63707573 		.ascii	"cpuss_interrupts_ipc_11_IRQn\000"
 7117      735F696E 
 7117      74657272 
 7117      75707473 
 7117      5F697063 
 7118              	.LASF228:
 7119 0696 55415254 		.ascii	"UART_RX_CTRL\000"
 7119      5F52585F 
 7119      4354524C 
 7119      00
 7120              	.LASF538:
 7121 06a3 63795F62 		.ascii	"cy_ble_pendingFlashWrite\000"
 7121      6C655F70 
 7121      656E6469 
 7121      6E67466C 
 7121      61736857 
 7122              	.LASF279:
 7123 06bc 494E5452 		.ascii	"INTR_RX_SET\000"
 7123      5F52585F 
 7123      53455400 
 7124              	.LASF463:
 7125 06c8 43595F42 		.ascii	"CY_BLE_ADV_STATE_ADV_INITIATED\000"
 7125      4C455F41 
 7125      44565F53 
 7125      54415445 
 7125      5F414456 
 7126              	.LASF101:
 7127 06e7 63707573 		.ascii	"cpuss_interrupts_dw1_2_IRQn\000"
 7127      735F696E 
 7127      74657272 
 7127      75707473 
 7127      5F647731 
 7128              	.LASF207:
 7129 0703 4346475F 		.ascii	"CFG_IN_GPIO5V\000"
 7129      494E5F47 
 7129      50494F35 
 7129      5600
 7130              	.LASF32:
 7131 0711 53797354 		.ascii	"SysTick_IRQn\000"
 7131      69636B5F 
 7131      4952516E 
 7131      00
 7132              	.LASF477:
 7133 071e 5245475F 		.ascii	"REG_SEQENCE_T\000"
 7133      53455145 
 7133      4E43455F 
 7133      5400
 7134              	.LASF233:
 7135 072c 4932435F 		.ascii	"I2C_M_CMD\000"
ARM GAS  C:\Users\yomat\AppData\Local\Temp\cc0omv11.s 			page 212


 7135      4D5F434D 
 7135      4400
 7136              	.LASF82:
 7137 0736 6373645F 		.ascii	"csd_interrupt_IRQn\000"
 7137      696E7465 
 7137      72727570 
 7137      745F4952 
 7137      516E00
 7138              	.LASF425:
 7139 0749 63795F73 		.ascii	"cy_stc_scb_uart_context_t\000"
 7139      74635F73 
 7139      63625F75 
 7139      6172745F 
 7139      636F6E74 
 7140              	.LASF315:
 7141 0763 70657269 		.ascii	"periClockNr\000"
 7141      436C6F63 
 7141      6B4E7200 
 7142              	.LASF1:
 7143 076f 7369676E 		.ascii	"signed char\000"
 7143      65642063 
 7143      68617200 
 7144              	.LASF18:
 7145 077b 75696E74 		.ascii	"uint8_t\000"
 7145      385F7400 
 7146              	.LASF432:
 7147 0783 70657269 		.ascii	"period0\000"
 7147      6F643000 
 7148              	.LASF433:
 7149 078b 70657269 		.ascii	"period1\000"
 7149      6F643100 
 7150              	.LASF456:
 7151 0793 63795F62 		.ascii	"cy_ble_gatt_db_attr_handle_t\000"
 7151      6C655F67 
 7151      6174745F 
 7151      64625F61 
 7151      7474725F 
 7152              	.LASF345:
 7153 07b0 70657269 		.ascii	"periDivCmdPaDivSelPos\000"
 7153      44697643 
 7153      6D645061 
 7153      44697653 
 7153      656C506F 
 7154              	.LASF366:
 7155 07c6 63707573 		.ascii	"cpussRomCtl\000"
 7155      73526F6D 
 7155      43746C00 
 7156              	.LASF65:
 7157 07d2 63707573 		.ascii	"cpuss_interrupts_ipc_7_IRQn\000"
 7157      735F696E 
 7157      74657272 
 7157      75707473 
 7157      5F697063 
 7158              	.LASF401:
 7159 07ee 736C6176 		.ascii	"slaveTxBufferIdx\000"
 7159      65547842 
 7159      75666665 
ARM GAS  C:\Users\yomat\AppData\Local\Temp\cc0omv11.s 			page 213


 7159      72496478 
 7159      00
 7160              	.LASF491:
 7161 07ff 736B6970 		.ascii	"skip_cnt\000"
 7161      5F636E74 
 7161      00
 7162              	.LASF41:
 7163 0808 696F7373 		.ascii	"ioss_interrupts_gpio_8_IRQn\000"
 7163      5F696E74 
 7163      65727275 
 7163      7074735F 
 7163      6770696F 
 7164              	.LASF563:
 7165 0824 4146455F 		.ascii	"AFE_samp\000"
 7165      73616D70 
 7165      00
 7166              	.LASF416:
 7167 082d 72785269 		.ascii	"rxRingBufHead\000"
 7167      6E674275 
 7167      66486561 
 7167      6400
 7168              	.LASF403:
 7169 083b 736C6176 		.ascii	"slaveRxBuffer\000"
 7169      65527842 
 7169      75666665 
 7169      7200
 7170              	.LASF183:
 7171 0849 52455345 		.ascii	"RESERVED0\000"
 7171      52564544 
 7171      3000
 7172              	.LASF208:
 7173 0853 52455345 		.ascii	"RESERVED1\000"
 7173      52564544 
 7173      3100
 7174              	.LASF2:
 7175 085d 756E7369 		.ascii	"unsigned char\000"
 7175      676E6564 
 7175      20636861 
 7175      7200
 7176              	.LASF275:
 7177 086b 494E5452 		.ascii	"INTR_TX_MASK\000"
 7177      5F54585F 
 7177      4D41534B 
 7177      00
 7178              	.LASF191:
 7179 0878 52455345 		.ascii	"RESERVED4\000"
 7179      52564544 
 7179      3400
 7180              	.LASF192:
 7181 0882 52455345 		.ascii	"RESERVED5\000"
 7181      52564544 
 7181      3500
 7182              	.LASF243:
 7183 088c 52455345 		.ascii	"RESERVED6\000"
 7183      52564544 
 7183      3600
 7184              	.LASF245:
ARM GAS  C:\Users\yomat\AppData\Local\Temp\cc0omv11.s 			page 214


 7185 0896 52455345 		.ascii	"RESERVED7\000"
 7185      52564544 
 7185      3700
 7186              	.LASF248:
 7187 08a0 52455345 		.ascii	"RESERVED8\000"
 7187      52564544 
 7187      3800
 7188              	.LASF250:
 7189 08aa 52455345 		.ascii	"RESERVED9\000"
 7189      52564544 
 7189      3900
 7190              	.LASF408:
 7191 08b4 63795F73 		.ascii	"cy_stc_scb_i2c_context_t\000"
 7191      74635F73 
 7191      63625F69 
 7191      32635F63 
 7191      6F6E7465 
 7192              	.LASF190:
 7193 08cd 49414252 		.ascii	"IABR\000"
 7193      00
 7194              	.LASF140:
 7195 08d2 74637077 		.ascii	"tcpwm_1_interrupts_9_IRQn\000"
 7195      6D5F315F 
 7195      696E7465 
 7195      72727570 
 7195      74735F39 
 7196              	.LASF472:
 7197 08ec 43595F42 		.ascii	"CY_BLE_CONN_STATE_CLIENT_CHAR_DISCOVERING\000"
 7197      4C455F43 
 7197      4F4E4E5F 
 7197      53544154 
 7197      455F434C 
 7198              	.LASF178:
 7199 0916 7573625F 		.ascii	"usb_interrupt_lo_IRQn\000"
 7199      696E7465 
 7199      72727570 
 7199      745F6C6F 
 7199      5F495251 
 7200              	.LASF361:
 7201 092c 63707573 		.ascii	"cpussTrimRamCtlOffset\000"
 7201      73547269 
 7201      6D52616D 
 7201      43746C4F 
 7201      66667365 
 7202              	.LASF536:
 7203 0942 63795F62 		.ascii	"cy_ble_connHandle\000"
 7203      6C655F63 
 7203      6F6E6E48 
 7203      616E646C 
 7203      6500
 7204              	.LASF180:
 7205 0954 756E636F 		.ascii	"unconnected_IRQn\000"
 7205      6E6E6563 
 7205      7465645F 
 7205      4952516E 
 7205      00
 7206              	.LASF550:
ARM GAS  C:\Users\yomat\AppData\Local\Temp\cc0omv11.s 			page 215


 7207 0965 61666534 		.ascii	"afe4404ContiRead\000"
 7207      34303443 
 7207      6F6E7469 
 7207      52656164 
 7207      00
 7208              	.LASF381:
 7209 0976 5F426F6F 		.ascii	"_Bool\000"
 7209      6C00
 7210              	.LASF293:
 7211 097c 70617373 		.ascii	"passBase\000"
 7211      42617365 
 7211      00
 7212              	.LASF362:
 7213 0985 63707573 		.ascii	"cpussTrimRomCtlOffset\000"
 7213      73547269 
 7213      6D526F6D 
 7213      43746C4F 
 7213      66667365 
 7214              	.LASF504:
 7215 099b 43795F53 		.ascii	"Cy_SCB_GetTxSrValid\000"
 7215      43425F47 
 7215      65745478 
 7215      53725661 
 7215      6C696400 
 7216              	.LASF97:
 7217 09af 63707573 		.ascii	"cpuss_interrupts_dw0_14_IRQn\000"
 7217      735F696E 
 7217      74657272 
 7217      75707473 
 7217      5F647730 
 7218              	.LASF189:
 7219 09cc 52455345 		.ascii	"RESERVED3\000"
 7219      52564544 
 7219      3300
 7220              	.LASF28:
 7221 09d6 55736167 		.ascii	"UsageFault_IRQn\000"
 7221      65466175 
 7221      6C745F49 
 7221      52516E00 
 7222              	.LASF148:
 7223 09e6 74637077 		.ascii	"tcpwm_1_interrupts_17_IRQn\000"
 7223      6D5F315F 
 7223      696E7465 
 7223      72727570 
 7223      74735F31 
 7224              	.LASF17:
 7225 0a01 63686172 		.ascii	"char\000"
 7225      00
 7226              	.LASF234:
 7227 0a06 4932435F 		.ascii	"I2C_S_CMD\000"
 7227      535F434D 
 7227      4400
 7228              	.LASF501:
 7229 0a10 6C656431 		.ascii	"led1_ac\000"
 7229      5F616300 
 7230              	.LASF177:
 7231 0a18 7573625F 		.ascii	"usb_interrupt_med_IRQn\000"
ARM GAS  C:\Users\yomat\AppData\Local\Temp\cc0omv11.s 			page 216


 7231      696E7465 
 7231      72727570 
 7231      745F6D65 
 7231      645F4952 
 7232              	.LASF33:
 7233 0a2f 696F7373 		.ascii	"ioss_interrupts_gpio_0_IRQn\000"
 7233      5F696E74 
 7233      65727275 
 7233      7074735F 
 7233      6770696F 
 7234              	.LASF354:
 7235 0a4b 6770696F 		.ascii	"gpioPrtCfgOutOffset\000"
 7235      50727443 
 7235      66674F75 
 7235      744F6666 
 7235      73657400 
 7236              	.LASF268:
 7237 0a5f 494E5452 		.ascii	"INTR_S\000"
 7237      5F5300
 7238              	.LASF486:
 7239 0a66 6C656432 		.ascii	"led2\000"
 7239      00
 7240              	.LASF90:
 7241 0a6b 63707573 		.ascii	"cpuss_interrupts_dw0_7_IRQn\000"
 7241      735F696E 
 7241      74657272 
 7241      75707473 
 7241      5F647730 
 7242              	.LASF431:
 7243 0a87 72756E4D 		.ascii	"runMode\000"
 7243      6F646500 
 7244              	.LASF133:
 7245 0a8f 74637077 		.ascii	"tcpwm_1_interrupts_2_IRQn\000"
 7245      6D5F315F 
 7245      696E7465 
 7245      72727570 
 7245      74735F32 
 7246              	.LASF219:
 7247 0aa9 4750494F 		.ascii	"GPIO_V1_Type\000"
 7247      5F56315F 
 7247      54797065 
 7247      00
 7248              	.LASF64:
 7249 0ab6 63707573 		.ascii	"cpuss_interrupts_ipc_6_IRQn\000"
 7249      735F696E 
 7249      74657272 
 7249      75707473 
 7249      5F697063 
 7250              	.LASF419:
 7251 0ad2 72784275 		.ascii	"rxBufSize\000"
 7251      6653697A 
 7251      6500
 7252              	.LASF227:
 7253 0adc 55415254 		.ascii	"UART_TX_CTRL\000"
 7253      5F54585F 
 7253      4354524C 
 7253      00
ARM GAS  C:\Users\yomat\AppData\Local\Temp\cc0omv11.s 			page 217


 7254              	.LASF40:
 7255 0ae9 696F7373 		.ascii	"ioss_interrupts_gpio_7_IRQn\000"
 7255      5F696E74 
 7255      65727275 
 7255      7074735F 
 7255      6770696F 
 7256              	.LASF239:
 7257 0b05 54585F46 		.ascii	"TX_FIFO_WR\000"
 7257      49464F5F 
 7257      575200
 7258              	.LASF428:
 7259 0b10 636C6F63 		.ascii	"clockPrescaler\000"
 7259      6B507265 
 7259      7363616C 
 7259      657200
 7260              	.LASF187:
 7261 0b1f 52455345 		.ascii	"RESERVED2\000"
 7261      52564544 
 7261      3200
 7262              	.LASF503:
 7263 0b29 5F5F4453 		.ascii	"__DSB\000"
 7263      4200
 7264              	.LASF105:
 7265 0b2f 63707573 		.ascii	"cpuss_interrupts_dw1_6_IRQn\000"
 7265      735F696E 
 7265      74657272 
 7265      75707473 
 7265      5F647731 
 7266              	.LASF74:
 7267 0b4b 7363625F 		.ascii	"scb_0_interrupt_IRQn\000"
 7267      305F696E 
 7267      74657272 
 7267      7570745F 
 7267      4952516E 
 7268              	.LASF502:
 7269 0b60 5F5F4953 		.ascii	"__ISB\000"
 7269      4200
 7270              	.LASF309:
 7271 0b66 63707573 		.ascii	"cpussIpc0Irq\000"
 7271      73497063 
 7271      30497271 
 7271      00
 7272              	.LASF490:
 7273 0b73 73616D70 		.ascii	"sample_cnt\000"
 7273      6C655F63 
 7273      6E7400
 7274              	.LASF141:
 7275 0b7e 74637077 		.ascii	"tcpwm_1_interrupts_10_IRQn\000"
 7275      6D5F315F 
 7275      696E7465 
 7275      72727570 
 7275      74735F31 
 7276              	.LASF110:
 7277 0b99 63707573 		.ascii	"cpuss_interrupts_dw1_11_IRQn\000"
 7277      735F696E 
 7277      74657272 
 7277      75707473 
ARM GAS  C:\Users\yomat\AppData\Local\Temp\cc0omv11.s 			page 218


 7277      5F647731 
 7278              	.LASF203:
 7279 0bb6 4346475F 		.ascii	"CFG_IN\000"
 7279      494E00
 7280              	.LASF358:
 7281 0bbd 63707573 		.ascii	"cpussCm4StatusOffset\000"
 7281      73436D34 
 7281      53746174 
 7281      75734F66 
 7281      66736574 
 7282              	.LASF398:
 7283 0bd2 736C6176 		.ascii	"slaveRdBufEmpty\000"
 7283      65526442 
 7283      7566456D 
 7283      70747900 
 7284              	.LASF289:
 7285 0be2 75646242 		.ascii	"udbBase\000"
 7285      61736500 
 7286              	.LASF83:
 7287 0bea 63707573 		.ascii	"cpuss_interrupts_dw0_0_IRQn\000"
 7287      735F696E 
 7287      74657272 
 7287      75707473 
 7287      5F647730 
 7288              	.LASF216:
 7289 0c06 5644445F 		.ascii	"VDD_INTR_MASK\000"
 7289      494E5452 
 7289      5F4D4153 
 7289      4B00
 7290              	.LASF125:
 7291 0c14 74637077 		.ascii	"tcpwm_0_interrupts_2_IRQn\000"
 7291      6D5F305F 
 7291      696E7465 
 7291      72727570 
 7291      74735F32 
 7292              	.LASF186:
 7293 0c2e 49535052 		.ascii	"ISPR\000"
 7293      00
 7294              	.LASF146:
 7295 0c33 74637077 		.ascii	"tcpwm_1_interrupts_15_IRQn\000"
 7295      6D5F315F 
 7295      696E7465 
 7295      72727570 
 7295      74735F31 
 7296              	.LASF147:
 7297 0c4e 74637077 		.ascii	"tcpwm_1_interrupts_16_IRQn\000"
 7297      6D5F315F 
 7297      696E7465 
 7297      72727570 
 7297      74735F31 
 7298              	.LASF356:
 7299 0c69 63707573 		.ascii	"cpussCm0ClockCtlOffset\000"
 7299      73436D30 
 7299      436C6F63 
 7299      6B43746C 
 7299      4F666673 
 7300              	.LASF481:
ARM GAS  C:\Users\yomat\AppData\Local\Temp\cc0omv11.s 			page 219


 7301 0c80 4146455F 		.ascii	"AFE_ID_NUM\000"
 7301      49445F4E 
 7301      554D00
 7302              	.LASF341:
 7303 0c8b 70657269 		.ascii	"periTrGrOffset\000"
 7303      54724772 
 7303      4F666673 
 7303      657400
 7304              	.LASF402:
 7305 0c9a 736C6176 		.ascii	"slaveTxBufferCnt\000"
 7305      65547842 
 7305      75666665 
 7305      72436E74 
 7305      00
 7306              	.LASF371:
 7307 0cab 6970634C 		.ascii	"ipcLockStatusOffset\000"
 7307      6F636B53 
 7307      74617475 
 7307      734F6666 
 7307      73657400 
 7308              	.LASF164:
 7309 0cbf 7564625F 		.ascii	"udb_interrupts_9_IRQn\000"
 7309      696E7465 
 7309      72727570 
 7309      74735F39 
 7309      5F495251 
 7310              	.LASF426:
 7311 0cd5 63795F73 		.ascii	"cy_stc_tcpwm_pwm_config\000"
 7311      74635F74 
 7311      6370776D 
 7311      5F70776D 
 7311      5F636F6E 
 7312              	.LASF72:
 7313 0ced 63707573 		.ascii	"cpuss_interrupts_ipc_14_IRQn\000"
 7313      735F696E 
 7313      74657272 
 7313      75707473 
 7313      5F697063 
 7314              	.LASF193:
 7315 0d0a 53544952 		.ascii	"STIR\000"
 7315      00
 7316              	.LASF378:
 7317 0d0f 63795F73 		.ascii	"cy_stc_sysint_t\000"
 7317      74635F73 
 7317      7973696E 
 7317      745F7400 
 7318              	.LASF559:
 7319 0d1f 6C65645F 		.ascii	"led_task.c\000"
 7319      7461736B 
 7319      2E6300
 7320              	.LASF357:
 7321 0d2a 63707573 		.ascii	"cpussCm4ClockCtlOffset\000"
 7321      73436D34 
 7321      436C6F63 
 7321      6B43746C 
 7321      4F666673 
 7322              	.LASF551:
ARM GAS  C:\Users\yomat\AppData\Local\Temp\cc0omv11.s 			page 220


 7323 0d41 7072696E 		.ascii	"printf\000"
 7323      746600
 7324              	.LASF151:
 7325 0d48 74637077 		.ascii	"tcpwm_1_interrupts_20_IRQn\000"
 7325      6D5F315F 
 7325      696E7465 
 7325      72727570 
 7325      74735F32 
 7326              	.LASF179:
 7327 0d63 70617373 		.ascii	"pass_interrupt_dacs_IRQn\000"
 7327      5F696E74 
 7327      65727275 
 7327      70745F64 
 7327      6163735F 
 7328              	.LASF206:
 7329 0d7c 52455345 		.ascii	"RESERVED\000"
 7329      52564544 
 7329      00
 7330              	.LASF360:
 7331 0d85 63707573 		.ascii	"cpussCm4PwrCtlOffset\000"
 7331      73436D34 
 7331      50777243 
 7331      746C4F66 
 7331      66736574 
 7332              	.LASF229:
 7333 0d9a 55415254 		.ascii	"UART_RX_STATUS\000"
 7333      5F52585F 
 7333      53544154 
 7333      555300
 7334              	.LASF116:
 7335 0da9 63707573 		.ascii	"cpuss_interrupts_fault_1_IRQn\000"
 7335      735F696E 
 7335      74657272 
 7335      75707473 
 7335      5F666175 
 7336              	.LASF514:
 7337 0dc7 41464531 		.ascii	"AFE1_hdr\000"
 7337      5F686472 
 7337      00
 7338              	.LASF382:
 7339 0dd0 43595F53 		.ascii	"CY_SCB_I2C_ACK\000"
 7339      43425F49 
 7339      32435F41 
 7339      434B00
 7340              	.LASF500:
 7341 0ddf 6C656431 		.ascii	"led1_dc\000"
 7341      5F646300 
 7342              	.LASF523:
 7343 0de7 4146455F 		.ascii	"AFE_clr\000"
 7343      636C7200 
 7344              	.LASF332:
 7345 0def 666C6173 		.ascii	"flashCtlMainWs4Freq\000"
 7345      6843746C 
 7345      4D61696E 
 7345      57733446 
 7345      72657100 
 7346              	.LASF312:
ARM GAS  C:\Users\yomat\AppData\Local\Temp\cc0omv11.s 			page 221


 7347 0e03 73727373 		.ascii	"srssNumClkpath\000"
 7347      4E756D43 
 7347      6C6B7061 
 7347      746800
 7348              	.LASF217:
 7349 0e12 5644445F 		.ascii	"VDD_INTR_MASKED\000"
 7349      494E5452 
 7349      5F4D4153 
 7349      4B454400 
 7350              	.LASF311:
 7351 0e22 63707573 		.ascii	"cpussNotConnectedIrq\000"
 7351      734E6F74 
 7351      436F6E6E 
 7351      65637465 
 7351      64497271 
 7352              	.LASF545:
 7353 0e37 50574D5F 		.ascii	"PWM_CYC_config\000"
 7353      4359435F 
 7353      636F6E66 
 7353      696700
 7354              	.LASF157:
 7355 0e46 7564625F 		.ascii	"udb_interrupts_2_IRQn\000"
 7355      696E7465 
 7355      72727570 
 7355      74735F32 
 7355      5F495251 
 7356              	.LASF441:
 7357 0e5c 6B696C6C 		.ascii	"killMode\000"
 7357      4D6F6465 
 7357      00
 7358              	.LASF288:
 7359 0e65 70657269 		.ascii	"periBase\000"
 7359      42617365 
 7359      00
 7360              	.LASF394:
 7361 0e6e 6D617374 		.ascii	"masterBufferSize\000"
 7361      65724275 
 7361      66666572 
 7361      53697A65 
 7361      00
 7362              	.LASF439:
 7363 0e7f 696E7665 		.ascii	"invertPWMOut\000"
 7363      72745057 
 7363      4D4F7574 
 7363      00
 7364              	.LASF24:
 7365 0e8c 4E6F6E4D 		.ascii	"NonMaskableInt_IRQn\000"
 7365      61736B61 
 7365      626C6549 
 7365      6E745F49 
 7365      52516E00 
 7366              	.LASF142:
 7367 0ea0 74637077 		.ascii	"tcpwm_1_interrupts_11_IRQn\000"
 7367      6D5F315F 
 7367      696E7465 
 7367      72727570 
 7367      74735F31 
ARM GAS  C:\Users\yomat\AppData\Local\Temp\cc0omv11.s 			page 222


 7368              	.LASF308:
 7369 0ebb 63707573 		.ascii	"cpussFlashPaSize\000"
 7369      73466C61 
 7369      73685061 
 7369      53697A65 
 7369      00
 7370              	.LASF406:
 7371 0ecc 63624576 		.ascii	"cbEvents\000"
 7371      656E7473 
 7371      00
 7372              	.LASF11:
 7373 0ed5 6C6F6E67 		.ascii	"long unsigned int\000"
 7373      20756E73 
 7373      69676E65 
 7373      6420696E 
 7373      7400
 7374              	.LASF26:
 7375 0ee7 4D656D6F 		.ascii	"MemoryManagement_IRQn\000"
 7375      72794D61 
 7375      6E616765 
 7375      6D656E74 
 7375      5F495251 
 7376              	.LASF318:
 7377 0efd 65704D6F 		.ascii	"epMonitorNr\000"
 7377      6E69746F 
 7377      724E7200 
 7378              	.LASF384:
 7379 0f09 63795F65 		.ascii	"cy_en_scb_i2c_command_t\000"
 7379      6E5F7363 
 7379      625F6932 
 7379      635F636F 
 7379      6D6D616E 
 7380              	.LASF369:
 7381 0f21 63707573 		.ascii	"cpussRam2Ctl0\000"
 7381      7352616D 
 7381      3243746C 
 7381      3000
 7382              	.LASF265:
 7383 0f2f 494E5452 		.ascii	"INTR_M_MASK\000"
 7383      5F4D5F4D 
 7383      41534B00 
 7384              	.LASF81:
 7385 0f3b 7363625F 		.ascii	"scb_7_interrupt_IRQn\000"
 7385      375F696E 
 7385      74657272 
 7385      7570745F 
 7385      4952516E 
 7386              	.LASF181:
 7387 0f50 4952516E 		.ascii	"IRQn_Type\000"
 7387      5F547970 
 7387      6500
 7388              	.LASF313:
 7389 0f5a 73727373 		.ascii	"srssNumPll\000"
 7389      4E756D50 
 7389      6C6C00
 7390              	.LASF296:
 7391 0f65 63707573 		.ascii	"cpussVersion\000"
ARM GAS  C:\Users\yomat\AppData\Local\Temp\cc0omv11.s 			page 223


 7391      73566572 
 7391      73696F6E 
 7391      00
 7392              	.LASF131:
 7393 0f72 74637077 		.ascii	"tcpwm_1_interrupts_0_IRQn\000"
 7393      6D5F315F 
 7393      696E7465 
 7393      72727570 
 7393      74735F30 
 7394              	.LASF120:
 7395 0f8c 63707573 		.ascii	"cpuss_interrupts_cm0_cti_1_IRQn\000"
 7395      735F696E 
 7395      74657272 
 7395      75707473 
 7395      5F636D30 
 7396              	.LASF310:
 7397 0fac 63707573 		.ascii	"cpussFmIrq\000"
 7397      73466D49 
 7397      727100
 7398              	.LASF397:
 7399 0fb7 736C6176 		.ascii	"slaveStatus\000"
 7399      65537461 
 7399      74757300 
 7400              	.LASF321:
 7401 0fc3 70726F74 		.ascii	"protBusMasterMask\000"
 7401      4275734D 
 7401      61737465 
 7401      724D6173 
 7401      6B00
 7402              	.LASF527:
 7403 0fd5 7469615F 		.ascii	"tia_reg\000"
 7403      72656700 
 7404              	.LASF334:
 7405 0fdd 64774368 		.ascii	"dwChSize\000"
 7405      53697A65 
 7405      00
 7406              	.LASF379:
 7407 0fe6 43595F53 		.ascii	"CY_SYSPM_WAIT_FOR_INTERRUPT\000"
 7407      5953504D 
 7407      5F574149 
 7407      545F464F 
 7407      525F494E 
 7408              	.LASF167:
 7409 1002 7564625F 		.ascii	"udb_interrupts_12_IRQn\000"
 7409      696E7465 
 7409      72727570 
 7409      74735F31 
 7409      325F4952 
 7410              	.LASF136:
 7411 1019 74637077 		.ascii	"tcpwm_1_interrupts_5_IRQn\000"
 7411      6D5F315F 
 7411      696E7465 
 7411      72727570 
 7411      74735F35 
 7412              	.LASF67:
 7413 1033 63707573 		.ascii	"cpuss_interrupts_ipc_9_IRQn\000"
 7413      735F696E 
ARM GAS  C:\Users\yomat\AppData\Local\Temp\cc0omv11.s 			page 224


 7413      74657272 
 7413      75707473 
 7413      5F697063 
 7414              	.LASF316:
 7415 104f 736D6966 		.ascii	"smifDeviceNr\000"
 7415      44657669 
 7415      63654E72 
 7415      00
 7416              	.LASF76:
 7417 105c 7363625F 		.ascii	"scb_2_interrupt_IRQn\000"
 7417      325F696E 
 7417      74657272 
 7417      7570745F 
 7417      4952516E 
 7418              	.LASF108:
 7419 1071 63707573 		.ascii	"cpuss_interrupts_dw1_9_IRQn\000"
 7419      735F696E 
 7419      74657272 
 7419      75707473 
 7419      5F647731 
 7420              	.LASF470:
 7421 108d 43595F42 		.ascii	"CY_BLE_CONN_STATE_CLIENT_SRVC_DISCOVERING\000"
 7421      4C455F43 
 7421      4F4E4E5F 
 7421      53544154 
 7421      455F434C 
 7422              	.LASF516:
 7423 10b7 72657476 		.ascii	"retval\000"
 7423      616C00
 7424              	.LASF182:
 7425 10be 49534552 		.ascii	"ISER\000"
 7425      00
 7426              	.LASF348:
 7427 10c3 70657269 		.ascii	"periDiv16CtlOffset\000"
 7427      44697631 
 7427      3643746C 
 7427      4F666673 
 7427      657400
 7428              	.LASF93:
 7429 10d6 63707573 		.ascii	"cpuss_interrupts_dw0_10_IRQn\000"
 7429      735F696E 
 7429      74657272 
 7429      75707473 
 7429      5F647730 
 7430              	.LASF363:
 7431 10f3 63707573 		.ascii	"cpussSysTickCtlOffset\000"
 7431      73537973 
 7431      5469636B 
 7431      43746C4F 
 7431      66667365 
 7432              	.LASF438:
 7433 1109 696E7465 		.ascii	"interruptSources\000"
 7433      72727570 
 7433      74536F75 
 7433      72636573 
 7433      00
 7434              	.LASF27:
ARM GAS  C:\Users\yomat\AppData\Local\Temp\cc0omv11.s 			page 225


 7435 111a 42757346 		.ascii	"BusFault_IRQn\000"
 7435      61756C74 
 7435      5F495251 
 7435      6E00
 7436              	.LASF496:
 7437 1128 6C656432 		.ascii	"led2_sum\000"
 7437      5F73756D 
 7437      00
 7438              	.LASF400:
 7439 1131 736C6176 		.ascii	"slaveTxBufferSize\000"
 7439      65547842 
 7439      75666665 
 7439      7253697A 
 7439      6500
 7440              	.LASF35:
 7441 1143 696F7373 		.ascii	"ioss_interrupts_gpio_2_IRQn\000"
 7441      5F696E74 
 7441      65727275 
 7441      7074735F 
 7441      6770696F 
 7442              	.LASF344:
 7443 115f 70657269 		.ascii	"periDivCmdTypeSelPos\000"
 7443      44697643 
 7443      6D645479 
 7443      70655365 
 7443      6C506F73 
 7444              	.LASF113:
 7445 1174 63707573 		.ascii	"cpuss_interrupts_dw1_14_IRQn\000"
 7445      735F696E 
 7445      74657272 
 7445      75707473 
 7445      5F647731 
 7446              	.LASF286:
 7447 1191 63707573 		.ascii	"cpussBase\000"
 7447      73426173 
 7447      6500
 7448              	.LASF290:
 7449 119b 70726F74 		.ascii	"protBase\000"
 7449      42617365 
 7449      00
 7450              	.LASF442:
 7451 11a4 73776170 		.ascii	"swapInputMode\000"
 7451      496E7075 
 7451      744D6F64 
 7451      6500
 7452              	.LASF302:
 7453 11b2 69706356 		.ascii	"ipcVersion\000"
 7453      65727369 
 7453      6F6E00
 7454              	.LASF86:
 7455 11bd 63707573 		.ascii	"cpuss_interrupts_dw0_3_IRQn\000"
 7455      735F696E 
 7455      74657272 
 7455      75707473 
 7455      5F647730 
 7456              	.LASF10:
 7457 11d9 5F5F7569 		.ascii	"__uint32_t\000"
ARM GAS  C:\Users\yomat\AppData\Local\Temp\cc0omv11.s 			page 226


 7457      6E743332 
 7457      5F7400
 7458              	.LASF249:
 7459 11e4 455A5F44 		.ascii	"EZ_DATA\000"
 7459      41544100 
 7460              	.LASF60:
 7461 11ec 63707573 		.ascii	"cpuss_interrupts_ipc_2_IRQn\000"
 7461      735F696E 
 7461      74657272 
 7461      75707473 
 7461      5F697063 
 7462              	.LASF317:
 7463 1208 70617373 		.ascii	"passSarChannels\000"
 7463      53617243 
 7463      68616E6E 
 7463      656C7300 
 7464              	.LASF128:
 7465 1218 74637077 		.ascii	"tcpwm_0_interrupts_5_IRQn\000"
 7465      6D5F305F 
 7465      696E7465 
 7465      72727570 
 7465      74735F35 
 7466              	.LASF36:
 7467 1232 696F7373 		.ascii	"ioss_interrupts_gpio_3_IRQn\000"
 7467      5F696E74 
 7467      65727275 
 7467      7074735F 
 7467      6770696F 
 7468              	.LASF150:
 7469 124e 74637077 		.ascii	"tcpwm_1_interrupts_19_IRQn\000"
 7469      6D5F315F 
 7469      696E7465 
 7469      72727570 
 7469      74735F31 
 7470              	.LASF530:
 7471 1269 6166655F 		.ascii	"afe_init\000"
 7471      696E6974 
 7471      00
 7472              	.LASF204:
 7473 1272 4346475F 		.ascii	"CFG_OUT\000"
 7473      4F555400 
 7474              	.LASF396:
 7475 127a 6D617374 		.ascii	"masterNumBytes\000"
 7475      65724E75 
 7475      6D427974 
 7475      657300
 7476              	.LASF95:
 7477 1289 63707573 		.ascii	"cpuss_interrupts_dw0_12_IRQn\000"
 7477      735F696E 
 7477      74657272 
 7477      75707473 
 7477      5F647730 
 7478              	.LASF372:
 7479 12a6 63795F73 		.ascii	"cy_stc_device_t\000"
 7479      74635F64 
 7479      65766963 
 7479      655F7400 
ARM GAS  C:\Users\yomat\AppData\Local\Temp\cc0omv11.s 			page 227


 7480              	.LASF511:
 7481 12b6 5F5F4E56 		.ascii	"__NVIC_DisableIRQ\000"
 7481      49435F44 
 7481      69736162 
 7481      6C654952 
 7481      5100
 7482              	.LASF31:
 7483 12c8 50656E64 		.ascii	"PendSV_IRQn\000"
 7483      53565F49 
 7483      52516E00 
 7484              	.LASF92:
 7485 12d4 63707573 		.ascii	"cpuss_interrupts_dw0_9_IRQn\000"
 7485      735F696E 
 7485      74657272 
 7485      75707473 
 7485      5F647730 
 7486              	.LASF266:
 7487 12f0 494E5452 		.ascii	"INTR_M_MASKED\000"
 7487      5F4D5F4D 
 7487      41534B45 
 7487      4400
 7488              	.LASF166:
 7489 12fe 7564625F 		.ascii	"udb_interrupts_11_IRQn\000"
 7489      696E7465 
 7489      72727570 
 7489      74735F31 
 7489      315F4952 
 7490              	.LASF135:
 7491 1315 74637077 		.ascii	"tcpwm_1_interrupts_4_IRQn\000"
 7491      6D5F315F 
 7491      696E7465 
 7491      72727570 
 7491      74735F34 
 7492              	.LASF0:
 7493 132f 646F7562 		.ascii	"double\000"
 7493      6C6500
 7494              	.LASF29:
 7495 1336 53564361 		.ascii	"SVCall_IRQn\000"
 7495      6C6C5F49 
 7495      52516E00 
 7496              	.LASF297:
 7497 1342 63727970 		.ascii	"cryptoVersion\000"
 7497      746F5665 
 7497      7273696F 
 7497      6E00
 7498              	.LASF515:
 7499 1350 41464530 		.ascii	"AFE0_hdr\000"
 7499      5F686472 
 7499      00
 7500              	.LASF325:
 7501 1359 666C6173 		.ascii	"flashWriteDelay\000"
 7501      68577269 
 7501      74654465 
 7501      6C617900 
 7502              	.LASF323:
 7503 1369 666C6173 		.ascii	"flashRwwRequired\000"
 7503      68527777 
ARM GAS  C:\Users\yomat\AppData\Local\Temp\cc0omv11.s 			page 228


 7503      52657175 
 7503      69726564 
 7503      00
 7504              	.LASF331:
 7505 137a 666C6173 		.ascii	"flashCtlMainWs3Freq\000"
 7505      6843746C 
 7505      4D61696E 
 7505      57733346 
 7505      72657100 
 7506              	.LASF154:
 7507 138e 74637077 		.ascii	"tcpwm_1_interrupts_23_IRQn\000"
 7507      6D5F315F 
 7507      696E7465 
 7507      72727570 
 7507      74735F32 
 7508              	.LASF107:
 7509 13a9 63707573 		.ascii	"cpuss_interrupts_dw1_8_IRQn\000"
 7509      735F696E 
 7509      74657272 
 7509      75707473 
 7509      5F647731 
 7510              	.LASF420:
 7511 13c5 72784275 		.ascii	"rxBufIdx\000"
 7511      66496478 
 7511      00
 7512              	.LASF349:
 7513 13ce 70657269 		.ascii	"periDiv16_5CtlOffset\000"
 7513      44697631 
 7513      365F3543 
 7513      746C4F66 
 7513      66736574 
 7514              	.LASF567:
 7515 13e3 5F5F6275 		.ascii	"__builtin_puts\000"
 7515      696C7469 
 7515      6E5F7075 
 7515      747300
 7516              	.LASF533:
 7517 13f2 49544D5F 		.ascii	"ITM_RxBuffer\000"
 7517      52784275 
 7517      66666572 
 7517      00
 7518              	.LASF143:
 7519 13ff 74637077 		.ascii	"tcpwm_1_interrupts_12_IRQn\000"
 7519      6D5F315F 
 7519      696E7465 
 7519      72727570 
 7519      74735F31 
 7520              	.LASF374:
 7521 141a 666C6F61 		.ascii	"float\000"
 7521      7400
 7522              	.LASF225:
 7523 1420 5350495F 		.ascii	"SPI_STATUS\000"
 7523      53544154 
 7523      555300
 7524              	.LASF305:
 7525 142b 63707573 		.ascii	"cpussIpcNr\000"
 7525      73497063 
ARM GAS  C:\Users\yomat\AppData\Local\Temp\cc0omv11.s 			page 229


 7525      4E7200
 7526              	.LASF85:
 7527 1436 63707573 		.ascii	"cpuss_interrupts_dw0_2_IRQn\000"
 7527      735F696E 
 7527      74657272 
 7527      75707473 
 7527      5F647730 
 7528              	.LASF460:
 7529 1452 61747472 		.ascii	"attrHandle\000"
 7529      48616E64 
 7529      6C6500
 7530              	.LASF160:
 7531 145d 7564625F 		.ascii	"udb_interrupts_5_IRQn\000"
 7531      696E7465 
 7531      72727570 
 7531      74735F35 
 7531      5F495251 
 7532              	.LASF14:
 7533 1473 756E7369 		.ascii	"unsigned int\000"
 7533      676E6564 
 7533      20696E74 
 7533      00
 7534              	.LASF220:
 7535 1480 4354524C 		.ascii	"CTRL\000"
 7535      00
 7536              	.LASF68:
 7537 1485 63707573 		.ascii	"cpuss_interrupts_ipc_10_IRQn\000"
 7537      735F696E 
 7537      74657272 
 7537      75707473 
 7537      5F697063 
 7538              	.LASF483:
 7539 14a2 41666544 		.ascii	"AfeData\000"
 7539      61746100 
 7540              	.LASF468:
 7541 14aa 43595F42 		.ascii	"CY_BLE_CONN_STATE_CLIENT_DISCONNECTED_DISCOVERED\000"
 7541      4C455F43 
 7541      4F4E4E5F 
 7541      53544154 
 7541      455F434C 
 7542              	.LASF558:
 7543 14db 474E5520 		.ascii	"GNU C11 5.4.1 20160609 (release) [ARM/embedded-5-br"
 7543      43313120 
 7543      352E342E 
 7543      31203230 
 7543      31363036 
 7544 150e 616E6368 		.ascii	"anch revision 237715] -mcpu=cortex-m4 -mfloat-abi=s"
 7544      20726576 
 7544      6973696F 
 7544      6E203233 
 7544      37373135 
 7545 1541 6F667466 		.ascii	"oftfp -mfpu=fpv4-sp-d16 -mthumb -g -Og -ffunction-s"
 7545      70202D6D 
 7545      6670753D 
 7545      66707634 
 7545      2D73702D 
 7546 1574 65637469 		.ascii	"ections -ffat-lto-objects\000"
ARM GAS  C:\Users\yomat\AppData\Local\Temp\cc0omv11.s 			page 230


 7546      6F6E7320 
 7546      2D666661 
 7546      742D6C74 
 7546      6F2D6F62 
 7547              	.LASF427:
 7548 158e 70776D4D 		.ascii	"pwmMode\000"
 7548      6F646500 
 7549              	.LASF467:
 7550 1596 43595F42 		.ascii	"CY_BLE_CONN_STATE_DISCONNECTED\000"
 7550      4C455F43 
 7550      4F4E4E5F 
 7550      53544154 
 7550      455F4449 
 7551              	.LASF100:
 7552 15b5 63707573 		.ascii	"cpuss_interrupts_dw1_1_IRQn\000"
 7552      735F696E 
 7552      74657272 
 7552      75707473 
 7552      5F647731 
 7553              	.LASF437:
 7554 15d1 656E6162 		.ascii	"enableCompareSwap\000"
 7554      6C65436F 
 7554      6D706172 
 7554      65537761 
 7554      7000
 7555              	.LASF449:
 7556 15e3 6B696C6C 		.ascii	"killInput\000"
 7556      496E7075 
 7556      7400
 7557              	.LASF351:
 7558 15ed 6770696F 		.ascii	"gpioPrtIntrCfgOffset\000"
 7558      50727449 
 7558      6E747243 
 7558      66674F66 
 7558      66736574 
 7559              	.LASF368:
 7560 1602 63707573 		.ascii	"cpussRam1Ctl0\000"
 7560      7352616D 
 7560      3143746C 
 7560      3000
 7561              	.LASF451:
 7562 1610 636F756E 		.ascii	"countInput\000"
 7562      74496E70 
 7562      757400
 7563              	.LASF153:
 7564 161b 74637077 		.ascii	"tcpwm_1_interrupts_22_IRQn\000"
 7564      6D5F315F 
 7564      696E7465 
 7564      72727570 
 7564      74735F32 
 7565              	.LASF471:
 7566 1636 43595F42 		.ascii	"CY_BLE_CONN_STATE_CLIENT_INCL_DISCOVERING\000"
 7566      4C455F43 
 7566      4F4E4E5F 
 7566      53544154 
 7566      455F434C 
 7567              	.LASF236:
ARM GAS  C:\Users\yomat\AppData\Local\Temp\cc0omv11.s 			page 231


 7568 1660 54585F43 		.ascii	"TX_CTRL\000"
 7568      54524C00 
 7569              	.LASF255:
 7570 1668 494E5452 		.ascii	"INTR_I2C_EC_MASK\000"
 7570      5F493243 
 7570      5F45435F 
 7570      4D41534B 
 7570      00
 7571              	.LASF564:
 7572 1679 5461736B 		.ascii	"Task_LED\000"
 7572      5F4C4544 
 7572      00
 7573              	.LASF462:
 7574 1682 43595F42 		.ascii	"CY_BLE_ADV_STATE_STOPPED\000"
 7574      4C455F41 
 7574      44565F53 
 7574      54415445 
 7574      5F53544F 
 7575              	.LASF171:
 7576 169b 70617373 		.ascii	"pass_interrupt_sar_IRQn\000"
 7576      5F696E74 
 7576      65727275 
 7576      70745F73 
 7576      61725F49 
 7577              	.LASF466:
 7578 16b3 63795F65 		.ascii	"cy_en_ble_adv_state_t\000"
 7578      6E5F626C 
 7578      655F6164 
 7578      765F7374 
 7578      6174655F 
 7579              	.LASF48:
 7580 16c9 696F7373 		.ascii	"ioss_interrupt_gpio_IRQn\000"
 7580      5F696E74 
 7580      65727275 
 7580      70745F67 
 7580      70696F5F 
 7581              	.LASF513:
 7582 16e2 70696E4E 		.ascii	"pinNum\000"
 7582      756D00
 7583              	.LASF230:
 7584 16e9 55415254 		.ascii	"UART_FLOW_CTRL\000"
 7584      5F464C4F 
 7584      575F4354 
 7584      524C00
 7585              	.LASF404:
 7586 16f8 736C6176 		.ascii	"slaveRxBufferSize\000"
 7586      65527842 
 7586      75666665 
 7586      7253697A 
 7586      6500
 7587              	.LASF493:
 7588 170a 6C656432 		.ascii	"led2_max\000"
 7588      5F6D6178 
 7588      00
 7589              	.LASF170:
 7590 1713 7564625F 		.ascii	"udb_interrupts_15_IRQn\000"
 7590      696E7465 
ARM GAS  C:\Users\yomat\AppData\Local\Temp\cc0omv11.s 			page 232


 7590      72727570 
 7590      74735F31 
 7590      355F4952 
 7591              	.LASF385:
 7592 172a 63795F63 		.ascii	"cy_cb_scb_i2c_handle_events_t\000"
 7592      625F7363 
 7592      625F6932 
 7592      635F6861 
 7592      6E646C65 
 7593              	.LASF197:
 7594 1748 4F55545F 		.ascii	"OUT_INV\000"
 7594      494E5600 
 7595              	.LASF139:
 7596 1750 74637077 		.ascii	"tcpwm_1_interrupts_8_IRQn\000"
 7596      6D5F315F 
 7596      696E7465 
 7596      72727570 
 7596      74735F38 
 7597              	.LASF6:
 7598 176a 5F5F7569 		.ascii	"__uint16_t\000"
 7598      6E743136 
 7598      5F7400
 7599              	.LASF338:
 7600 1775 64775374 		.ascii	"dwStatusChIdxMsk\000"
 7600      61747573 
 7600      43684964 
 7600      784D736B 
 7600      00
 7601              	.LASF415:
 7602 1786 72785269 		.ascii	"rxRingBufSize\000"
 7602      6E674275 
 7602      6653697A 
 7602      6500
 7603              	.LASF285:
 7604 1794 43795343 		.ascii	"CySCB_Type\000"
 7604      425F5479 
 7604      706500
 7605              	.LASF327:
 7606 179f 666C6173 		.ascii	"flashEraseDelay\000"
 7606      68457261 
 7606      73654465 
 7606      6C617900 
 7607              	.LASF78:
 7608 17af 7363625F 		.ascii	"scb_4_interrupt_IRQn\000"
 7608      345F696E 
 7608      74657272 
 7608      7570745F 
 7608      4952516E 
 7609              	.LASF497:
 7610 17c4 6C656431 		.ascii	"led1_sum\000"
 7610      5F73756D 
 7610      00
 7611              	.LASF215:
 7612 17cd 5644445F 		.ascii	"VDD_INTR\000"
 7612      494E5452 
 7612      00
 7613              	.LASF260:
ARM GAS  C:\Users\yomat\AppData\Local\Temp\cc0omv11.s 			page 233


 7614 17d6 494E5452 		.ascii	"INTR_SPI_EC_MASK\000"
 7614      5F535049 
 7614      5F45435F 
 7614      4D41534B 
 7614      00
 7615              	.LASF560:
 7616 17e7 433A5C55 		.ascii	"C:\\Users\\yomat\\Documents\\PSoC Creator\\AFE_DevI"
 7616      73657273 
 7616      5C796F6D 
 7616      61745C44 
 7616      6F63756D 
 7617 1815 74656D31 		.ascii	"tem1\\AFE DevItem1.cydsn\000"
 7617      5C414645 
 7617      20446576 
 7617      4974656D 
 7617      312E6379 
 7618              	.LASF47:
 7619 182d 696F7373 		.ascii	"ioss_interrupts_gpio_14_IRQn\000"
 7619      5F696E74 
 7619      65727275 
 7619      7074735F 
 7619      6770696F 
 7620              	.LASF96:
 7621 184a 63707573 		.ascii	"cpuss_interrupts_dw0_13_IRQn\000"
 7621      735F696E 
 7621      74657272 
 7621      75707473 
 7621      5F647730 
 7622              	.LASF256:
 7623 1867 494E5452 		.ascii	"INTR_I2C_EC_MASKED\000"
 7623      5F493243 
 7623      5F45435F 
 7623      4D41534B 
 7623      454400
 7624              	.LASF134:
 7625 187a 74637077 		.ascii	"tcpwm_1_interrupts_3_IRQn\000"
 7625      6D5F315F 
 7625      696E7465 
 7625      72727570 
 7625      74735F33 
 7626              	.LASF15:
 7627 1894 6C6F6E67 		.ascii	"long double\000"
 7627      20646F75 
 7627      626C6500 
 7628              	.LASF53:
 7629 18a0 73727373 		.ascii	"srss_interrupt_mcwdt_1_IRQn\000"
 7629      5F696E74 
 7629      65727275 
 7629      70745F6D 
 7629      63776474 
 7630              	.LASF478:
 7631 18bc 41464530 		.ascii	"AFE0_ID\000"
 7631      5F494400 
 7632              	.LASF201:
 7633 18c4 494E5452 		.ascii	"INTR_SET\000"
 7633      5F534554 
 7633      00
ARM GAS  C:\Users\yomat\AppData\Local\Temp\cc0omv11.s 			page 234


 7634              	.LASF271:
 7635 18cd 494E5452 		.ascii	"INTR_S_MASKED\000"
 7635      5F535F4D 
 7635      41534B45 
 7635      4400
 7636              	.LASF487:
 7637 18db 616C6564 		.ascii	"aled2\000"
 7637      3200
 7638              	.LASF409:
 7639 18e1 63795F63 		.ascii	"cy_cb_scb_uart_handle_events_t\000"
 7639      625F7363 
 7639      625F7561 
 7639      72745F68 
 7639      616E646C 
 7640              	.LASF238:
 7641 1900 54585F46 		.ascii	"TX_FIFO_STATUS\000"
 7641      49464F5F 
 7641      53544154 
 7641      555300
 7642              	.LASF258:
 7643 190f 494E5452 		.ascii	"INTR_SPI_EC\000"
 7643      5F535049 
 7643      5F454300 
 7644              	.LASF89:
 7645 191b 63707573 		.ascii	"cpuss_interrupts_dw0_6_IRQn\000"
 7645      735F696E 
 7645      74657272 
 7645      75707473 
 7645      5F647730 
 7646              	.LASF505:
 7647 1937 43795F53 		.ascii	"Cy_SCB_GetNumInTxFifo\000"
 7647      43425F47 
 7647      65744E75 
 7647      6D496E54 
 7647      78466966 
 7648              	.LASF524:
 7649 194d 4146455F 		.ascii	"AFE_init\000"
 7649      696E6974 
 7649      00
 7650              	.LASF200:
 7651 1956 494E5452 		.ascii	"INTR_MASKED\000"
 7651      5F4D4153 
 7651      4B454400 
 7652              	.LASF132:
 7653 1962 74637077 		.ascii	"tcpwm_1_interrupts_1_IRQn\000"
 7653      6D5F315F 
 7653      696E7465 
 7653      72727570 
 7653      74735F31 
 7654              	.LASF63:
 7655 197c 63707573 		.ascii	"cpuss_interrupts_ipc_5_IRQn\000"
 7655      735F696E 
 7655      74657272 
 7655      75707473 
 7655      5F697063 
 7656              	.LASF39:
 7657 1998 696F7373 		.ascii	"ioss_interrupts_gpio_6_IRQn\000"
ARM GAS  C:\Users\yomat\AppData\Local\Temp\cc0omv11.s 			page 235


 7657      5F696E74 
 7657      65727275 
 7657      7074735F 
 7657      6770696F 
 7658              	.LASF173:
 7659 19b4 61756469 		.ascii	"audioss_interrupt_pdm_IRQn\000"
 7659      6F73735F 
 7659      696E7465 
 7659      72727570 
 7659      745F7064 
 7660              	.LASF542:
 7661 19cf 4932435F 		.ascii	"I2C_1_context\000"
 7661      315F636F 
 7661      6E746578 
 7661      7400
 7662              	.LASF522:
 7663 19dd 4146455F 		.ascii	"AFE_act\000"
 7663      61637400 
 7664              	.LASF554:
 7665 19e5 61666534 		.ascii	"afe4404Write\000"
 7665      34303457 
 7665      72697465 
 7665      00
 7666              	.LASF284:
 7667 19f2 4750494F 		.ascii	"GPIO_Type\000"
 7667      5F547970 
 7667      6500
 7668              	.LASF365:
 7669 19fc 63707573 		.ascii	"cpussCm4NmiCtlOffset\000"
 7669      73436D34 
 7669      4E6D6943 
 7669      746C4F66 
 7669      66736574 
 7670              	.LASF540:
 7671 1a11 4953525F 		.ascii	"ISR_AFE1_cfg\000"
 7671      41464531 
 7671      5F636667 
 7671      00
 7672              	.LASF57:
 7673 1a1e 626C6573 		.ascii	"bless_interrupt_IRQn\000"
 7673      735F696E 
 7673      74657272 
 7673      7570745F 
 7673      4952516E 
 7674              	.LASF364:
 7675 1a33 63707573 		.ascii	"cpussCm0NmiCtlOffset\000"
 7675      73436D30 
 7675      4E6D6943 
 7675      746C4F66 
 7675      66736574 
 7676              	.LASF482:
 7677 1a48 4146455F 		.ascii	"AFE_ID_E\000"
 7677      49445F45 
 7677      00
 7678              	.LASF194:
 7679 1a51 4E564943 		.ascii	"NVIC_Type\000"
 7679      5F547970 
ARM GAS  C:\Users\yomat\AppData\Local\Temp\cc0omv11.s 			page 236


 7679      6500
 7680              	.LASF529:
 7681 1a5b 4C45445F 		.ascii	"LED_CURR_MAX\000"
 7681      43555252 
 7681      5F4D4158 
 7681      00
 7682              	.LASF330:
 7683 1a68 666C6173 		.ascii	"flashCtlMainWs2Freq\000"
 7683      6843746C 
 7683      4D61696E 
 7683      57733246 
 7683      72657100 
 7684              	.LASF121:
 7685 1a7c 63707573 		.ascii	"cpuss_interrupts_cm4_cti_0_IRQn\000"
 7685      735F696E 
 7685      74657272 
 7685      75707473 
 7685      5F636D34 
 7686              	.LASF138:
 7687 1a9c 74637077 		.ascii	"tcpwm_1_interrupts_7_IRQn\000"
 7687      6D5F315F 
 7687      696E7465 
 7687      72727570 
 7687      74735F37 
 7688              	.LASF388:
 7689 1ab6 75736554 		.ascii	"useTxFifo\000"
 7689      78466966 
 7689      6F00
 7690              	.LASF373:
 7691 1ac0 63686172 		.ascii	"char_t\000"
 7691      5F7400
 7692              	.LASF13:
 7693 1ac7 6C6F6E67 		.ascii	"long long unsigned int\000"
 7693      206C6F6E 
 7693      6720756E 
 7693      7369676E 
 7693      65642069 
 7694              	.LASF202:
 7695 1ade 494E5452 		.ascii	"INTR_CFG\000"
 7695      5F434647 
 7695      00
 7696              	.LASF109:
 7697 1ae7 63707573 		.ascii	"cpuss_interrupts_dw1_10_IRQn\000"
 7697      735F696E 
 7697      74657272 
 7697      75707473 
 7697      5F647731 
 7698              	.LASF20:
 7699 1b04 75696E74 		.ascii	"uint16_t\000"
 7699      31365F74 
 7699      00
 7700              	.LASF176:
 7701 1b0d 7573625F 		.ascii	"usb_interrupt_hi_IRQn\000"
 7701      696E7465 
 7701      72727570 
 7701      745F6869 
 7701      5F495251 
ARM GAS  C:\Users\yomat\AppData\Local\Temp\cc0omv11.s 			page 237


 7702              	.LASF209:
 7703 1b23 4750494F 		.ascii	"GPIO_PRT_V1_Type\000"
 7703      5F505254 
 7703      5F56315F 
 7703      54797065 
 7703      00
 7704              	.LASF237:
 7705 1b34 54585F46 		.ascii	"TX_FIFO_CTRL\000"
 7705      49464F5F 
 7705      4354524C 
 7705      00
 7706              	.LASF531:
 7707 1b41 6166655F 		.ascii	"afe_data\000"
 7707      64617461 
 7707      00
 7708              	.LASF252:
 7709 1b4a 52455345 		.ascii	"RESERVED10\000"
 7709      52564544 
 7709      313000
 7710              	.LASF23:
 7711 1b55 52657365 		.ascii	"Reset_IRQn\000"
 7711      745F4952 
 7711      516E00
 7712              	.LASF257:
 7713 1b60 52455345 		.ascii	"RESERVED12\000"
 7713      52564544 
 7713      313200
 7714              	.LASF259:
 7715 1b6b 52455345 		.ascii	"RESERVED13\000"
 7715      52564544 
 7715      313300
 7716              	.LASF262:
 7717 1b76 52455345 		.ascii	"RESERVED14\000"
 7717      52564544 
 7717      313400
 7718              	.LASF267:
 7719 1b81 52455345 		.ascii	"RESERVED15\000"
 7719      52564544 
 7719      313500
 7720              	.LASF272:
 7721 1b8c 52455345 		.ascii	"RESERVED16\000"
 7721      52564544 
 7721      313600
 7722              	.LASF277:
 7723 1b97 52455345 		.ascii	"RESERVED17\000"
 7723      52564544 
 7723      313700
 7724              	.LASF282:
 7725 1ba2 43795343 		.ascii	"CySCB_V1_Type\000"
 7725      425F5631 
 7725      5F547970 
 7725      6500
 7726              	.LASF274:
 7727 1bb0 494E5452 		.ascii	"INTR_TX_SET\000"
 7727      5F54585F 
 7727      53455400 
 7728              	.LASF75:
ARM GAS  C:\Users\yomat\AppData\Local\Temp\cc0omv11.s 			page 238


 7729 1bbc 7363625F 		.ascii	"scb_1_interrupt_IRQn\000"
 7729      315F696E 
 7729      74657272 
 7729      7570745F 
 7729      4952516E 
 7730              	.LASF475:
 7731 1bd1 63795F65 		.ascii	"cy_en_ble_conn_state_t\000"
 7731      6E5F626C 
 7731      655F636F 
 7731      6E6E5F73 
 7731      74617465 
 7732              	.LASF88:
 7733 1be8 63707573 		.ascii	"cpuss_interrupts_dw0_5_IRQn\000"
 7733      735F696E 
 7733      74657272 
 7733      75707473 
 7733      5F647730 
 7734              	.LASF421:
 7735 1c04 74784275 		.ascii	"txBuf\000"
 7735      6600
 7736              	.LASF223:
 7737 1c0a 434D445F 		.ascii	"CMD_RESP_STATUS\000"
 7737      52455350 
 7737      5F535441 
 7737      54555300 
 7738              	.LASF465:
 7739 1c1a 43595F42 		.ascii	"CY_BLE_ADV_STATE_STOP_INITIATED\000"
 7739      4C455F41 
 7739      44565F53 
 7739      54415445 
 7739      5F53544F 
 7740              	.LASF163:
 7741 1c3a 7564625F 		.ascii	"udb_interrupts_8_IRQn\000"
 7741      696E7465 
 7741      72727570 
 7741      74735F38 
 7741      5F495251 
 7742              	.LASF71:
 7743 1c50 63707573 		.ascii	"cpuss_interrupts_ipc_13_IRQn\000"
 7743      735F696E 
 7743      74657272 
 7743      75707473 
 7743      5F697063 
 7744              	.LASF169:
 7745 1c6d 7564625F 		.ascii	"udb_interrupts_14_IRQn\000"
 7745      696E7465 
 7745      72727570 
 7745      74735F31 
 7745      345F4952 
 7746              	.LASF21:
 7747 1c84 696E7433 		.ascii	"int32_t\000"
 7747      325F7400 
 7748              	.LASF218:
 7749 1c8c 5644445F 		.ascii	"VDD_INTR_SET\000"
 7749      494E5452 
 7749      5F534554 
 7749      00
ARM GAS  C:\Users\yomat\AppData\Local\Temp\cc0omv11.s 			page 239


 7750              	.LASF307:
 7751 1c99 63707573 		.ascii	"cpussDwChNr\000"
 7751      73447743 
 7751      684E7200 
 7752              	.LASF350:
 7753 1ca5 70657269 		.ascii	"periDiv24_5CtlOffset\000"
 7753      44697632 
 7753      345F3543 
 7753      746C4F66 
 7753      66736574 
 7754              	.LASF184:
 7755 1cba 49434552 		.ascii	"ICER\000"
 7755      00
 7756              	.LASF367:
 7757 1cbf 63707573 		.ascii	"cpussRam0Ctl0\000"
 7757      7352616D 
 7757      3043746C 
 7757      3000
 7758              	.LASF565:
 7759 1ccd 6D656D73 		.ascii	"memset\000"
 7759      657400
 7760              	.LASF103:
 7761 1cd4 63707573 		.ascii	"cpuss_interrupts_dw1_4_IRQn\000"
 7761      735F696E 
 7761      74657272 
 7761      75707473 
 7761      5F647731 
 7762              	.LASF479:
 7763 1cf0 41464531 		.ascii	"AFE1_ID\000"
 7763      5F494400 
 7764              	.LASF115:
 7765 1cf8 63707573 		.ascii	"cpuss_interrupts_fault_0_IRQn\000"
 7765      735F696E 
 7765      74657272 
 7765      75707473 
 7765      5F666175 
 7766              	.LASF4:
 7767 1d16 5F5F696E 		.ascii	"__int16_t\000"
 7767      7431365F 
 7767      7400
 7768              	.LASF126:
 7769 1d20 74637077 		.ascii	"tcpwm_0_interrupts_3_IRQn\000"
 7769      6D5F305F 
 7769      696E7465 
 7769      72727570 
 7769      74735F33 
 7770              	.LASF489:
 7771 1d3a 616C6564 		.ascii	"aled1\000"
 7771      3100
 7772              	.LASF117:
 7773 1d40 63707573 		.ascii	"cpuss_interrupt_crypto_IRQn\000"
 7773      735F696E 
 7773      74657272 
 7773      7570745F 
 7773      63727970 
 7774              	.LASF44:
 7775 1d5c 696F7373 		.ascii	"ioss_interrupts_gpio_11_IRQn\000"
ARM GAS  C:\Users\yomat\AppData\Local\Temp\cc0omv11.s 			page 240


 7775      5F696E74 
 7775      65727275 
 7775      7074735F 
 7775      6770696F 
 7776              	.LASF222:
 7777 1d79 434D445F 		.ascii	"CMD_RESP_CTRL\000"
 7777      52455350 
 7777      5F435452 
 7777      4C00
 7778              	.LASF221:
 7779 1d87 53544154 		.ascii	"STATUS\000"
 7779      555300
 7780              	.LASF343:
 7781 1d8e 70657269 		.ascii	"periDivCmdDivSelMsk\000"
 7781      44697643 
 7781      6D644469 
 7781      7653656C 
 7781      4D736B00 
 7782              	.LASF521:
 7783 1da2 70777244 		.ascii	"pwrDwn\000"
 7783      776E00
 7784              	.LASF298:
 7785 1da9 64775665 		.ascii	"dwVersion\000"
 7785      7273696F 
 7785      6E00
 7786              	.LASF205:
 7787 1db3 4346475F 		.ascii	"CFG_SIO\000"
 7787      53494F00 
 7788              	.LASF172:
 7789 1dbb 61756469 		.ascii	"audioss_interrupt_i2s_IRQn\000"
 7789      6F73735F 
 7789      696E7465 
 7789      72727570 
 7789      745F6932 
 7790              	.LASF292:
 7791 1dd6 6770696F 		.ascii	"gpioBase\000"
 7791      42617365 
 7791      00
 7792              	.LASF123:
 7793 1ddf 74637077 		.ascii	"tcpwm_0_interrupts_0_IRQn\000"
 7793      6D5F305F 
 7793      696E7465 
 7793      72727570 
 7793      74735F30 
 7794              	.LASF156:
 7795 1df9 7564625F 		.ascii	"udb_interrupts_1_IRQn\000"
 7795      696E7465 
 7795      72727570 
 7795      74735F31 
 7795      5F495251 
 7796              	.LASF495:
 7797 1e0f 6C656431 		.ascii	"led1_max\000"
 7797      5F6D6178 
 7797      00
 7798              	.LASF270:
 7799 1e18 494E5452 		.ascii	"INTR_S_MASK\000"
 7799      5F535F4D 
ARM GAS  C:\Users\yomat\AppData\Local\Temp\cc0omv11.s 			page 241


 7799      41534B00 
 7800              	.LASF377:
 7801 1e24 696E7472 		.ascii	"intrPriority\000"
 7801      5072696F 
 7801      72697479 
 7801      00
 7802              	.LASF320:
 7803 1e31 73797350 		.ascii	"sysPmSimoPresent\000"
 7803      6D53696D 
 7803      6F507265 
 7803      73656E74 
 7803      00
 7804              	.LASF499:
 7805 1e42 6C656432 		.ascii	"led2_ac\000"
 7805      5F616300 
 7806              	.LASF264:
 7807 1e4a 494E5452 		.ascii	"INTR_M_SET\000"
 7807      5F4D5F53 
 7807      455400
 7808              	.LASF261:
 7809 1e55 494E5452 		.ascii	"INTR_SPI_EC_MASKED\000"
 7809      5F535049 
 7809      5F45435F 
 7809      4D41534B 
 7809      454400
 7810              	.LASF306:
 7811 1e68 63707573 		.ascii	"cpussIpcIrqNr\000"
 7811      73497063 
 7811      4972714E 
 7811      7200
 7812              	.LASF281:
 7813 1e76 494E5452 		.ascii	"INTR_RX_MASKED\000"
 7813      5F52585F 
 7813      4D41534B 
 7813      454400
 7814              	.LASF534:
 7815 1e85 63795F64 		.ascii	"cy_device\000"
 7815      65766963 
 7815      6500
 7816              	.LASF283:
 7817 1e8f 4750494F 		.ascii	"GPIO_PRT_Type\000"
 7817      5F505254 
 7817      5F547970 
 7817      6500
 7818              	.LASF455:
 7819 1e9d 63795F73 		.ascii	"cy_stc_ble_conn_handle_t\000"
 7819      74635F62 
 7819      6C655F63 
 7819      6F6E6E5F 
 7819      68616E64 
 7820              	.LASF30:
 7821 1eb6 44656275 		.ascii	"DebugMonitor_IRQn\000"
 7821      674D6F6E 
 7821      69746F72 
 7821      5F495251 
 7821      6E00
 7822              	.LASF446:
ARM GAS  C:\Users\yomat\AppData\Local\Temp\cc0omv11.s 			page 242


 7823 1ec8 73746172 		.ascii	"startInputMode\000"
 7823      74496E70 
 7823      75744D6F 
 7823      646500
 7824              	.LASF532:
 7825 1ed7 6166655F 		.ascii	"afe_calval\000"
 7825      63616C76 
 7825      616C00
 7826              	.LASF413:
 7827 1ee2 72785374 		.ascii	"rxStatus\000"
 7827      61747573 
 7827      00
 7828              	.LASF393:
 7829 1eeb 6D617374 		.ascii	"masterBuffer\000"
 7829      65724275 
 7829      66666572 
 7829      00
 7830              	.LASF407:
 7831 1ef8 63624164 		.ascii	"cbAddr\000"
 7831      647200
 7832              	.LASF70:
 7833 1eff 63707573 		.ascii	"cpuss_interrupts_ipc_12_IRQn\000"
 7833      735F696E 
 7833      74657272 
 7833      75707473 
 7833      5F697063 
 7834              	.LASF469:
 7835 1f1c 43595F42 		.ascii	"CY_BLE_CONN_STATE_CONNECTED\000"
 7835      4C455F43 
 7835      4F4E4E5F 
 7835      53544154 
 7835      455F434F 
 7836              	.LASF557:
 7837 1f38 43795F53 		.ascii	"Cy_SysPm_CpuEnterSleep\000"
 7837      7973506D 
 7837      5F437075 
 7837      456E7465 
 7837      72536C65 
 7838              	.LASF246:
 7839 1f4f 52585F46 		.ascii	"RX_FIFO_RD\000"
 7839      49464F5F 
 7839      524400
 7840              	.LASF80:
 7841 1f5a 7363625F 		.ascii	"scb_6_interrupt_IRQn\000"
 7841      365F696E 
 7841      74657272 
 7841      7570745F 
 7841      4952516E 
 7842              	.LASF375:
 7843 1f6f 75696E74 		.ascii	"uint8\000"
 7843      3800
 7844              	.LASF304:
 7845 1f75 70726F74 		.ascii	"protVersion\000"
 7845      56657273 
 7845      696F6E00 
 7846              	.LASF548:
 7847 1f81 4146455F 		.ascii	"AFE_id\000"
ARM GAS  C:\Users\yomat\AppData\Local\Temp\cc0omv11.s 			page 243


 7847      696400
 7848              	.LASF424:
 7849 1f88 696E6974 		.ascii	"initKey\000"
 7849      4B657900 
 7850              	.LASF303:
 7851 1f90 70657269 		.ascii	"periVersion\000"
 7851      56657273 
 7851      696F6E00 
 7852              	.LASF5:
 7853 1f9c 73686F72 		.ascii	"short int\000"
 7853      7420696E 
 7853      7400
 7854              	.LASF544:
 7855 1fa6 50574D5F 		.ascii	"PWM_AFE_config\000"
 7855      4146455F 
 7855      636F6E66 
 7855      696700
 7856              	.LASF119:
 7857 1fb5 63707573 		.ascii	"cpuss_interrupts_cm0_cti_0_IRQn\000"
 7857      735F696E 
 7857      74657272 
 7857      75707473 
 7857      5F636D30 
 7858              	.LASF561:
 7859 1fd5 41666549 		.ascii	"AfeId\000"
 7859      6400
 7860              	.LASF50:
 7861 1fdb 6C70636F 		.ascii	"lpcomp_interrupt_IRQn\000"
 7861      6D705F69 
 7861      6E746572 
 7861      72757074 
 7861      5F495251 
 7862              	.LASF56:
 7863 1ff1 70617373 		.ascii	"pass_interrupt_ctbs_IRQn\000"
 7863      5F696E74 
 7863      65727275 
 7863      70745F63 
 7863      7462735F 
 7864              	.LASF546:
 7865 200a 50574D5F 		.ascii	"PWM_TIM_config\000"
 7865      54494D5F 
 7865      636F6E66 
 7865      696700
 7866              	.LASF253:
 7867 2019 494E5452 		.ascii	"INTR_I2C_EC\000"
 7867      5F493243 
 7867      5F454300 
 7868              	.LASF19:
 7869 2025 696E7431 		.ascii	"int16_t\000"
 7869      365F7400 
 7870              	.LASF539:
 7871 202d 4953525F 		.ascii	"ISR_AFE0_cfg\000"
 7871      41464530 
 7871      5F636667 
 7871      00
 7872              	.LASF51:
 7873 203a 7363625F 		.ascii	"scb_8_interrupt_IRQn\000"
ARM GAS  C:\Users\yomat\AppData\Local\Temp\cc0omv11.s 			page 244


 7873      385F696E 
 7873      74657272 
 7873      7570745F 
 7873      4952516E 
 7874              	.LASF480:
 7875 204f 4E4F4146 		.ascii	"NOAFE_ID\000"
 7875      455F4944 
 7875      00
 7876              	.LASF66:
 7877 2058 63707573 		.ascii	"cpuss_interrupts_ipc_8_IRQn\000"
 7877      735F696E 
 7877      74657272 
 7877      75707473 
 7877      5F697063 
 7878              	.LASF329:
 7879 2074 666C6173 		.ascii	"flashCtlMainWs1Freq\000"
 7879      6843746C 
 7879      4D61696E 
 7879      57733146 
 7879      72657100 
 7880              	.LASF42:
 7881 2088 696F7373 		.ascii	"ioss_interrupts_gpio_9_IRQn\000"
 7881      5F696E74 
 7881      65727275 
 7881      7074735F 
 7881      6770696F 
 7882              	.LASF241:
 7883 20a4 52585F46 		.ascii	"RX_FIFO_CTRL\000"
 7883      49464F5F 
 7883      4354524C 
 7883      00
 7884              	.LASF122:
 7885 20b1 63707573 		.ascii	"cpuss_interrupts_cm4_cti_1_IRQn\000"
 7885      735F696E 
 7885      74657272 
 7885      75707473 
 7885      5F636D34 
 7886              	.LASF269:
 7887 20d1 494E5452 		.ascii	"INTR_S_SET\000"
 7887      5F535F53 
 7887      455400
 7888              	.LASF395:
 7889 20dc 6D617374 		.ascii	"masterBufferIdx\000"
 7889      65724275 
 7889      66666572 
 7889      49647800 
 7890              	.LASF537:
 7891 20ec 63795F62 		.ascii	"cy_ble_connState\000"
 7891      6C655F63 
 7891      6F6E6E53 
 7891      74617465 
 7891      00
 7892              	.LASF43:
 7893 20fd 696F7373 		.ascii	"ioss_interrupts_gpio_10_IRQn\000"
 7893      5F696E74 
 7893      65727275 
 7893      7074735F 
ARM GAS  C:\Users\yomat\AppData\Local\Temp\cc0omv11.s 			page 245


 7893      6770696F 
 7894              	.LASF390:
 7895 211a 6D617374 		.ascii	"masterStatus\000"
 7895      65725374 
 7895      61747573 
 7895      00
 7896              	.LASF326:
 7897 2127 666C6173 		.ascii	"flashProgramDelay\000"
 7897      6850726F 
 7897      6772616D 
 7897      44656C61 
 7897      7900
 7898              	.LASF430:
 7899 2139 64656164 		.ascii	"deadTimeClocks\000"
 7899      54696D65 
 7899      436C6F63 
 7899      6B7300
 7900              	.LASF214:
 7901 2148 5644445F 		.ascii	"VDD_ACTIVE\000"
 7901      41435449 
 7901      564500
 7902              	.LASF300:
 7903 2153 6770696F 		.ascii	"gpioVersion\000"
 7903      56657273 
 7903      696F6E00 
 7904              	.LASF355:
 7905 215f 6770696F 		.ascii	"gpioPrtCfgSioOffset\000"
 7905      50727443 
 7905      66675369 
 7905      6F4F6666 
 7905      73657400 
 7906              	.LASF498:
 7907 2173 6C656432 		.ascii	"led2_dc\000"
 7907      5F646300 
 7908              	.LASF492:
 7909 217b 6C656432 		.ascii	"led2_min\000"
 7909      5F6D696E 
 7909      00
 7910              	.LASF98:
 7911 2184 63707573 		.ascii	"cpuss_interrupts_dw0_15_IRQn\000"
 7911      735F696E 
 7911      74657272 
 7911      75707473 
 7911      5F647730 
 7912              	.LASF59:
 7913 21a1 63707573 		.ascii	"cpuss_interrupts_ipc_1_IRQn\000"
 7913      735F696E 
 7913      74657272 
 7913      75707473 
 7913      5F697063 
 7914              	.LASF127:
 7915 21bd 74637077 		.ascii	"tcpwm_0_interrupts_4_IRQn\000"
 7915      6D5F305F 
 7915      696E7465 
 7915      72727570 
 7915      74735F34 
 7916              	.LASF535:
ARM GAS  C:\Users\yomat\AppData\Local\Temp\cc0omv11.s 			page 246


 7917 21d7 63795F62 		.ascii	"cy_ble_advState\000"
 7917      6C655F61 
 7917      64765374 
 7917      61746500 
 7918              	.LASF149:
 7919 21e7 74637077 		.ascii	"tcpwm_1_interrupts_18_IRQn\000"
 7919      6D5F315F 
 7919      696E7465 
 7919      72727570 
 7919      74735F31 
 7920              	.LASF448:
 7921 2202 6B696C6C 		.ascii	"killInputMode\000"
 7921      496E7075 
 7921      744D6F64 
 7921      6500
 7922              	.LASF104:
 7923 2210 63707573 		.ascii	"cpuss_interrupts_dw1_5_IRQn\000"
 7923      735F696E 
 7923      74657272 
 7923      75707473 
 7923      5F647731 
 7924              	.LASF77:
 7925 222c 7363625F 		.ascii	"scb_3_interrupt_IRQn\000"
 7925      335F696E 
 7925      74657272 
 7925      7570745F 
 7925      4952516E 
 7926              	.LASF525:
 7927 2241 70765061 		.ascii	"pvParameters\000"
 7927      72616D65 
 7927      74657273 
 7927      00
 7928              	.LASF543:
 7929 224e 4932435F 		.ascii	"I2C_2_context\000"
 7929      325F636F 
 7929      6E746578 
 7929      7400
 7930              	.LASF91:
 7931 225c 63707573 		.ascii	"cpuss_interrupts_dw0_8_IRQn\000"
 7931      735F696E 
 7931      74657272 
 7931      75707473 
 7931      5F647730 
 7932              	.LASF555:
 7933 2278 61666534 		.ascii	"afe4404ContiWrite\000"
 7933      34303443 
 7933      6F6E7469 
 7933      57726974 
 7933      6500
 7934              	.LASF165:
 7935 228a 7564625F 		.ascii	"udb_interrupts_10_IRQn\000"
 7935      696E7465 
 7935      72727570 
 7935      74735F31 
 7935      305F4952 
 7936              	.LASF49:
 7937 22a1 696F7373 		.ascii	"ioss_interrupt_vdd_IRQn\000"
ARM GAS  C:\Users\yomat\AppData\Local\Temp\cc0omv11.s 			page 247


 7937      5F696E74 
 7937      65727275 
 7937      70745F76 
 7937      64645F49 
 7938              	.LASF552:
 7939 22b9 43795F42 		.ascii	"Cy_BLE_GATTS_WriteAttributeValueLocal\000"
 7939      4C455F47 
 7939      41545453 
 7939      5F577269 
 7939      74654174 
 7940              	.LASF232:
 7941 22df 4932435F 		.ascii	"I2C_STATUS\000"
 7941      53544154 
 7941      555300
 7942              	.LASF399:
 7943 22ea 736C6176 		.ascii	"slaveTxBuffer\000"
 7943      65547842 
 7943      75666665 
 7943      7200
 7944              	.LASF12:
 7945 22f8 6C6F6E67 		.ascii	"long long int\000"
 7945      206C6F6E 
 7945      6720696E 
 7945      7400
 7946              	.LASF22:
 7947 2306 75696E74 		.ascii	"uint32_t\000"
 7947      33325F74 
 7947      00
 7948              	.LASF541:
 7949 230f 55415254 		.ascii	"UART_context\000"
 7949      5F636F6E 
 7949      74657874 
 7949      00
 7950              	.LASF429:
 7951 231c 70776D41 		.ascii	"pwmAlignment\000"
 7951      6C69676E 
 7951      6D656E74 
 7951      00
 7952              	.LASF391:
 7953 2329 6D617374 		.ascii	"masterPause\000"
 7953      65725061 
 7953      75736500 
 7954              	.LASF106:
 7955 2335 63707573 		.ascii	"cpuss_interrupts_dw1_7_IRQn\000"
 7955      735F696E 
 7955      74657272 
 7955      75707473 
 7955      5F647731 
 7956              	.LASF392:
 7957 2351 6D617374 		.ascii	"masterRdDir\000"
 7957      65725264 
 7957      44697200 
 7958              	.LASF383:
 7959 235d 43595F53 		.ascii	"CY_SCB_I2C_NAK\000"
 7959      43425F49 
 7959      32435F4E 
 7959      414B00
ARM GAS  C:\Users\yomat\AppData\Local\Temp\cc0omv11.s 			page 248


 7960              	.LASF335:
 7961 236c 64774368 		.ascii	"dwChCtlPrioPos\000"
 7961      43746C50 
 7961      72696F50 
 7961      6F7300
 7962              	.LASF294:
 7963 237b 69706342 		.ascii	"ipcBase\000"
 7963      61736500 
 7964              	.LASF247:
 7965 2383 52585F46 		.ascii	"RX_FIFO_RD_SILENT\000"
 7965      49464F5F 
 7965      52445F53 
 7965      494C454E 
 7965      5400
 7966              	.LASF111:
 7967 2395 63707573 		.ascii	"cpuss_interrupts_dw1_12_IRQn\000"
 7967      735F696E 
 7967      74657272 
 7967      75707473 
 7967      5F647731 
 7968              	.LASF336:
 7969 23b2 64774368 		.ascii	"dwChCtlPreemptablePos\000"
 7969      43746C50 
 7969      7265656D 
 7969      70746162 
 7969      6C65506F 
 7970              	.LASF7:
 7971 23c8 73686F72 		.ascii	"short unsigned int\000"
 7971      7420756E 
 7971      7369676E 
 7971      65642069 
 7971      6E7400
 7972              	.LASF84:
 7973 23db 63707573 		.ascii	"cpuss_interrupts_dw0_1_IRQn\000"
 7973      735F696E 
 7973      74657272 
 7973      75707473 
 7973      5F647730 
 7974              	.LASF506:
 7975 23f7 62617365 		.ascii	"base\000"
 7975      00
 7976              	.LASF405:
 7977 23fc 736C6176 		.ascii	"slaveRxBufferIdx\000"
 7977      65527842 
 7977      75666665 
 7977      72496478 
 7977      00
 7978              	.LASF528:
 7979 240d 4C45445F 		.ascii	"LED_CURR_MIN\000"
 7979      43555252 
 7979      5F4D494E 
 7979      00
 7980              	.LASF58:
 7981 241a 63707573 		.ascii	"cpuss_interrupts_ipc_0_IRQn\000"
 7981      735F696E 
 7981      74657272 
 7981      75707473 
ARM GAS  C:\Users\yomat\AppData\Local\Temp\cc0omv11.s 			page 249


 7981      5F697063 
 7982              	.LASF346:
 7983 2436 70657269 		.ascii	"periDivCmdPaTypeSelPos\000"
 7983      44697643 
 7983      6D645061 
 7983      54797065 
 7983      53656C50 
 7984              	.LASF159:
 7985 244d 7564625F 		.ascii	"udb_interrupts_4_IRQn\000"
 7985      696E7465 
 7985      72727570 
 7985      74735F34 
 7985      5F495251 
 7986              	.LASF34:
 7987 2463 696F7373 		.ascii	"ioss_interrupts_gpio_1_IRQn\000"
 7987      5F696E74 
 7987      65727275 
 7987      7074735F 
 7987      6770696F 
 7988              	.LASF370:
 7989 247f 69706353 		.ascii	"ipcStructSize\000"
 7989      74727563 
 7989      7453697A 
 7989      6500
 7990              	.LASF457:
 7991 248d 61637475 		.ascii	"actualLen\000"
 7991      616C4C65 
 7991      6E00
 7992              	.LASF520:
 7993 2497 7077724F 		.ascii	"pwrOn\000"
 7993      6E00
 7994              	.LASF488:
 7995 249d 6C656431 		.ascii	"led1\000"
 7995      00
 7996              	.LASF339:
 7997 24a2 70657269 		.ascii	"periTrCmdOffset\000"
 7997      5472436D 
 7997      644F6666 
 7997      73657400 
 7998              	.LASF8:
 7999 24b2 5F5F696E 		.ascii	"__int32_t\000"
 7999      7433325F 
 7999      7400
 8000              	.LASF440:
 8001 24bc 696E7665 		.ascii	"invertPWMOutN\000"
 8001      72745057 
 8001      4D4F7574 
 8001      4E00
 8002              	.LASF519:
 8003 24ca 6166655F 		.ascii	"afe_id\000"
 8003      696400
 8004              	.LASF434:
 8005 24d1 656E6162 		.ascii	"enablePeriodSwap\000"
 8005      6C655065 
 8005      72696F64 
 8005      53776170 
 8005      00
ARM GAS  C:\Users\yomat\AppData\Local\Temp\cc0omv11.s 			page 250


 8006              	.LASF99:
 8007 24e2 63707573 		.ascii	"cpuss_interrupts_dw1_0_IRQn\000"
 8007      735F696E 
 8007      74657272 
 8007      75707473 
 8007      5F647731 
 8008              	.LASF556:
 8009 24fe 43795F53 		.ascii	"Cy_SysInt_Init\000"
 8009      7973496E 
 8009      745F496E 
 8009      697400
 8010              	.LASF454:
 8011 250d 61747449 		.ascii	"attId\000"
 8011      6400
 8012              	.LASF445:
 8013 2513 72656C6F 		.ascii	"reloadInput\000"
 8013      6164496E 
 8013      70757400 
 8014              	.LASF553:
 8015 251f 43795F42 		.ascii	"Cy_BLE_GATTS_SendNotification\000"
 8015      4C455F47 
 8015      41545453 
 8015      5F53656E 
 8015      644E6F74 
 8016              	.LASF507:
 8017 253d 43795F53 		.ascii	"Cy_SCB_IsTxComplete\000"
 8017      43425F49 
 8017      73547843 
 8017      6F6D706C 
 8017      65746500 
 8018              	.LASF73:
 8019 2551 63707573 		.ascii	"cpuss_interrupts_ipc_15_IRQn\000"
 8019      735F696E 
 8019      74657272 
 8019      75707473 
 8019      5F697063 
 8020              	.LASF417:
 8021 256e 72785269 		.ascii	"rxRingBufTail\000"
 8021      6E674275 
 8021      66546169 
 8021      6C00
 8022              	.LASF54:
 8023 257c 73727373 		.ascii	"srss_interrupt_backup_IRQn\000"
 8023      5F696E74 
 8023      65727275 
 8023      70745F62 
 8023      61636B75 
 8024              	.LASF526:
 8025 2597 7469615F 		.ascii	"tia_gain\000"
 8025      6761696E 
 8025      00
 8026              	.LASF25:
 8027 25a0 48617264 		.ascii	"HardFault_IRQn\000"
 8027      4661756C 
 8027      745F4952 
 8027      516E00
 8028              	.LASF52:
ARM GAS  C:\Users\yomat\AppData\Local\Temp\cc0omv11.s 			page 251


 8029 25af 73727373 		.ascii	"srss_interrupt_mcwdt_0_IRQn\000"
 8029      5F696E74 
 8029      65727275 
 8029      70745F6D 
 8029      63776474 
 8030              	.LASF512:
 8031 25cb 43795F47 		.ascii	"Cy_GPIO_Write\000"
 8031      50494F5F 
 8031      57726974 
 8031      6500
 8032              	.LASF152:
 8033 25d9 74637077 		.ascii	"tcpwm_1_interrupts_21_IRQn\000"
 8033      6D5F315F 
 8033      696E7465 
 8033      72727570 
 8033      74735F32 
 8034              	.LASF414:
 8035 25f4 72785269 		.ascii	"rxRingBuf\000"
 8035      6E674275 
 8035      6600
 8036              	.LASF410:
 8037 25fe 63795F73 		.ascii	"cy_stc_scb_i2c_context\000"
 8037      74635F73 
 8037      63625F69 
 8037      32635F63 
 8037      6F6E7465 
 8038              	.LASF484:
 8039 2615 64617461 		.ascii	"data\000"
 8039      00
 8040              	.LASF231:
 8041 261a 4932435F 		.ascii	"I2C_CTRL\000"
 8041      4354524C 
 8041      00
 8042              	.LASF447:
 8043 2623 73746172 		.ascii	"startInput\000"
 8043      74496E70 
 8043      757400
 8044              	.LASF328:
 8045 262e 666C6173 		.ascii	"flashCtlMainWs0Freq\000"
 8045      6843746C 
 8045      4D61696E 
 8045      57733046 
 8045      72657100 
 8046              	.LASF301:
 8047 2642 6873696F 		.ascii	"hsiomVersion\000"
 8047      6D566572 
 8047      73696F6E 
 8047      00
 8048              	.LASF380:
 8049 264f 43595F53 		.ascii	"CY_SYSPM_WAIT_FOR_EVENT\000"
 8049      5953504D 
 8049      5F574149 
 8049      545F464F 
 8049      525F4556 
 8050              	.LASF386:
 8051 2667 63795F63 		.ascii	"cy_cb_scb_i2c_handle_addr_t\000"
 8051      625F7363 
ARM GAS  C:\Users\yomat\AppData\Local\Temp\cc0omv11.s 			page 252


 8051      625F6932 
 8051      635F6861 
 8051      6E646C65 
 8052              	.LASF333:
 8053 2683 64774368 		.ascii	"dwChOffset\000"
 8053      4F666673 
 8053      657400
 8054              		.ident	"GCC: (GNU Tools for ARM Embedded Processors) 5.4.1 20160609 (release) [ARM/embedded-5-bran
