ARM GAS  C:\Users\yomat\AppData\Local\Temp\ccWoMvNR.s 			page 1


   1              		.syntax unified
   2              		.cpu cortex-m4
   3              		.eabi_attribute 27, 1
   4              		.fpu fpv4-sp-d16
   5              		.eabi_attribute 20, 1
   6              		.eabi_attribute 21, 1
   7              		.eabi_attribute 23, 3
   8              		.eabi_attribute 24, 1
   9              		.eabi_attribute 25, 1
  10              		.eabi_attribute 26, 1
  11              		.eabi_attribute 30, 1
  12              		.eabi_attribute 34, 1
  13              		.eabi_attribute 18, 4
  14              		.thumb
  15              		.syntax unified
  16              		.file	"list.c"
  17              		.text
  18              	.Ltext0:
  19              		.cfi_sections	.debug_frame
  20              		.section	.text.vListInitialise,"ax",%progbits
  21              		.align	2
  22              		.global	vListInitialise
  23              		.thumb
  24              		.thumb_func
  25              		.type	vListInitialise, %function
  26              	vListInitialise:
  27              	.LFB662:
  28              		.file 1 "Generated_Source\\PSoC6\\pdl\\rtos\\FreeRTOS\\10.0.1\\Source\\list.c"
   1:Generated_Source\PSoC6\pdl\rtos\FreeRTOS\10.0.1\Source/list.c **** /*
   2:Generated_Source\PSoC6\pdl\rtos\FreeRTOS\10.0.1\Source/list.c ****  * FreeRTOS Kernel V10.0.1
   3:Generated_Source\PSoC6\pdl\rtos\FreeRTOS\10.0.1\Source/list.c ****  * Copyright (C) 2017 Amazon.com, Inc. or its affiliates.  All Rights Reserved.
   4:Generated_Source\PSoC6\pdl\rtos\FreeRTOS\10.0.1\Source/list.c ****  *
   5:Generated_Source\PSoC6\pdl\rtos\FreeRTOS\10.0.1\Source/list.c ****  * Permission is hereby granted, free of charge, to any person obtaining a copy of
   6:Generated_Source\PSoC6\pdl\rtos\FreeRTOS\10.0.1\Source/list.c ****  * this software and associated documentation files (the "Software"), to deal in
   7:Generated_Source\PSoC6\pdl\rtos\FreeRTOS\10.0.1\Source/list.c ****  * the Software without restriction, including without limitation the rights to
   8:Generated_Source\PSoC6\pdl\rtos\FreeRTOS\10.0.1\Source/list.c ****  * use, copy, modify, merge, publish, distribute, sublicense, and/or sell copies of
   9:Generated_Source\PSoC6\pdl\rtos\FreeRTOS\10.0.1\Source/list.c ****  * the Software, and to permit persons to whom the Software is furnished to do so,
  10:Generated_Source\PSoC6\pdl\rtos\FreeRTOS\10.0.1\Source/list.c ****  * subject to the following conditions:
  11:Generated_Source\PSoC6\pdl\rtos\FreeRTOS\10.0.1\Source/list.c ****  *
  12:Generated_Source\PSoC6\pdl\rtos\FreeRTOS\10.0.1\Source/list.c ****  * The above copyright notice and this permission notice shall be included in all
  13:Generated_Source\PSoC6\pdl\rtos\FreeRTOS\10.0.1\Source/list.c ****  * copies or substantial portions of the Software.
  14:Generated_Source\PSoC6\pdl\rtos\FreeRTOS\10.0.1\Source/list.c ****  *
  15:Generated_Source\PSoC6\pdl\rtos\FreeRTOS\10.0.1\Source/list.c ****  * THE SOFTWARE IS PROVIDED "AS IS", WITHOUT WARRANTY OF ANY KIND, EXPRESS OR
  16:Generated_Source\PSoC6\pdl\rtos\FreeRTOS\10.0.1\Source/list.c ****  * IMPLIED, INCLUDING BUT NOT LIMITED TO THE WARRANTIES OF MERCHANTABILITY, FITNESS
  17:Generated_Source\PSoC6\pdl\rtos\FreeRTOS\10.0.1\Source/list.c ****  * FOR A PARTICULAR PURPOSE AND NONINFRINGEMENT. IN NO EVENT SHALL THE AUTHORS OR
  18:Generated_Source\PSoC6\pdl\rtos\FreeRTOS\10.0.1\Source/list.c ****  * COPYRIGHT HOLDERS BE LIABLE FOR ANY CLAIM, DAMAGES OR OTHER LIABILITY, WHETHER
  19:Generated_Source\PSoC6\pdl\rtos\FreeRTOS\10.0.1\Source/list.c ****  * IN AN ACTION OF CONTRACT, TORT OR OTHERWISE, ARISING FROM, OUT OF OR IN
  20:Generated_Source\PSoC6\pdl\rtos\FreeRTOS\10.0.1\Source/list.c ****  * CONNECTION WITH THE SOFTWARE OR THE USE OR OTHER DEALINGS IN THE SOFTWARE.
  21:Generated_Source\PSoC6\pdl\rtos\FreeRTOS\10.0.1\Source/list.c ****  *
  22:Generated_Source\PSoC6\pdl\rtos\FreeRTOS\10.0.1\Source/list.c ****  * http://www.FreeRTOS.org
  23:Generated_Source\PSoC6\pdl\rtos\FreeRTOS\10.0.1\Source/list.c ****  * http://aws.amazon.com/freertos
  24:Generated_Source\PSoC6\pdl\rtos\FreeRTOS\10.0.1\Source/list.c ****  *
  25:Generated_Source\PSoC6\pdl\rtos\FreeRTOS\10.0.1\Source/list.c ****  * 1 tab == 4 spaces!
  26:Generated_Source\PSoC6\pdl\rtos\FreeRTOS\10.0.1\Source/list.c ****  */
  27:Generated_Source\PSoC6\pdl\rtos\FreeRTOS\10.0.1\Source/list.c **** 
  28:Generated_Source\PSoC6\pdl\rtos\FreeRTOS\10.0.1\Source/list.c **** 
  29:Generated_Source\PSoC6\pdl\rtos\FreeRTOS\10.0.1\Source/list.c **** #include <stdlib.h>
ARM GAS  C:\Users\yomat\AppData\Local\Temp\ccWoMvNR.s 			page 2


  30:Generated_Source\PSoC6\pdl\rtos\FreeRTOS\10.0.1\Source/list.c **** #include "FreeRTOS.h"
  31:Generated_Source\PSoC6\pdl\rtos\FreeRTOS\10.0.1\Source/list.c **** #include "list.h"
  32:Generated_Source\PSoC6\pdl\rtos\FreeRTOS\10.0.1\Source/list.c **** 
  33:Generated_Source\PSoC6\pdl\rtos\FreeRTOS\10.0.1\Source/list.c **** /*-----------------------------------------------------------
  34:Generated_Source\PSoC6\pdl\rtos\FreeRTOS\10.0.1\Source/list.c ****  * PUBLIC LIST API documented in list.h
  35:Generated_Source\PSoC6\pdl\rtos\FreeRTOS\10.0.1\Source/list.c ****  *----------------------------------------------------------*/
  36:Generated_Source\PSoC6\pdl\rtos\FreeRTOS\10.0.1\Source/list.c **** 
  37:Generated_Source\PSoC6\pdl\rtos\FreeRTOS\10.0.1\Source/list.c **** void vListInitialise( List_t * const pxList )
  38:Generated_Source\PSoC6\pdl\rtos\FreeRTOS\10.0.1\Source/list.c **** {
  29              		.loc 1 38 0
  30              		.cfi_startproc
  31              		@ args = 0, pretend = 0, frame = 0
  32              		@ frame_needed = 0, uses_anonymous_args = 0
  33              		@ link register save eliminated.
  34              	.LVL0:
  39:Generated_Source\PSoC6\pdl\rtos\FreeRTOS\10.0.1\Source/list.c **** 	/* The list structure contains a list item which is used to mark the
  40:Generated_Source\PSoC6\pdl\rtos\FreeRTOS\10.0.1\Source/list.c **** 	end of the list.  To initialise the list the list end is inserted
  41:Generated_Source\PSoC6\pdl\rtos\FreeRTOS\10.0.1\Source/list.c **** 	as the only list entry. */
  42:Generated_Source\PSoC6\pdl\rtos\FreeRTOS\10.0.1\Source/list.c **** 	pxList->pxIndex = ( ListItem_t * ) &( pxList->xListEnd );			/*lint !e826 !e740 The mini list struc
  35              		.loc 1 42 0
  36 0000 00F10803 		add	r3, r0, #8
  37 0004 4360     		str	r3, [r0, #4]
  43:Generated_Source\PSoC6\pdl\rtos\FreeRTOS\10.0.1\Source/list.c **** 
  44:Generated_Source\PSoC6\pdl\rtos\FreeRTOS\10.0.1\Source/list.c **** 	/* The list end value is the highest possible value in the list to
  45:Generated_Source\PSoC6\pdl\rtos\FreeRTOS\10.0.1\Source/list.c **** 	ensure it remains at the end of the list. */
  46:Generated_Source\PSoC6\pdl\rtos\FreeRTOS\10.0.1\Source/list.c **** 	pxList->xListEnd.xItemValue = portMAX_DELAY;
  38              		.loc 1 46 0
  39 0006 4FF0FF32 		mov	r2, #-1
  40 000a 8260     		str	r2, [r0, #8]
  47:Generated_Source\PSoC6\pdl\rtos\FreeRTOS\10.0.1\Source/list.c **** 
  48:Generated_Source\PSoC6\pdl\rtos\FreeRTOS\10.0.1\Source/list.c **** 	/* The list end next and previous pointers point to itself so we know
  49:Generated_Source\PSoC6\pdl\rtos\FreeRTOS\10.0.1\Source/list.c **** 	when the list is empty. */
  50:Generated_Source\PSoC6\pdl\rtos\FreeRTOS\10.0.1\Source/list.c **** 	pxList->xListEnd.pxNext = ( ListItem_t * ) &( pxList->xListEnd );	/*lint !e826 !e740 The mini list
  41              		.loc 1 50 0
  42 000c C360     		str	r3, [r0, #12]
  51:Generated_Source\PSoC6\pdl\rtos\FreeRTOS\10.0.1\Source/list.c **** 	pxList->xListEnd.pxPrevious = ( ListItem_t * ) &( pxList->xListEnd );/*lint !e826 !e740 The mini l
  43              		.loc 1 51 0
  44 000e 0361     		str	r3, [r0, #16]
  52:Generated_Source\PSoC6\pdl\rtos\FreeRTOS\10.0.1\Source/list.c **** 
  53:Generated_Source\PSoC6\pdl\rtos\FreeRTOS\10.0.1\Source/list.c **** 	pxList->uxNumberOfItems = ( UBaseType_t ) 0U;
  45              		.loc 1 53 0
  46 0010 0023     		movs	r3, #0
  47 0012 0360     		str	r3, [r0]
  48 0014 7047     		bx	lr
  49              		.cfi_endproc
  50              	.LFE662:
  51              		.size	vListInitialise, .-vListInitialise
  52 0016 00BF     		.section	.text.vListInitialiseItem,"ax",%progbits
  53              		.align	2
  54              		.global	vListInitialiseItem
  55              		.thumb
  56              		.thumb_func
  57              		.type	vListInitialiseItem, %function
  58              	vListInitialiseItem:
  59              	.LFB663:
  54:Generated_Source\PSoC6\pdl\rtos\FreeRTOS\10.0.1\Source/list.c **** 
  55:Generated_Source\PSoC6\pdl\rtos\FreeRTOS\10.0.1\Source/list.c **** 	/* Write known values into the list if
ARM GAS  C:\Users\yomat\AppData\Local\Temp\ccWoMvNR.s 			page 3


  56:Generated_Source\PSoC6\pdl\rtos\FreeRTOS\10.0.1\Source/list.c **** 	configUSE_LIST_DATA_INTEGRITY_CHECK_BYTES is set to 1. */
  57:Generated_Source\PSoC6\pdl\rtos\FreeRTOS\10.0.1\Source/list.c **** 	listSET_LIST_INTEGRITY_CHECK_1_VALUE( pxList );
  58:Generated_Source\PSoC6\pdl\rtos\FreeRTOS\10.0.1\Source/list.c **** 	listSET_LIST_INTEGRITY_CHECK_2_VALUE( pxList );
  59:Generated_Source\PSoC6\pdl\rtos\FreeRTOS\10.0.1\Source/list.c **** }
  60:Generated_Source\PSoC6\pdl\rtos\FreeRTOS\10.0.1\Source/list.c **** /*-----------------------------------------------------------*/
  61:Generated_Source\PSoC6\pdl\rtos\FreeRTOS\10.0.1\Source/list.c **** 
  62:Generated_Source\PSoC6\pdl\rtos\FreeRTOS\10.0.1\Source/list.c **** void vListInitialiseItem( ListItem_t * const pxItem )
  63:Generated_Source\PSoC6\pdl\rtos\FreeRTOS\10.0.1\Source/list.c **** {
  60              		.loc 1 63 0
  61              		.cfi_startproc
  62              		@ args = 0, pretend = 0, frame = 0
  63              		@ frame_needed = 0, uses_anonymous_args = 0
  64              		@ link register save eliminated.
  65              	.LVL1:
  64:Generated_Source\PSoC6\pdl\rtos\FreeRTOS\10.0.1\Source/list.c **** 	/* Make sure the list item is not recorded as being on a list. */
  65:Generated_Source\PSoC6\pdl\rtos\FreeRTOS\10.0.1\Source/list.c **** 	pxItem->pvContainer = NULL;
  66              		.loc 1 65 0
  67 0000 0023     		movs	r3, #0
  68 0002 0361     		str	r3, [r0, #16]
  69 0004 7047     		bx	lr
  70              		.cfi_endproc
  71              	.LFE663:
  72              		.size	vListInitialiseItem, .-vListInitialiseItem
  73 0006 00BF     		.section	.text.vListInsertEnd,"ax",%progbits
  74              		.align	2
  75              		.global	vListInsertEnd
  76              		.thumb
  77              		.thumb_func
  78              		.type	vListInsertEnd, %function
  79              	vListInsertEnd:
  80              	.LFB664:
  66:Generated_Source\PSoC6\pdl\rtos\FreeRTOS\10.0.1\Source/list.c **** 
  67:Generated_Source\PSoC6\pdl\rtos\FreeRTOS\10.0.1\Source/list.c **** 	/* Write known values into the list item if
  68:Generated_Source\PSoC6\pdl\rtos\FreeRTOS\10.0.1\Source/list.c **** 	configUSE_LIST_DATA_INTEGRITY_CHECK_BYTES is set to 1. */
  69:Generated_Source\PSoC6\pdl\rtos\FreeRTOS\10.0.1\Source/list.c **** 	listSET_FIRST_LIST_ITEM_INTEGRITY_CHECK_VALUE( pxItem );
  70:Generated_Source\PSoC6\pdl\rtos\FreeRTOS\10.0.1\Source/list.c **** 	listSET_SECOND_LIST_ITEM_INTEGRITY_CHECK_VALUE( pxItem );
  71:Generated_Source\PSoC6\pdl\rtos\FreeRTOS\10.0.1\Source/list.c **** }
  72:Generated_Source\PSoC6\pdl\rtos\FreeRTOS\10.0.1\Source/list.c **** /*-----------------------------------------------------------*/
  73:Generated_Source\PSoC6\pdl\rtos\FreeRTOS\10.0.1\Source/list.c **** 
  74:Generated_Source\PSoC6\pdl\rtos\FreeRTOS\10.0.1\Source/list.c **** void vListInsertEnd( List_t * const pxList, ListItem_t * const pxNewListItem )
  75:Generated_Source\PSoC6\pdl\rtos\FreeRTOS\10.0.1\Source/list.c **** {
  81              		.loc 1 75 0
  82              		.cfi_startproc
  83              		@ args = 0, pretend = 0, frame = 0
  84              		@ frame_needed = 0, uses_anonymous_args = 0
  85              		@ link register save eliminated.
  86              	.LVL2:
  76:Generated_Source\PSoC6\pdl\rtos\FreeRTOS\10.0.1\Source/list.c **** ListItem_t * const pxIndex = pxList->pxIndex;
  87              		.loc 1 76 0
  88 0000 4368     		ldr	r3, [r0, #4]
  89              	.LVL3:
  77:Generated_Source\PSoC6\pdl\rtos\FreeRTOS\10.0.1\Source/list.c **** 
  78:Generated_Source\PSoC6\pdl\rtos\FreeRTOS\10.0.1\Source/list.c **** 	/* Only effective when configASSERT() is also defined, these tests may catch
  79:Generated_Source\PSoC6\pdl\rtos\FreeRTOS\10.0.1\Source/list.c **** 	the list data structures being overwritten in memory.  They will not catch
  80:Generated_Source\PSoC6\pdl\rtos\FreeRTOS\10.0.1\Source/list.c **** 	data errors caused by incorrect configuration or use of FreeRTOS. */
  81:Generated_Source\PSoC6\pdl\rtos\FreeRTOS\10.0.1\Source/list.c **** 	listTEST_LIST_INTEGRITY( pxList );
  82:Generated_Source\PSoC6\pdl\rtos\FreeRTOS\10.0.1\Source/list.c **** 	listTEST_LIST_ITEM_INTEGRITY( pxNewListItem );
ARM GAS  C:\Users\yomat\AppData\Local\Temp\ccWoMvNR.s 			page 4


  83:Generated_Source\PSoC6\pdl\rtos\FreeRTOS\10.0.1\Source/list.c **** 
  84:Generated_Source\PSoC6\pdl\rtos\FreeRTOS\10.0.1\Source/list.c **** 	/* Insert a new list item into pxList, but rather than sort the list,
  85:Generated_Source\PSoC6\pdl\rtos\FreeRTOS\10.0.1\Source/list.c **** 	makes the new list item the last item to be removed by a call to
  86:Generated_Source\PSoC6\pdl\rtos\FreeRTOS\10.0.1\Source/list.c **** 	listGET_OWNER_OF_NEXT_ENTRY(). */
  87:Generated_Source\PSoC6\pdl\rtos\FreeRTOS\10.0.1\Source/list.c **** 	pxNewListItem->pxNext = pxIndex;
  90              		.loc 1 87 0
  91 0002 4B60     		str	r3, [r1, #4]
  88:Generated_Source\PSoC6\pdl\rtos\FreeRTOS\10.0.1\Source/list.c **** 	pxNewListItem->pxPrevious = pxIndex->pxPrevious;
  92              		.loc 1 88 0
  93 0004 9A68     		ldr	r2, [r3, #8]
  94 0006 8A60     		str	r2, [r1, #8]
  89:Generated_Source\PSoC6\pdl\rtos\FreeRTOS\10.0.1\Source/list.c **** 
  90:Generated_Source\PSoC6\pdl\rtos\FreeRTOS\10.0.1\Source/list.c **** 	/* Only used during decision coverage testing. */
  91:Generated_Source\PSoC6\pdl\rtos\FreeRTOS\10.0.1\Source/list.c **** 	mtCOVERAGE_TEST_DELAY();
  92:Generated_Source\PSoC6\pdl\rtos\FreeRTOS\10.0.1\Source/list.c **** 
  93:Generated_Source\PSoC6\pdl\rtos\FreeRTOS\10.0.1\Source/list.c **** 	pxIndex->pxPrevious->pxNext = pxNewListItem;
  95              		.loc 1 93 0
  96 0008 9A68     		ldr	r2, [r3, #8]
  97 000a 5160     		str	r1, [r2, #4]
  94:Generated_Source\PSoC6\pdl\rtos\FreeRTOS\10.0.1\Source/list.c **** 	pxIndex->pxPrevious = pxNewListItem;
  98              		.loc 1 94 0
  99 000c 9960     		str	r1, [r3, #8]
  95:Generated_Source\PSoC6\pdl\rtos\FreeRTOS\10.0.1\Source/list.c **** 
  96:Generated_Source\PSoC6\pdl\rtos\FreeRTOS\10.0.1\Source/list.c **** 	/* Remember which list the item is in. */
  97:Generated_Source\PSoC6\pdl\rtos\FreeRTOS\10.0.1\Source/list.c **** 	pxNewListItem->pvContainer = ( void * ) pxList;
 100              		.loc 1 97 0
 101 000e 0861     		str	r0, [r1, #16]
  98:Generated_Source\PSoC6\pdl\rtos\FreeRTOS\10.0.1\Source/list.c **** 
  99:Generated_Source\PSoC6\pdl\rtos\FreeRTOS\10.0.1\Source/list.c **** 	( pxList->uxNumberOfItems )++;
 102              		.loc 1 99 0
 103 0010 0368     		ldr	r3, [r0]
 104              	.LVL4:
 105 0012 0133     		adds	r3, r3, #1
 106 0014 0360     		str	r3, [r0]
 107 0016 7047     		bx	lr
 108              		.cfi_endproc
 109              	.LFE664:
 110              		.size	vListInsertEnd, .-vListInsertEnd
 111              		.section	.text.vListInsert,"ax",%progbits
 112              		.align	2
 113              		.global	vListInsert
 114              		.thumb
 115              		.thumb_func
 116              		.type	vListInsert, %function
 117              	vListInsert:
 118              	.LFB665:
 100:Generated_Source\PSoC6\pdl\rtos\FreeRTOS\10.0.1\Source/list.c **** }
 101:Generated_Source\PSoC6\pdl\rtos\FreeRTOS\10.0.1\Source/list.c **** /*-----------------------------------------------------------*/
 102:Generated_Source\PSoC6\pdl\rtos\FreeRTOS\10.0.1\Source/list.c **** 
 103:Generated_Source\PSoC6\pdl\rtos\FreeRTOS\10.0.1\Source/list.c **** void vListInsert( List_t * const pxList, ListItem_t * const pxNewListItem )
 104:Generated_Source\PSoC6\pdl\rtos\FreeRTOS\10.0.1\Source/list.c **** {
 119              		.loc 1 104 0
 120              		.cfi_startproc
 121              		@ args = 0, pretend = 0, frame = 0
 122              		@ frame_needed = 0, uses_anonymous_args = 0
 123              		@ link register save eliminated.
 124              	.LVL5:
ARM GAS  C:\Users\yomat\AppData\Local\Temp\ccWoMvNR.s 			page 5


 125 0000 30B4     		push	{r4, r5}
 126              		.cfi_def_cfa_offset 8
 127              		.cfi_offset 4, -8
 128              		.cfi_offset 5, -4
 105:Generated_Source\PSoC6\pdl\rtos\FreeRTOS\10.0.1\Source/list.c **** ListItem_t *pxIterator;
 106:Generated_Source\PSoC6\pdl\rtos\FreeRTOS\10.0.1\Source/list.c **** const TickType_t xValueOfInsertion = pxNewListItem->xItemValue;
 129              		.loc 1 106 0
 130 0002 0D68     		ldr	r5, [r1]
 131              	.LVL6:
 107:Generated_Source\PSoC6\pdl\rtos\FreeRTOS\10.0.1\Source/list.c **** 
 108:Generated_Source\PSoC6\pdl\rtos\FreeRTOS\10.0.1\Source/list.c **** 	/* Only effective when configASSERT() is also defined, these tests may catch
 109:Generated_Source\PSoC6\pdl\rtos\FreeRTOS\10.0.1\Source/list.c **** 	the list data structures being overwritten in memory.  They will not catch
 110:Generated_Source\PSoC6\pdl\rtos\FreeRTOS\10.0.1\Source/list.c **** 	data errors caused by incorrect configuration or use of FreeRTOS. */
 111:Generated_Source\PSoC6\pdl\rtos\FreeRTOS\10.0.1\Source/list.c **** 	listTEST_LIST_INTEGRITY( pxList );
 112:Generated_Source\PSoC6\pdl\rtos\FreeRTOS\10.0.1\Source/list.c **** 	listTEST_LIST_ITEM_INTEGRITY( pxNewListItem );
 113:Generated_Source\PSoC6\pdl\rtos\FreeRTOS\10.0.1\Source/list.c **** 
 114:Generated_Source\PSoC6\pdl\rtos\FreeRTOS\10.0.1\Source/list.c **** 	/* Insert the new list item into the list, sorted in xItemValue order.
 115:Generated_Source\PSoC6\pdl\rtos\FreeRTOS\10.0.1\Source/list.c **** 
 116:Generated_Source\PSoC6\pdl\rtos\FreeRTOS\10.0.1\Source/list.c **** 	If the list already contains a list item with the same item value then the
 117:Generated_Source\PSoC6\pdl\rtos\FreeRTOS\10.0.1\Source/list.c **** 	new list item should be placed after it.  This ensures that TCB's which are
 118:Generated_Source\PSoC6\pdl\rtos\FreeRTOS\10.0.1\Source/list.c **** 	stored in ready lists (all of which have the same xItemValue value) get a
 119:Generated_Source\PSoC6\pdl\rtos\FreeRTOS\10.0.1\Source/list.c **** 	share of the CPU.  However, if the xItemValue is the same as the back marker
 120:Generated_Source\PSoC6\pdl\rtos\FreeRTOS\10.0.1\Source/list.c **** 	the iteration loop below will not end.  Therefore the value is checked
 121:Generated_Source\PSoC6\pdl\rtos\FreeRTOS\10.0.1\Source/list.c **** 	first, and the algorithm slightly modified if necessary. */
 122:Generated_Source\PSoC6\pdl\rtos\FreeRTOS\10.0.1\Source/list.c **** 	if( xValueOfInsertion == portMAX_DELAY )
 132              		.loc 1 122 0
 133 0004 B5F1FF3F 		cmp	r5, #-1
 134 0008 01D1     		bne	.L5
 123:Generated_Source\PSoC6\pdl\rtos\FreeRTOS\10.0.1\Source/list.c **** 	{
 124:Generated_Source\PSoC6\pdl\rtos\FreeRTOS\10.0.1\Source/list.c **** 		pxIterator = pxList->xListEnd.pxPrevious;
 135              		.loc 1 124 0
 136 000a 0269     		ldr	r2, [r0, #16]
 137              	.LVL7:
 138 000c 07E0     		b	.L6
 139              	.LVL8:
 140              	.L5:
 125:Generated_Source\PSoC6\pdl\rtos\FreeRTOS\10.0.1\Source/list.c **** 	}
 126:Generated_Source\PSoC6\pdl\rtos\FreeRTOS\10.0.1\Source/list.c **** 	else
 127:Generated_Source\PSoC6\pdl\rtos\FreeRTOS\10.0.1\Source/list.c **** 	{
 128:Generated_Source\PSoC6\pdl\rtos\FreeRTOS\10.0.1\Source/list.c **** 		/* *** NOTE ***********************************************************
 129:Generated_Source\PSoC6\pdl\rtos\FreeRTOS\10.0.1\Source/list.c **** 		If you find your application is crashing here then likely causes are
 130:Generated_Source\PSoC6\pdl\rtos\FreeRTOS\10.0.1\Source/list.c **** 		listed below.  In addition see http://www.freertos.org/FAQHelp.html for
 131:Generated_Source\PSoC6\pdl\rtos\FreeRTOS\10.0.1\Source/list.c **** 		more tips, and ensure configASSERT() is defined!
 132:Generated_Source\PSoC6\pdl\rtos\FreeRTOS\10.0.1\Source/list.c **** 		http://www.freertos.org/a00110.html#configASSERT
 133:Generated_Source\PSoC6\pdl\rtos\FreeRTOS\10.0.1\Source/list.c **** 
 134:Generated_Source\PSoC6\pdl\rtos\FreeRTOS\10.0.1\Source/list.c **** 			1) Stack overflow -
 135:Generated_Source\PSoC6\pdl\rtos\FreeRTOS\10.0.1\Source/list.c **** 			   see http://www.freertos.org/Stacks-and-stack-overflow-checking.html
 136:Generated_Source\PSoC6\pdl\rtos\FreeRTOS\10.0.1\Source/list.c **** 			2) Incorrect interrupt priority assignment, especially on Cortex-M
 137:Generated_Source\PSoC6\pdl\rtos\FreeRTOS\10.0.1\Source/list.c **** 			   parts where numerically high priority values denote low actual
 138:Generated_Source\PSoC6\pdl\rtos\FreeRTOS\10.0.1\Source/list.c **** 			   interrupt priorities, which can seem counter intuitive.  See
 139:Generated_Source\PSoC6\pdl\rtos\FreeRTOS\10.0.1\Source/list.c **** 			   http://www.freertos.org/RTOS-Cortex-M3-M4.html and the definition
 140:Generated_Source\PSoC6\pdl\rtos\FreeRTOS\10.0.1\Source/list.c **** 			   of configMAX_SYSCALL_INTERRUPT_PRIORITY on
 141:Generated_Source\PSoC6\pdl\rtos\FreeRTOS\10.0.1\Source/list.c **** 			   http://www.freertos.org/a00110.html
 142:Generated_Source\PSoC6\pdl\rtos\FreeRTOS\10.0.1\Source/list.c **** 			3) Calling an API function from within a critical section or when
 143:Generated_Source\PSoC6\pdl\rtos\FreeRTOS\10.0.1\Source/list.c **** 			   the scheduler is suspended, or calling an API function that does
 144:Generated_Source\PSoC6\pdl\rtos\FreeRTOS\10.0.1\Source/list.c **** 			   not end in "FromISR" from an interrupt.
 145:Generated_Source\PSoC6\pdl\rtos\FreeRTOS\10.0.1\Source/list.c **** 			4) Using a queue or semaphore before it has been initialised or
ARM GAS  C:\Users\yomat\AppData\Local\Temp\ccWoMvNR.s 			page 6


 146:Generated_Source\PSoC6\pdl\rtos\FreeRTOS\10.0.1\Source/list.c **** 			   before the scheduler has been started (are interrupts firing
 147:Generated_Source\PSoC6\pdl\rtos\FreeRTOS\10.0.1\Source/list.c **** 			   before vTaskStartScheduler() has been called?).
 148:Generated_Source\PSoC6\pdl\rtos\FreeRTOS\10.0.1\Source/list.c **** 		**********************************************************************/
 149:Generated_Source\PSoC6\pdl\rtos\FreeRTOS\10.0.1\Source/list.c **** 
 150:Generated_Source\PSoC6\pdl\rtos\FreeRTOS\10.0.1\Source/list.c **** 		for( pxIterator = ( ListItem_t * ) &( pxList->xListEnd ); pxIterator->pxNext->xItemValue <= xValu
 141              		.loc 1 150 0
 142 000e 00F10802 		add	r2, r0, #8
 143              	.LVL9:
 144 0012 00E0     		b	.L7
 145              	.L8:
 146 0014 1A46     		mov	r2, r3
 147              	.LVL10:
 148              	.L7:
 149              		.loc 1 150 0 is_stmt 0 discriminator 1
 150 0016 5368     		ldr	r3, [r2, #4]
 151 0018 1C68     		ldr	r4, [r3]
 152 001a A542     		cmp	r5, r4
 153 001c FAD2     		bcs	.L8
 154              	.L6:
 151:Generated_Source\PSoC6\pdl\rtos\FreeRTOS\10.0.1\Source/list.c **** 		{
 152:Generated_Source\PSoC6\pdl\rtos\FreeRTOS\10.0.1\Source/list.c **** 			/* There is nothing to do here, just iterating to the wanted
 153:Generated_Source\PSoC6\pdl\rtos\FreeRTOS\10.0.1\Source/list.c **** 			insertion position. */
 154:Generated_Source\PSoC6\pdl\rtos\FreeRTOS\10.0.1\Source/list.c **** 		}
 155:Generated_Source\PSoC6\pdl\rtos\FreeRTOS\10.0.1\Source/list.c **** 	}
 156:Generated_Source\PSoC6\pdl\rtos\FreeRTOS\10.0.1\Source/list.c **** 
 157:Generated_Source\PSoC6\pdl\rtos\FreeRTOS\10.0.1\Source/list.c **** 	pxNewListItem->pxNext = pxIterator->pxNext;
 155              		.loc 1 157 0 is_stmt 1
 156 001e 5368     		ldr	r3, [r2, #4]
 157 0020 4B60     		str	r3, [r1, #4]
 158:Generated_Source\PSoC6\pdl\rtos\FreeRTOS\10.0.1\Source/list.c **** 	pxNewListItem->pxNext->pxPrevious = pxNewListItem;
 158              		.loc 1 158 0
 159 0022 9960     		str	r1, [r3, #8]
 159:Generated_Source\PSoC6\pdl\rtos\FreeRTOS\10.0.1\Source/list.c **** 	pxNewListItem->pxPrevious = pxIterator;
 160              		.loc 1 159 0
 161 0024 8A60     		str	r2, [r1, #8]
 160:Generated_Source\PSoC6\pdl\rtos\FreeRTOS\10.0.1\Source/list.c **** 	pxIterator->pxNext = pxNewListItem;
 162              		.loc 1 160 0
 163 0026 5160     		str	r1, [r2, #4]
 161:Generated_Source\PSoC6\pdl\rtos\FreeRTOS\10.0.1\Source/list.c **** 
 162:Generated_Source\PSoC6\pdl\rtos\FreeRTOS\10.0.1\Source/list.c **** 	/* Remember which list the item is in.  This allows fast removal of the
 163:Generated_Source\PSoC6\pdl\rtos\FreeRTOS\10.0.1\Source/list.c **** 	item later. */
 164:Generated_Source\PSoC6\pdl\rtos\FreeRTOS\10.0.1\Source/list.c **** 	pxNewListItem->pvContainer = ( void * ) pxList;
 164              		.loc 1 164 0
 165 0028 0861     		str	r0, [r1, #16]
 165:Generated_Source\PSoC6\pdl\rtos\FreeRTOS\10.0.1\Source/list.c **** 
 166:Generated_Source\PSoC6\pdl\rtos\FreeRTOS\10.0.1\Source/list.c **** 	( pxList->uxNumberOfItems )++;
 166              		.loc 1 166 0
 167 002a 0368     		ldr	r3, [r0]
 168 002c 0133     		adds	r3, r3, #1
 169 002e 0360     		str	r3, [r0]
 167:Generated_Source\PSoC6\pdl\rtos\FreeRTOS\10.0.1\Source/list.c **** }
 170              		.loc 1 167 0
 171 0030 30BC     		pop	{r4, r5}
 172              		.cfi_restore 5
 173              		.cfi_restore 4
 174              		.cfi_def_cfa_offset 0
 175              	.LVL11:
ARM GAS  C:\Users\yomat\AppData\Local\Temp\ccWoMvNR.s 			page 7


 176 0032 7047     		bx	lr
 177              		.cfi_endproc
 178              	.LFE665:
 179              		.size	vListInsert, .-vListInsert
 180              		.section	.text.uxListRemove,"ax",%progbits
 181              		.align	2
 182              		.global	uxListRemove
 183              		.thumb
 184              		.thumb_func
 185              		.type	uxListRemove, %function
 186              	uxListRemove:
 187              	.LFB666:
 168:Generated_Source\PSoC6\pdl\rtos\FreeRTOS\10.0.1\Source/list.c **** /*-----------------------------------------------------------*/
 169:Generated_Source\PSoC6\pdl\rtos\FreeRTOS\10.0.1\Source/list.c **** 
 170:Generated_Source\PSoC6\pdl\rtos\FreeRTOS\10.0.1\Source/list.c **** UBaseType_t uxListRemove( ListItem_t * const pxItemToRemove )
 171:Generated_Source\PSoC6\pdl\rtos\FreeRTOS\10.0.1\Source/list.c **** {
 188              		.loc 1 171 0
 189              		.cfi_startproc
 190              		@ args = 0, pretend = 0, frame = 0
 191              		@ frame_needed = 0, uses_anonymous_args = 0
 192              		@ link register save eliminated.
 193              	.LVL12:
 172:Generated_Source\PSoC6\pdl\rtos\FreeRTOS\10.0.1\Source/list.c **** /* The list item knows which list it is in.  Obtain the list from the list
 173:Generated_Source\PSoC6\pdl\rtos\FreeRTOS\10.0.1\Source/list.c **** item. */
 174:Generated_Source\PSoC6\pdl\rtos\FreeRTOS\10.0.1\Source/list.c **** List_t * const pxList = ( List_t * ) pxItemToRemove->pvContainer;
 194              		.loc 1 174 0
 195 0000 0369     		ldr	r3, [r0, #16]
 196              	.LVL13:
 175:Generated_Source\PSoC6\pdl\rtos\FreeRTOS\10.0.1\Source/list.c **** 
 176:Generated_Source\PSoC6\pdl\rtos\FreeRTOS\10.0.1\Source/list.c **** 	pxItemToRemove->pxNext->pxPrevious = pxItemToRemove->pxPrevious;
 197              		.loc 1 176 0
 198 0002 4268     		ldr	r2, [r0, #4]
 199 0004 8168     		ldr	r1, [r0, #8]
 200 0006 9160     		str	r1, [r2, #8]
 177:Generated_Source\PSoC6\pdl\rtos\FreeRTOS\10.0.1\Source/list.c **** 	pxItemToRemove->pxPrevious->pxNext = pxItemToRemove->pxNext;
 201              		.loc 1 177 0
 202 0008 8268     		ldr	r2, [r0, #8]
 203 000a 4168     		ldr	r1, [r0, #4]
 204 000c 5160     		str	r1, [r2, #4]
 178:Generated_Source\PSoC6\pdl\rtos\FreeRTOS\10.0.1\Source/list.c **** 
 179:Generated_Source\PSoC6\pdl\rtos\FreeRTOS\10.0.1\Source/list.c **** 	/* Only used during decision coverage testing. */
 180:Generated_Source\PSoC6\pdl\rtos\FreeRTOS\10.0.1\Source/list.c **** 	mtCOVERAGE_TEST_DELAY();
 181:Generated_Source\PSoC6\pdl\rtos\FreeRTOS\10.0.1\Source/list.c **** 
 182:Generated_Source\PSoC6\pdl\rtos\FreeRTOS\10.0.1\Source/list.c **** 	/* Make sure the index is left pointing to a valid item. */
 183:Generated_Source\PSoC6\pdl\rtos\FreeRTOS\10.0.1\Source/list.c **** 	if( pxList->pxIndex == pxItemToRemove )
 205              		.loc 1 183 0
 206 000e 5A68     		ldr	r2, [r3, #4]
 207 0010 9042     		cmp	r0, r2
 208 0012 01D1     		bne	.L11
 184:Generated_Source\PSoC6\pdl\rtos\FreeRTOS\10.0.1\Source/list.c **** 	{
 185:Generated_Source\PSoC6\pdl\rtos\FreeRTOS\10.0.1\Source/list.c **** 		pxList->pxIndex = pxItemToRemove->pxPrevious;
 209              		.loc 1 185 0
 210 0014 8268     		ldr	r2, [r0, #8]
 211 0016 5A60     		str	r2, [r3, #4]
 212              	.L11:
 186:Generated_Source\PSoC6\pdl\rtos\FreeRTOS\10.0.1\Source/list.c **** 	}
 187:Generated_Source\PSoC6\pdl\rtos\FreeRTOS\10.0.1\Source/list.c **** 	else
ARM GAS  C:\Users\yomat\AppData\Local\Temp\ccWoMvNR.s 			page 8


 188:Generated_Source\PSoC6\pdl\rtos\FreeRTOS\10.0.1\Source/list.c **** 	{
 189:Generated_Source\PSoC6\pdl\rtos\FreeRTOS\10.0.1\Source/list.c **** 		mtCOVERAGE_TEST_MARKER();
 190:Generated_Source\PSoC6\pdl\rtos\FreeRTOS\10.0.1\Source/list.c **** 	}
 191:Generated_Source\PSoC6\pdl\rtos\FreeRTOS\10.0.1\Source/list.c **** 
 192:Generated_Source\PSoC6\pdl\rtos\FreeRTOS\10.0.1\Source/list.c **** 	pxItemToRemove->pvContainer = NULL;
 213              		.loc 1 192 0
 214 0018 0022     		movs	r2, #0
 215 001a 0261     		str	r2, [r0, #16]
 193:Generated_Source\PSoC6\pdl\rtos\FreeRTOS\10.0.1\Source/list.c **** 	( pxList->uxNumberOfItems )--;
 216              		.loc 1 193 0
 217 001c 1A68     		ldr	r2, [r3]
 218 001e 013A     		subs	r2, r2, #1
 219 0020 1A60     		str	r2, [r3]
 194:Generated_Source\PSoC6\pdl\rtos\FreeRTOS\10.0.1\Source/list.c **** 
 195:Generated_Source\PSoC6\pdl\rtos\FreeRTOS\10.0.1\Source/list.c **** 	return pxList->uxNumberOfItems;
 220              		.loc 1 195 0
 221 0022 1868     		ldr	r0, [r3]
 222              	.LVL14:
 196:Generated_Source\PSoC6\pdl\rtos\FreeRTOS\10.0.1\Source/list.c **** }
 223              		.loc 1 196 0
 224 0024 7047     		bx	lr
 225              		.cfi_endproc
 226              	.LFE666:
 227              		.size	uxListRemove, .-uxListRemove
 228 0026 00BF     		.text
 229              	.Letext0:
 230              		.file 2 "c:\\program files (x86)\\cypress\\psoc creator\\4.4\\psoc creator\\import\\gnu\\arm\\5.4.
 231              		.file 3 "c:\\program files (x86)\\cypress\\psoc creator\\4.4\\psoc creator\\import\\gnu\\arm\\5.4.
 232              		.file 4 "Generated_Source\\PSoC6\\pdl\\drivers/peripheral/device/cy_device.h"
 233              		.file 5 "Generated_Source\\PSoC6\\pdl\\drivers/peripheral/rtc/cy_rtc.h"
 234              		.file 6 "Generated_Source\\PSoC6\\pdl\\drivers/peripheral/scb/cy_scb_i2c.h"
 235              		.file 7 "Generated_Source\\PSoC6\\pdl\\drivers/peripheral/scb/cy_scb_uart.h"
 236              		.file 8 "Generated_Source\\PSoC6\\pdl\\drivers/peripheral/tcpwm/cy_tcpwm_pwm.h"
 237              		.file 9 "Generated_Source\\PSoC6\\pdl\\middleware/ble/cy_ble_stack_host_main.h"
 238              		.file 10 "Generated_Source\\PSoC6\\pdl\\middleware/ble/cy_ble_gap.h"
 239              		.file 11 "Generated_Source\\PSoC6\\pdl\\rtos/FreeRTOS/10.0.1/Source/portable/GCC/CM4F/portmacro.h"
 240              		.file 12 "Generated_Source\\PSoC6\\pdl\\rtos/FreeRTOS/10.0.1/Source/include/list.h"
 241              		.file 13 "Generated_Source\\PSoC6\\pdl\\cmsis/include/core_cm4.h"
 242              		.file 14 "Generated_Source\\PSoC6/UART.h"
 243              		.file 15 "Generated_Source\\PSoC6/I2C_1.h"
 244              		.file 16 "Generated_Source\\PSoC6/I2C_2.h"
 245              		.file 17 "Generated_Source\\PSoC6/PWM_AFE.h"
 246              		.file 18 "Generated_Source\\PSoC6/RTC.h"